Archive member included because of file (symbol)

/OPT/altera/12.1/tools/nios2eds/bin/gnu/H-i686-pc-linux-gnu/bin/../lib/gcc/nios2-elf/4.1.2/libgcc.a(lib2-divmod.o)
                              obj/default/srec_flash.o (__divsi3)
/OPT/altera/12.1/tools/nios2eds/bin/gnu/H-i686-pc-linux-gnu/bin/../lib/gcc/nios2-elf/4.1.2/../../../../nios2-elf/lib/libc.a(lib_a-atoi.o)
                              obj/default/http.o (atoi)
/OPT/altera/12.1/tools/nios2eds/bin/gnu/H-i686-pc-linux-gnu/bin/../lib/gcc/nios2-elf/4.1.2/../../../../nios2-elf/lib/libc.a(lib_a-ctype_.o)
                              obj/default/http.o (__ctype_ptr)
/OPT/altera/12.1/tools/nios2eds/bin/gnu/H-i686-pc-linux-gnu/bin/../lib/gcc/nios2-elf/4.1.2/../../../../nios2-elf/lib/libc.a(lib_a-fclose.o)
                              obj/default/http.o (fclose)
/OPT/altera/12.1/tools/nios2eds/bin/gnu/H-i686-pc-linux-gnu/bin/../lib/gcc/nios2-elf/4.1.2/../../../../nios2-elf/lib/libc.a(lib_a-fflush.o)
                              /OPT/altera/12.1/tools/nios2eds/bin/gnu/H-i686-pc-linux-gnu/bin/../lib/gcc/nios2-elf/4.1.2/../../../../nios2-elf/lib/libc.a(lib_a-fclose.o) (_fflush_r)
/OPT/altera/12.1/tools/nios2eds/bin/gnu/H-i686-pc-linux-gnu/bin/../lib/gcc/nios2-elf/4.1.2/../../../../nios2-elf/lib/libc.a(lib_a-fgetpos.o)
                              obj/default/http.o (fgetpos)
/OPT/altera/12.1/tools/nios2eds/bin/gnu/H-i686-pc-linux-gnu/bin/../lib/gcc/nios2-elf/4.1.2/../../../../nios2-elf/lib/libc.a(lib_a-findfp.o)
                              /OPT/altera/12.1/tools/nios2eds/bin/gnu/H-i686-pc-linux-gnu/bin/../lib/gcc/nios2-elf/4.1.2/../../../../nios2-elf/lib/libc.a(lib_a-fclose.o) (__sfp_lock_acquire)
/OPT/altera/12.1/tools/nios2eds/bin/gnu/H-i686-pc-linux-gnu/bin/../lib/gcc/nios2-elf/4.1.2/../../../../nios2-elf/lib/libc.a(lib_a-fopen.o)
                              obj/default/http.o (fopen)
/OPT/altera/12.1/tools/nios2eds/bin/gnu/H-i686-pc-linux-gnu/bin/../lib/gcc/nios2-elf/4.1.2/../../../../nios2-elf/lib/libc.a(lib_a-fprintf.o)
                              obj/default/alt_error_handler.o (fprintf)
/OPT/altera/12.1/tools/nios2eds/bin/gnu/H-i686-pc-linux-gnu/bin/../lib/gcc/nios2-elf/4.1.2/../../../../nios2-elf/lib/libc.a(lib_a-fread.o)
                              obj/default/http.o (fread)
/OPT/altera/12.1/tools/nios2eds/bin/gnu/H-i686-pc-linux-gnu/bin/../lib/gcc/nios2-elf/4.1.2/../../../../nios2-elf/lib/libc.a(lib_a-freer.o)
                              /OPT/altera/12.1/tools/nios2eds/bin/gnu/H-i686-pc-linux-gnu/bin/../lib/gcc/nios2-elf/4.1.2/../../../../nios2-elf/lib/libc.a(lib_a-fclose.o) (_free_r)
/OPT/altera/12.1/tools/nios2eds/bin/gnu/H-i686-pc-linux-gnu/bin/../lib/gcc/nios2-elf/4.1.2/../../../../nios2-elf/lib/libc.a(lib_a-fseek.o)
                              /OPT/altera/12.1/tools/nios2eds/bin/gnu/H-i686-pc-linux-gnu/bin/../lib/gcc/nios2-elf/4.1.2/../../../../nios2-elf/lib/libc.a(lib_a-fopen.o) (_fseek_r)
/OPT/altera/12.1/tools/nios2eds/bin/gnu/H-i686-pc-linux-gnu/bin/../lib/gcc/nios2-elf/4.1.2/../../../../nios2-elf/lib/libc.a(lib_a-fstatr.o)
                              /OPT/altera/12.1/tools/nios2eds/bin/gnu/H-i686-pc-linux-gnu/bin/../lib/gcc/nios2-elf/4.1.2/../../../../nios2-elf/lib/libc.a(lib_a-fseek.o) (_fstat_r)
/OPT/altera/12.1/tools/nios2eds/bin/gnu/H-i686-pc-linux-gnu/bin/../lib/gcc/nios2-elf/4.1.2/../../../../nios2-elf/lib/libc.a(lib_a-ftell.o)
                              /OPT/altera/12.1/tools/nios2eds/bin/gnu/H-i686-pc-linux-gnu/bin/../lib/gcc/nios2-elf/4.1.2/../../../../nios2-elf/lib/libc.a(lib_a-fgetpos.o) (_ftell_r)
/OPT/altera/12.1/tools/nios2eds/bin/gnu/H-i686-pc-linux-gnu/bin/../lib/gcc/nios2-elf/4.1.2/../../../../nios2-elf/lib/libc.a(lib_a-fwalk.o)
                              /OPT/altera/12.1/tools/nios2eds/bin/gnu/H-i686-pc-linux-gnu/bin/../lib/gcc/nios2-elf/4.1.2/../../../../nios2-elf/lib/libc.a(lib_a-fflush.o) (_fwalk_reent)
/OPT/altera/12.1/tools/nios2eds/bin/gnu/H-i686-pc-linux-gnu/bin/../lib/gcc/nios2-elf/4.1.2/../../../../nios2-elf/lib/libc.a(lib_a-fwrite.o)
                              obj/default/alt_error_handler.o (fwrite)
/OPT/altera/12.1/tools/nios2eds/bin/gnu/H-i686-pc-linux-gnu/bin/../lib/gcc/nios2-elf/4.1.2/../../../../nios2-elf/lib/libc.a(lib_a-impure.o)
                              obj/default/alt_error_handler.o (_impure_ptr)
/OPT/altera/12.1/tools/nios2eds/bin/gnu/H-i686-pc-linux-gnu/bin/../lib/gcc/nios2-elf/4.1.2/../../../../nios2-elf/lib/libc.a(lib_a-int_errno.o)
                              /OPT/altera/12.1/tools/nios2eds/bin/gnu/H-i686-pc-linux-gnu/bin/../lib/gcc/nios2-elf/4.1.2/../../../../nios2-elf/lib/libc.a(lib_a-fstatr.o) (errno)
/OPT/altera/12.1/tools/nios2eds/bin/gnu/H-i686-pc-linux-gnu/bin/../lib/gcc/nios2-elf/4.1.2/../../../../nios2-elf/lib/libc.a(lib_a-makebuf.o)
                              /OPT/altera/12.1/tools/nios2eds/bin/gnu/H-i686-pc-linux-gnu/bin/../lib/gcc/nios2-elf/4.1.2/../../../../nios2-elf/lib/libc.a(lib_a-fseek.o) (__smakebuf_r)
/OPT/altera/12.1/tools/nios2eds/bin/gnu/H-i686-pc-linux-gnu/bin/../lib/gcc/nios2-elf/4.1.2/../../../../nios2-elf/lib/libc.a(lib_a-mallocr.o)
                              /OPT/altera/12.1/tools/nios2eds/bin/gnu/H-i686-pc-linux-gnu/bin/../lib/gcc/nios2-elf/4.1.2/../../../../nios2-elf/lib/libc.a(lib_a-findfp.o) (_malloc_r)
/OPT/altera/12.1/tools/nios2eds/bin/gnu/H-i686-pc-linux-gnu/bin/../lib/gcc/nios2-elf/4.1.2/../../../../nios2-elf/lib/libc.a(lib_a-memcpy.o)
                              obj/default/http.o (memcpy)
/OPT/altera/12.1/tools/nios2eds/bin/gnu/H-i686-pc-linux-gnu/bin/../lib/gcc/nios2-elf/4.1.2/../../../../nios2-elf/lib/libc.a(lib_a-memmove.o)
                              obj/default/http.o (memmove)
/OPT/altera/12.1/tools/nios2eds/bin/gnu/H-i686-pc-linux-gnu/bin/../lib/gcc/nios2-elf/4.1.2/../../../../nios2-elf/lib/libc.a(lib_a-memset.o)
                              obj/default/http.o (memset)
/OPT/altera/12.1/tools/nios2eds/bin/gnu/H-i686-pc-linux-gnu/bin/../lib/gcc/nios2-elf/4.1.2/../../../../nios2-elf/lib/libc.a(lib_a-openr.o)
                              /OPT/altera/12.1/tools/nios2eds/bin/gnu/H-i686-pc-linux-gnu/bin/../lib/gcc/nios2-elf/4.1.2/../../../../nios2-elf/lib/libc.a(lib_a-fopen.o) (_open_r)
/OPT/altera/12.1/tools/nios2eds/bin/gnu/H-i686-pc-linux-gnu/bin/../lib/gcc/nios2-elf/4.1.2/../../../../nios2-elf/lib/libc.a(lib_a-perror.o)
                              obj/default/alt_error_handler.o (perror)
/OPT/altera/12.1/tools/nios2eds/bin/gnu/H-i686-pc-linux-gnu/bin/../lib/gcc/nios2-elf/4.1.2/../../../../nios2-elf/lib/libc.a(lib_a-printf.o)
                              obj/default/alt_error_handler.o (printf)
/OPT/altera/12.1/tools/nios2eds/bin/gnu/H-i686-pc-linux-gnu/bin/../lib/gcc/nios2-elf/4.1.2/../../../../nios2-elf/lib/libc.a(lib_a-puts.o)
                              obj/default/alt_error_handler.o (puts)
/OPT/altera/12.1/tools/nios2eds/bin/gnu/H-i686-pc-linux-gnu/bin/../lib/gcc/nios2-elf/4.1.2/../../../../nios2-elf/lib/libc.a(lib_a-refill.o)
                              /OPT/altera/12.1/tools/nios2eds/bin/gnu/H-i686-pc-linux-gnu/bin/../lib/gcc/nios2-elf/4.1.2/../../../../nios2-elf/lib/libc.a(lib_a-fread.o) (__srefill_r)
/OPT/altera/12.1/tools/nios2eds/bin/gnu/H-i686-pc-linux-gnu/bin/../lib/gcc/nios2-elf/4.1.2/../../../../nios2-elf/lib/libc.a(lib_a-sbrkr.o)
                              /OPT/altera/12.1/tools/nios2eds/bin/gnu/H-i686-pc-linux-gnu/bin/../lib/gcc/nios2-elf/4.1.2/../../../../nios2-elf/lib/libc.a(lib_a-freer.o) (_sbrk_r)
/OPT/altera/12.1/tools/nios2eds/bin/gnu/H-i686-pc-linux-gnu/bin/../lib/gcc/nios2-elf/4.1.2/../../../../nios2-elf/lib/libc.a(lib_a-sprintf.o)
                              obj/default/http.o (sprintf)
/OPT/altera/12.1/tools/nios2eds/bin/gnu/H-i686-pc-linux-gnu/bin/../lib/gcc/nios2-elf/4.1.2/../../../../nios2-elf/lib/libc.a(lib_a-sscanf.o)
                              obj/default/srec_flash.o (sscanf)
/OPT/altera/12.1/tools/nios2eds/bin/gnu/H-i686-pc-linux-gnu/bin/../lib/gcc/nios2-elf/4.1.2/../../../../nios2-elf/lib/libc.a(lib_a-stdio.o)
                              /OPT/altera/12.1/tools/nios2eds/bin/gnu/H-i686-pc-linux-gnu/bin/../lib/gcc/nios2-elf/4.1.2/../../../../nios2-elf/lib/libc.a(lib_a-findfp.o) (__sclose)
/OPT/altera/12.1/tools/nios2eds/bin/gnu/H-i686-pc-linux-gnu/bin/../lib/gcc/nios2-elf/4.1.2/../../../../nios2-elf/lib/libc.a(lib_a-strcasecmp.o)
                              obj/default/http.o (strcasecmp)
/OPT/altera/12.1/tools/nios2eds/bin/gnu/H-i686-pc-linux-gnu/bin/../lib/gcc/nios2-elf/4.1.2/../../../../nios2-elf/lib/libc.a(lib_a-strcat.o)
                              obj/default/srec_flash.o (strcat)
/OPT/altera/12.1/tools/nios2eds/bin/gnu/H-i686-pc-linux-gnu/bin/../lib/gcc/nios2-elf/4.1.2/../../../../nios2-elf/lib/libc.a(lib_a-strchr.o)
                              obj/default/http.o (strchr)
/OPT/altera/12.1/tools/nios2eds/bin/gnu/H-i686-pc-linux-gnu/bin/../lib/gcc/nios2-elf/4.1.2/../../../../nios2-elf/lib/libc.a(lib_a-strcmp.o)
                              obj/default/http.o (strcmp)
/OPT/altera/12.1/tools/nios2eds/bin/gnu/H-i686-pc-linux-gnu/bin/../lib/gcc/nios2-elf/4.1.2/../../../../nios2-elf/lib/libc.a(lib_a-strcpy.o)
                              obj/default/http.o (strcpy)
/OPT/altera/12.1/tools/nios2eds/bin/gnu/H-i686-pc-linux-gnu/bin/../lib/gcc/nios2-elf/4.1.2/../../../../nios2-elf/lib/libc.a(lib_a-strerror.o)
                              /OPT/altera/12.1/tools/nios2eds/bin/gnu/H-i686-pc-linux-gnu/bin/../lib/gcc/nios2-elf/4.1.2/../../../../nios2-elf/lib/libc.a(lib_a-perror.o) (strerror)
/OPT/altera/12.1/tools/nios2eds/bin/gnu/H-i686-pc-linux-gnu/bin/../lib/gcc/nios2-elf/4.1.2/../../../../nios2-elf/lib/libc.a(lib_a-strlen.o)
                              obj/default/http.o (strlen)
/OPT/altera/12.1/tools/nios2eds/bin/gnu/H-i686-pc-linux-gnu/bin/../lib/gcc/nios2-elf/4.1.2/../../../../nios2-elf/lib/libc.a(lib_a-strncmp.o)
                              obj/default/http.o (strncmp)
/OPT/altera/12.1/tools/nios2eds/bin/gnu/H-i686-pc-linux-gnu/bin/../lib/gcc/nios2-elf/4.1.2/../../../../nios2-elf/lib/libc.a(lib_a-strncpy.o)
                              obj/default/http.o (strncpy)
/OPT/altera/12.1/tools/nios2eds/bin/gnu/H-i686-pc-linux-gnu/bin/../lib/gcc/nios2-elf/4.1.2/../../../../nios2-elf/lib/libc.a(lib_a-strstr.o)
                              obj/default/http.o (strstr)
/OPT/altera/12.1/tools/nios2eds/bin/gnu/H-i686-pc-linux-gnu/bin/../lib/gcc/nios2-elf/4.1.2/../../../../nios2-elf/lib/libc.a(lib_a-strtok.o)
                              obj/default/http.o (strtok)
/OPT/altera/12.1/tools/nios2eds/bin/gnu/H-i686-pc-linux-gnu/bin/../lib/gcc/nios2-elf/4.1.2/../../../../nios2-elf/lib/libc.a(lib_a-strtok_r.o)
                              /OPT/altera/12.1/tools/nios2eds/bin/gnu/H-i686-pc-linux-gnu/bin/../lib/gcc/nios2-elf/4.1.2/../../../../nios2-elf/lib/libc.a(lib_a-strtok.o) (__strtok_r)
/OPT/altera/12.1/tools/nios2eds/bin/gnu/H-i686-pc-linux-gnu/bin/../lib/gcc/nios2-elf/4.1.2/../../../../nios2-elf/lib/libc.a(lib_a-strtol.o)
                              /OPT/altera/12.1/tools/nios2eds/bin/gnu/H-i686-pc-linux-gnu/bin/../lib/gcc/nios2-elf/4.1.2/../../../../nios2-elf/lib/libc.a(lib_a-atoi.o) (_strtol_r)
/OPT/altera/12.1/tools/nios2eds/bin/gnu/H-i686-pc-linux-gnu/bin/../lib/gcc/nios2-elf/4.1.2/../../../../nios2-elf/lib/libc.a(lib_a-u_strerr.o)
                              /OPT/altera/12.1/tools/nios2eds/bin/gnu/H-i686-pc-linux-gnu/bin/../lib/gcc/nios2-elf/4.1.2/../../../../nios2-elf/lib/libc.a(lib_a-strerror.o) (_user_strerror)
/OPT/altera/12.1/tools/nios2eds/bin/gnu/H-i686-pc-linux-gnu/bin/../lib/gcc/nios2-elf/4.1.2/../../../../nios2-elf/lib/libc.a(lib_a-vfprintf.o)
                              /OPT/altera/12.1/tools/nios2eds/bin/gnu/H-i686-pc-linux-gnu/bin/../lib/gcc/nios2-elf/4.1.2/../../../../nios2-elf/lib/libc.a(lib_a-printf.o) (___vfprintf_internal_r)
/OPT/altera/12.1/tools/nios2eds/bin/gnu/H-i686-pc-linux-gnu/bin/../lib/gcc/nios2-elf/4.1.2/../../../../nios2-elf/lib/libc.a(lib_a-vfscanf.o)
                              /OPT/altera/12.1/tools/nios2eds/bin/gnu/H-i686-pc-linux-gnu/bin/../lib/gcc/nios2-elf/4.1.2/../../../../nios2-elf/lib/libc.a(lib_a-sscanf.o) (__svfscanf_r)
/OPT/altera/12.1/tools/nios2eds/bin/gnu/H-i686-pc-linux-gnu/bin/../lib/gcc/nios2-elf/4.1.2/../../../../nios2-elf/lib/libc.a(lib_a-writer.o)
                              /OPT/altera/12.1/tools/nios2eds/bin/gnu/H-i686-pc-linux-gnu/bin/../lib/gcc/nios2-elf/4.1.2/../../../../nios2-elf/lib/libc.a(lib_a-stdio.o) (_write_r)
/OPT/altera/12.1/tools/nios2eds/bin/gnu/H-i686-pc-linux-gnu/bin/../lib/gcc/nios2-elf/4.1.2/../../../../nios2-elf/lib/libc.a(lib_a-wsetup.o)
                              /OPT/altera/12.1/tools/nios2eds/bin/gnu/H-i686-pc-linux-gnu/bin/../lib/gcc/nios2-elf/4.1.2/../../../../nios2-elf/lib/libc.a(lib_a-vfprintf.o) (__swsetup_r)
/OPT/altera/12.1/tools/nios2eds/bin/gnu/H-i686-pc-linux-gnu/bin/../lib/gcc/nios2-elf/4.1.2/../../../../nios2-elf/lib/libc.a(lib_a-closer.o)
                              /OPT/altera/12.1/tools/nios2eds/bin/gnu/H-i686-pc-linux-gnu/bin/../lib/gcc/nios2-elf/4.1.2/../../../../nios2-elf/lib/libc.a(lib_a-stdio.o) (_close_r)
/OPT/altera/12.1/tools/nios2eds/bin/gnu/H-i686-pc-linux-gnu/bin/../lib/gcc/nios2-elf/4.1.2/../../../../nios2-elf/lib/libc.a(lib_a-dtoa.o)
                              /OPT/altera/12.1/tools/nios2eds/bin/gnu/H-i686-pc-linux-gnu/bin/../lib/gcc/nios2-elf/4.1.2/../../../../nios2-elf/lib/libc.a(lib_a-vfprintf.o) (_dtoa_r)
/OPT/altera/12.1/tools/nios2eds/bin/gnu/H-i686-pc-linux-gnu/bin/../lib/gcc/nios2-elf/4.1.2/../../../../nios2-elf/lib/libc.a(lib_a-flags.o)
                              /OPT/altera/12.1/tools/nios2eds/bin/gnu/H-i686-pc-linux-gnu/bin/../lib/gcc/nios2-elf/4.1.2/../../../../nios2-elf/lib/libc.a(lib_a-fopen.o) (__sflags)
/OPT/altera/12.1/tools/nios2eds/bin/gnu/H-i686-pc-linux-gnu/bin/../lib/gcc/nios2-elf/4.1.2/../../../../nios2-elf/lib/libc.a(lib_a-fputc.o)
                              /OPT/altera/12.1/tools/nios2eds/bin/gnu/H-i686-pc-linux-gnu/bin/../lib/gcc/nios2-elf/4.1.2/../../../../nios2-elf/lib/libc.a(lib_a-perror.o) (fputc)
/OPT/altera/12.1/tools/nios2eds/bin/gnu/H-i686-pc-linux-gnu/bin/../lib/gcc/nios2-elf/4.1.2/../../../../nios2-elf/lib/libc.a(lib_a-fputs.o)
                              /OPT/altera/12.1/tools/nios2eds/bin/gnu/H-i686-pc-linux-gnu/bin/../lib/gcc/nios2-elf/4.1.2/../../../../nios2-elf/lib/libc.a(lib_a-perror.o) (fputs)
/OPT/altera/12.1/tools/nios2eds/bin/gnu/H-i686-pc-linux-gnu/bin/../lib/gcc/nios2-elf/4.1.2/../../../../nios2-elf/lib/libc.a(lib_a-fvwrite.o)
                              /OPT/altera/12.1/tools/nios2eds/bin/gnu/H-i686-pc-linux-gnu/bin/../lib/gcc/nios2-elf/4.1.2/../../../../nios2-elf/lib/libc.a(lib_a-fwrite.o) (__sfvwrite_r)
/OPT/altera/12.1/tools/nios2eds/bin/gnu/H-i686-pc-linux-gnu/bin/../lib/gcc/nios2-elf/4.1.2/../../../../nios2-elf/lib/libc.a(lib_a-isattyr.o)
                              /OPT/altera/12.1/tools/nios2eds/bin/gnu/H-i686-pc-linux-gnu/bin/../lib/gcc/nios2-elf/4.1.2/../../../../nios2-elf/lib/libc.a(lib_a-makebuf.o) (_isatty_r)
/OPT/altera/12.1/tools/nios2eds/bin/gnu/H-i686-pc-linux-gnu/bin/../lib/gcc/nios2-elf/4.1.2/../../../../nios2-elf/lib/libc.a(lib_a-iswspace.o)
                              /OPT/altera/12.1/tools/nios2eds/bin/gnu/H-i686-pc-linux-gnu/bin/../lib/gcc/nios2-elf/4.1.2/../../../../nios2-elf/lib/libc.a(lib_a-vfscanf.o) (iswspace)
/OPT/altera/12.1/tools/nios2eds/bin/gnu/H-i686-pc-linux-gnu/bin/../lib/gcc/nios2-elf/4.1.2/../../../../nios2-elf/lib/libc.a(lib_a-locale.o)
                              /OPT/altera/12.1/tools/nios2eds/bin/gnu/H-i686-pc-linux-gnu/bin/../lib/gcc/nios2-elf/4.1.2/../../../../nios2-elf/lib/libc.a(lib_a-vfprintf.o) (_localeconv_r)
/OPT/altera/12.1/tools/nios2eds/bin/gnu/H-i686-pc-linux-gnu/bin/../lib/gcc/nios2-elf/4.1.2/../../../../nios2-elf/lib/libc.a(lib_a-lseekr.o)
                              /OPT/altera/12.1/tools/nios2eds/bin/gnu/H-i686-pc-linux-gnu/bin/../lib/gcc/nios2-elf/4.1.2/../../../../nios2-elf/lib/libc.a(lib_a-stdio.o) (_lseek_r)
/OPT/altera/12.1/tools/nios2eds/bin/gnu/H-i686-pc-linux-gnu/bin/../lib/gcc/nios2-elf/4.1.2/../../../../nios2-elf/lib/libc.a(lib_a-mbrtowc.o)
                              /OPT/altera/12.1/tools/nios2eds/bin/gnu/H-i686-pc-linux-gnu/bin/../lib/gcc/nios2-elf/4.1.2/../../../../nios2-elf/lib/libc.a(lib_a-vfscanf.o) (_mbrtowc_r)
/OPT/altera/12.1/tools/nios2eds/bin/gnu/H-i686-pc-linux-gnu/bin/../lib/gcc/nios2-elf/4.1.2/../../../../nios2-elf/lib/libc.a(lib_a-mbtowc_r.o)
                              /OPT/altera/12.1/tools/nios2eds/bin/gnu/H-i686-pc-linux-gnu/bin/../lib/gcc/nios2-elf/4.1.2/../../../../nios2-elf/lib/libc.a(lib_a-mbrtowc.o) (_mbtowc_r)
/OPT/altera/12.1/tools/nios2eds/bin/gnu/H-i686-pc-linux-gnu/bin/../lib/gcc/nios2-elf/4.1.2/../../../../nios2-elf/lib/libc.a(lib_a-memchr.o)
                              /OPT/altera/12.1/tools/nios2eds/bin/gnu/H-i686-pc-linux-gnu/bin/../lib/gcc/nios2-elf/4.1.2/../../../../nios2-elf/lib/libc.a(lib_a-strstr.o) (memchr)
/OPT/altera/12.1/tools/nios2eds/bin/gnu/H-i686-pc-linux-gnu/bin/../lib/gcc/nios2-elf/4.1.2/../../../../nios2-elf/lib/libc.a(lib_a-memcmp.o)
                              /OPT/altera/12.1/tools/nios2eds/bin/gnu/H-i686-pc-linux-gnu/bin/../lib/gcc/nios2-elf/4.1.2/../../../../nios2-elf/lib/libc.a(lib_a-strstr.o) (memcmp)
/OPT/altera/12.1/tools/nios2eds/bin/gnu/H-i686-pc-linux-gnu/bin/../lib/gcc/nios2-elf/4.1.2/../../../../nios2-elf/lib/libc.a(lib_a-mprec.o)
                              /OPT/altera/12.1/tools/nios2eds/bin/gnu/H-i686-pc-linux-gnu/bin/../lib/gcc/nios2-elf/4.1.2/../../../../nios2-elf/lib/libc.a(lib_a-dtoa.o) (_Bfree)
/OPT/altera/12.1/tools/nios2eds/bin/gnu/H-i686-pc-linux-gnu/bin/../lib/gcc/nios2-elf/4.1.2/../../../../nios2-elf/lib/libc.a(lib_a-putc.o)
                              /OPT/altera/12.1/tools/nios2eds/bin/gnu/H-i686-pc-linux-gnu/bin/../lib/gcc/nios2-elf/4.1.2/../../../../nios2-elf/lib/libc.a(lib_a-fputc.o) (_putc_r)
/OPT/altera/12.1/tools/nios2eds/bin/gnu/H-i686-pc-linux-gnu/bin/../lib/gcc/nios2-elf/4.1.2/../../../../nios2-elf/lib/libc.a(lib_a-readr.o)
                              /OPT/altera/12.1/tools/nios2eds/bin/gnu/H-i686-pc-linux-gnu/bin/../lib/gcc/nios2-elf/4.1.2/../../../../nios2-elf/lib/libc.a(lib_a-stdio.o) (_read_r)
/OPT/altera/12.1/tools/nios2eds/bin/gnu/H-i686-pc-linux-gnu/bin/../lib/gcc/nios2-elf/4.1.2/../../../../nios2-elf/lib/libc.a(lib_a-reallocr.o)
                              /OPT/altera/12.1/tools/nios2eds/bin/gnu/H-i686-pc-linux-gnu/bin/../lib/gcc/nios2-elf/4.1.2/../../../../nios2-elf/lib/libc.a(lib_a-fvwrite.o) (_realloc_r)
/OPT/altera/12.1/tools/nios2eds/bin/gnu/H-i686-pc-linux-gnu/bin/../lib/gcc/nios2-elf/4.1.2/../../../../nios2-elf/lib/libc.a(lib_a-s_isinfd.o)
                              /OPT/altera/12.1/tools/nios2eds/bin/gnu/H-i686-pc-linux-gnu/bin/../lib/gcc/nios2-elf/4.1.2/../../../../nios2-elf/lib/libc.a(lib_a-vfprintf.o) (__isinfd)
/OPT/altera/12.1/tools/nios2eds/bin/gnu/H-i686-pc-linux-gnu/bin/../lib/gcc/nios2-elf/4.1.2/../../../../nios2-elf/lib/libc.a(lib_a-s_isnand.o)
                              /OPT/altera/12.1/tools/nios2eds/bin/gnu/H-i686-pc-linux-gnu/bin/../lib/gcc/nios2-elf/4.1.2/../../../../nios2-elf/lib/libc.a(lib_a-vfprintf.o) (__isnand)
/OPT/altera/12.1/tools/nios2eds/bin/gnu/H-i686-pc-linux-gnu/bin/../lib/gcc/nios2-elf/4.1.2/../../../../nios2-elf/lib/libc.a(lib_a-sccl.o)
                              /OPT/altera/12.1/tools/nios2eds/bin/gnu/H-i686-pc-linux-gnu/bin/../lib/gcc/nios2-elf/4.1.2/../../../../nios2-elf/lib/libc.a(lib_a-vfscanf.o) (__sccl)
/OPT/altera/12.1/tools/nios2eds/bin/gnu/H-i686-pc-linux-gnu/bin/../lib/gcc/nios2-elf/4.1.2/../../../../nios2-elf/lib/libc.a(lib_a-sf_nan.o)
                              /OPT/altera/12.1/tools/nios2eds/bin/gnu/H-i686-pc-linux-gnu/bin/../lib/gcc/nios2-elf/4.1.2/../../../../nios2-elf/lib/libc.a(lib_a-vfscanf.o) (nanf)
/OPT/altera/12.1/tools/nios2eds/bin/gnu/H-i686-pc-linux-gnu/bin/../lib/gcc/nios2-elf/4.1.2/../../../../nios2-elf/lib/libc.a(lib_a-strtod.o)
                              /OPT/altera/12.1/tools/nios2eds/bin/gnu/H-i686-pc-linux-gnu/bin/../lib/gcc/nios2-elf/4.1.2/../../../../nios2-elf/lib/libc.a(lib_a-vfscanf.o) (_strtod_r)
/OPT/altera/12.1/tools/nios2eds/bin/gnu/H-i686-pc-linux-gnu/bin/../lib/gcc/nios2-elf/4.1.2/../../../../nios2-elf/lib/libc.a(lib_a-strtoll_r.o)
                              /OPT/altera/12.1/tools/nios2eds/bin/gnu/H-i686-pc-linux-gnu/bin/../lib/gcc/nios2-elf/4.1.2/../../../../nios2-elf/lib/libc.a(lib_a-vfscanf.o) (_strtoll_r)
/OPT/altera/12.1/tools/nios2eds/bin/gnu/H-i686-pc-linux-gnu/bin/../lib/gcc/nios2-elf/4.1.2/../../../../nios2-elf/lib/libc.a(lib_a-strtoul.o)
                              /OPT/altera/12.1/tools/nios2eds/bin/gnu/H-i686-pc-linux-gnu/bin/../lib/gcc/nios2-elf/4.1.2/../../../../nios2-elf/lib/libc.a(lib_a-vfscanf.o) (_strtoul_r)
/OPT/altera/12.1/tools/nios2eds/bin/gnu/H-i686-pc-linux-gnu/bin/../lib/gcc/nios2-elf/4.1.2/../../../../nios2-elf/lib/libc.a(lib_a-strtoull_r.o)
                              /OPT/altera/12.1/tools/nios2eds/bin/gnu/H-i686-pc-linux-gnu/bin/../lib/gcc/nios2-elf/4.1.2/../../../../nios2-elf/lib/libc.a(lib_a-vfscanf.o) (_strtoull_r)
/OPT/altera/12.1/tools/nios2eds/bin/gnu/H-i686-pc-linux-gnu/bin/../lib/gcc/nios2-elf/4.1.2/../../../../nios2-elf/lib/libc.a(lib_a-ungetc.o)
                              /OPT/altera/12.1/tools/nios2eds/bin/gnu/H-i686-pc-linux-gnu/bin/../lib/gcc/nios2-elf/4.1.2/../../../../nios2-elf/lib/libc.a(lib_a-vfscanf.o) (_ungetc_r)
/OPT/altera/12.1/tools/nios2eds/bin/gnu/H-i686-pc-linux-gnu/bin/../lib/gcc/nios2-elf/4.1.2/../../../../nios2-elf/lib/libc.a(lib_a-wbuf.o)
                              /OPT/altera/12.1/tools/nios2eds/bin/gnu/H-i686-pc-linux-gnu/bin/../lib/gcc/nios2-elf/4.1.2/../../../../nios2-elf/lib/libc.a(lib_a-putc.o) (__swbuf_r)
/OPT/altera/12.1/tools/nios2eds/bin/gnu/H-i686-pc-linux-gnu/bin/../lib/gcc/nios2-elf/4.1.2/../../../../nios2-elf/lib/libc.a(lib_a-callocr.o)
                              /OPT/altera/12.1/tools/nios2eds/bin/gnu/H-i686-pc-linux-gnu/bin/../lib/gcc/nios2-elf/4.1.2/../../../../nios2-elf/lib/libc.a(lib_a-mprec.o) (_calloc_r)
/OPT/altera/12.1/tools/nios2eds/bin/gnu/H-i686-pc-linux-gnu/bin/../lib/gcc/nios2-elf/4.1.2/../../../../nios2-elf/lib/libc.a(lib_a-gdtoa-gethex.o)
                              /OPT/altera/12.1/tools/nios2eds/bin/gnu/H-i686-pc-linux-gnu/bin/../lib/gcc/nios2-elf/4.1.2/../../../../nios2-elf/lib/libc.a(lib_a-strtod.o) (__gethex)
/OPT/altera/12.1/tools/nios2eds/bin/gnu/H-i686-pc-linux-gnu/bin/../lib/gcc/nios2-elf/4.1.2/../../../../nios2-elf/lib/libc.a(lib_a-gdtoa-hexnan.o)
                              /OPT/altera/12.1/tools/nios2eds/bin/gnu/H-i686-pc-linux-gnu/bin/../lib/gcc/nios2-elf/4.1.2/../../../../nios2-elf/lib/libc.a(lib_a-strtod.o) (__hexnan)
/OPT/altera/12.1/tools/nios2eds/bin/gnu/H-i686-pc-linux-gnu/bin/../lib/gcc/nios2-elf/4.1.2/libgcc.a(_muldi3.o)
                              /OPT/altera/12.1/tools/nios2eds/bin/gnu/H-i686-pc-linux-gnu/bin/../lib/gcc/nios2-elf/4.1.2/../../../../nios2-elf/lib/libc.a(lib_a-strtoll_r.o) (__muldi3)
/OPT/altera/12.1/tools/nios2eds/bin/gnu/H-i686-pc-linux-gnu/bin/../lib/gcc/nios2-elf/4.1.2/libgcc.a(_fixunsdfsi.o)
                              /OPT/altera/12.1/tools/nios2eds/bin/gnu/H-i686-pc-linux-gnu/bin/../lib/gcc/nios2-elf/4.1.2/../../../../nios2-elf/lib/libc.a(lib_a-strtod.o) (__fixunsdfsi)
/OPT/altera/12.1/tools/nios2eds/bin/gnu/H-i686-pc-linux-gnu/bin/../lib/gcc/nios2-elf/4.1.2/libgcc.a(_udivdi3.o)
                              /OPT/altera/12.1/tools/nios2eds/bin/gnu/H-i686-pc-linux-gnu/bin/../lib/gcc/nios2-elf/4.1.2/../../../../nios2-elf/lib/libc.a(lib_a-vfprintf.o) (__udivdi3)
/OPT/altera/12.1/tools/nios2eds/bin/gnu/H-i686-pc-linux-gnu/bin/../lib/gcc/nios2-elf/4.1.2/libgcc.a(_umoddi3.o)
                              /OPT/altera/12.1/tools/nios2eds/bin/gnu/H-i686-pc-linux-gnu/bin/../lib/gcc/nios2-elf/4.1.2/../../../../nios2-elf/lib/libc.a(lib_a-vfprintf.o) (__umoddi3)
/OPT/altera/12.1/tools/nios2eds/bin/gnu/H-i686-pc-linux-gnu/bin/../lib/gcc/nios2-elf/4.1.2/libgcc.a(_ne_sf.o)
                              /OPT/altera/12.1/tools/nios2eds/bin/gnu/H-i686-pc-linux-gnu/bin/../lib/gcc/nios2-elf/4.1.2/../../../../nios2-elf/lib/libc.a(lib_a-strtod.o) (__nesf2)
/OPT/altera/12.1/tools/nios2eds/bin/gnu/H-i686-pc-linux-gnu/bin/../lib/gcc/nios2-elf/4.1.2/libgcc.a(_gt_sf.o)
                              /OPT/altera/12.1/tools/nios2eds/bin/gnu/H-i686-pc-linux-gnu/bin/../lib/gcc/nios2-elf/4.1.2/../../../../nios2-elf/lib/libc.a(lib_a-strtod.o) (__gtsf2)
/OPT/altera/12.1/tools/nios2eds/bin/gnu/H-i686-pc-linux-gnu/bin/../lib/gcc/nios2-elf/4.1.2/libgcc.a(_lt_sf.o)
                              /OPT/altera/12.1/tools/nios2eds/bin/gnu/H-i686-pc-linux-gnu/bin/../lib/gcc/nios2-elf/4.1.2/../../../../nios2-elf/lib/libc.a(lib_a-strtod.o) (__ltsf2)
/OPT/altera/12.1/tools/nios2eds/bin/gnu/H-i686-pc-linux-gnu/bin/../lib/gcc/nios2-elf/4.1.2/libgcc.a(_addsub_df.o)
                              /OPT/altera/12.1/tools/nios2eds/bin/gnu/H-i686-pc-linux-gnu/bin/../lib/gcc/nios2-elf/4.1.2/../../../../nios2-elf/lib/libc.a(lib_a-dtoa.o) (__subdf3)
/OPT/altera/12.1/tools/nios2eds/bin/gnu/H-i686-pc-linux-gnu/bin/../lib/gcc/nios2-elf/4.1.2/libgcc.a(_mul_df.o)
                              /OPT/altera/12.1/tools/nios2eds/bin/gnu/H-i686-pc-linux-gnu/bin/../lib/gcc/nios2-elf/4.1.2/../../../../nios2-elf/lib/libc.a(lib_a-dtoa.o) (__muldf3)
/OPT/altera/12.1/tools/nios2eds/bin/gnu/H-i686-pc-linux-gnu/bin/../lib/gcc/nios2-elf/4.1.2/libgcc.a(_div_df.o)
                              /OPT/altera/12.1/tools/nios2eds/bin/gnu/H-i686-pc-linux-gnu/bin/../lib/gcc/nios2-elf/4.1.2/../../../../nios2-elf/lib/libc.a(lib_a-dtoa.o) (__divdf3)
/OPT/altera/12.1/tools/nios2eds/bin/gnu/H-i686-pc-linux-gnu/bin/../lib/gcc/nios2-elf/4.1.2/libgcc.a(_eq_df.o)
                              /OPT/altera/12.1/tools/nios2eds/bin/gnu/H-i686-pc-linux-gnu/bin/../lib/gcc/nios2-elf/4.1.2/../../../../nios2-elf/lib/libc.a(lib_a-vfprintf.o) (__eqdf2)
/OPT/altera/12.1/tools/nios2eds/bin/gnu/H-i686-pc-linux-gnu/bin/../lib/gcc/nios2-elf/4.1.2/libgcc.a(_ne_df.o)
                              /OPT/altera/12.1/tools/nios2eds/bin/gnu/H-i686-pc-linux-gnu/bin/../lib/gcc/nios2-elf/4.1.2/../../../../nios2-elf/lib/libc.a(lib_a-vfprintf.o) (__nedf2)
/OPT/altera/12.1/tools/nios2eds/bin/gnu/H-i686-pc-linux-gnu/bin/../lib/gcc/nios2-elf/4.1.2/libgcc.a(_gt_df.o)
                              /OPT/altera/12.1/tools/nios2eds/bin/gnu/H-i686-pc-linux-gnu/bin/../lib/gcc/nios2-elf/4.1.2/../../../../nios2-elf/lib/libc.a(lib_a-dtoa.o) (__gtdf2)
/OPT/altera/12.1/tools/nios2eds/bin/gnu/H-i686-pc-linux-gnu/bin/../lib/gcc/nios2-elf/4.1.2/libgcc.a(_ge_df.o)
                              /OPT/altera/12.1/tools/nios2eds/bin/gnu/H-i686-pc-linux-gnu/bin/../lib/gcc/nios2-elf/4.1.2/../../../../nios2-elf/lib/libc.a(lib_a-dtoa.o) (__gedf2)
/OPT/altera/12.1/tools/nios2eds/bin/gnu/H-i686-pc-linux-gnu/bin/../lib/gcc/nios2-elf/4.1.2/libgcc.a(_lt_df.o)
                              /OPT/altera/12.1/tools/nios2eds/bin/gnu/H-i686-pc-linux-gnu/bin/../lib/gcc/nios2-elf/4.1.2/../../../../nios2-elf/lib/libc.a(lib_a-vfprintf.o) (__ltdf2)
/OPT/altera/12.1/tools/nios2eds/bin/gnu/H-i686-pc-linux-gnu/bin/../lib/gcc/nios2-elf/4.1.2/libgcc.a(_le_df.o)
                              /OPT/altera/12.1/tools/nios2eds/bin/gnu/H-i686-pc-linux-gnu/bin/../lib/gcc/nios2-elf/4.1.2/../../../../nios2-elf/lib/libc.a(lib_a-strtod.o) (__ledf2)
/OPT/altera/12.1/tools/nios2eds/bin/gnu/H-i686-pc-linux-gnu/bin/../lib/gcc/nios2-elf/4.1.2/libgcc.a(_si_to_df.o)
                              /OPT/altera/12.1/tools/nios2eds/bin/gnu/H-i686-pc-linux-gnu/bin/../lib/gcc/nios2-elf/4.1.2/../../../../nios2-elf/lib/libc.a(lib_a-dtoa.o) (__floatsidf)
/OPT/altera/12.1/tools/nios2eds/bin/gnu/H-i686-pc-linux-gnu/bin/../lib/gcc/nios2-elf/4.1.2/libgcc.a(_df_to_si.o)
                              /OPT/altera/12.1/tools/nios2eds/bin/gnu/H-i686-pc-linux-gnu/bin/../lib/gcc/nios2-elf/4.1.2/../../../../nios2-elf/lib/libc.a(lib_a-dtoa.o) (__fixdfsi)
/OPT/altera/12.1/tools/nios2eds/bin/gnu/H-i686-pc-linux-gnu/bin/../lib/gcc/nios2-elf/4.1.2/libgcc.a(_df_to_sf.o)
                              /OPT/altera/12.1/tools/nios2eds/bin/gnu/H-i686-pc-linux-gnu/bin/../lib/gcc/nios2-elf/4.1.2/../../../../nios2-elf/lib/libc.a(lib_a-vfscanf.o) (__truncdfsf2)
/OPT/altera/12.1/tools/nios2eds/bin/gnu/H-i686-pc-linux-gnu/bin/../lib/gcc/nios2-elf/4.1.2/libgcc.a(_thenan_df.o)
                              /OPT/altera/12.1/tools/nios2eds/bin/gnu/H-i686-pc-linux-gnu/bin/../lib/gcc/nios2-elf/4.1.2/libgcc.a(_addsub_df.o) (__thenan_df)
/OPT/altera/12.1/tools/nios2eds/bin/gnu/H-i686-pc-linux-gnu/bin/../lib/gcc/nios2-elf/4.1.2/libgcc.a(_usi_to_df.o)
                              /OPT/altera/12.1/tools/nios2eds/bin/gnu/H-i686-pc-linux-gnu/bin/../lib/gcc/nios2-elf/4.1.2/../../../../nios2-elf/lib/libc.a(lib_a-dtoa.o) (__floatunsidf)
/OPT/altera/12.1/tools/nios2eds/bin/gnu/H-i686-pc-linux-gnu/bin/../lib/gcc/nios2-elf/4.1.2/libgcc.a(_clz.o)
                              /OPT/altera/12.1/tools/nios2eds/bin/gnu/H-i686-pc-linux-gnu/bin/../lib/gcc/nios2-elf/4.1.2/libgcc.a(_udivdi3.o) (__clz_tab)
/OPT/altera/12.1/tools/nios2eds/bin/gnu/H-i686-pc-linux-gnu/bin/../lib/gcc/nios2-elf/4.1.2/libgcc.a(_clzsi2.o)
                              /OPT/altera/12.1/tools/nios2eds/bin/gnu/H-i686-pc-linux-gnu/bin/../lib/gcc/nios2-elf/4.1.2/libgcc.a(_si_to_df.o) (__clzsi2)
/OPT/altera/12.1/tools/nios2eds/bin/gnu/H-i686-pc-linux-gnu/bin/../lib/gcc/nios2-elf/4.1.2/libgcc.a(_unpack_sf.o)
                              /OPT/altera/12.1/tools/nios2eds/bin/gnu/H-i686-pc-linux-gnu/bin/../lib/gcc/nios2-elf/4.1.2/libgcc.a(_ne_sf.o) (__unpack_f)
/OPT/altera/12.1/tools/nios2eds/bin/gnu/H-i686-pc-linux-gnu/bin/../lib/gcc/nios2-elf/4.1.2/libgcc.a(_fpcmp_parts_sf.o)
                              /OPT/altera/12.1/tools/nios2eds/bin/gnu/H-i686-pc-linux-gnu/bin/../lib/gcc/nios2-elf/4.1.2/libgcc.a(_ne_sf.o) (__fpcmp_parts_f)
/OPT/altera/12.1/tools/nios2eds/bin/gnu/H-i686-pc-linux-gnu/bin/../lib/gcc/nios2-elf/4.1.2/libgcc.a(_make_sf.o)
                              /OPT/altera/12.1/tools/nios2eds/bin/gnu/H-i686-pc-linux-gnu/bin/../lib/gcc/nios2-elf/4.1.2/libgcc.a(_df_to_sf.o) (__make_fp)
/OPT/altera/12.1/tools/nios2eds/bin/gnu/H-i686-pc-linux-gnu/bin/../lib/gcc/nios2-elf/4.1.2/libgcc.a(_pack_df.o)
                              /OPT/altera/12.1/tools/nios2eds/bin/gnu/H-i686-pc-linux-gnu/bin/../lib/gcc/nios2-elf/4.1.2/libgcc.a(_addsub_df.o) (__pack_d)
/OPT/altera/12.1/tools/nios2eds/bin/gnu/H-i686-pc-linux-gnu/bin/../lib/gcc/nios2-elf/4.1.2/libgcc.a(_unpack_df.o)
                              /OPT/altera/12.1/tools/nios2eds/bin/gnu/H-i686-pc-linux-gnu/bin/../lib/gcc/nios2-elf/4.1.2/libgcc.a(_addsub_df.o) (__unpack_d)
/OPT/altera/12.1/tools/nios2eds/bin/gnu/H-i686-pc-linux-gnu/bin/../lib/gcc/nios2-elf/4.1.2/libgcc.a(_fpcmp_parts_df.o)
                              /OPT/altera/12.1/tools/nios2eds/bin/gnu/H-i686-pc-linux-gnu/bin/../lib/gcc/nios2-elf/4.1.2/libgcc.a(_eq_df.o) (__fpcmp_parts_d)
/OPT/altera/12.1/tools/nios2eds/bin/gnu/H-i686-pc-linux-gnu/bin/../lib/gcc/nios2-elf/4.1.2/libgcc.a(_pack_sf.o)
                              /OPT/altera/12.1/tools/nios2eds/bin/gnu/H-i686-pc-linux-gnu/bin/../lib/gcc/nios2-elf/4.1.2/libgcc.a(_make_sf.o) (__pack_f)
../G4Capstone_bsp//libucosii_bsp.a(alt_dcache_flush.o)
                              obj/default/srec_flash.o (alt_dcache_flush)
../G4Capstone_bsp//libucosii_bsp.a(alt_flash_dev.o)
                              obj/default/network_utilities.o (alt_flash_open_dev)
../G4Capstone_bsp//libucosii_bsp.a(alt_fstat.o)
                              /OPT/altera/12.1/tools/nios2eds/bin/gnu/H-i686-pc-linux-gnu/bin/../lib/gcc/nios2-elf/4.1.2/../../../../nios2-elf/lib/libc.a(lib_a-fstatr.o) (fstat)
../G4Capstone_bsp//libucosii_bsp.a(alt_irq_register.o)
                              obj/default/dm9000a.o (alt_irq_register)
../G4Capstone_bsp//libucosii_bsp.a(alt_irq_vars.o)
                              ../G4Capstone_bsp//libucosii_bsp.a(alt_irq_register.o) (alt_irq_active)
../G4Capstone_bsp//libucosii_bsp.a(alt_isatty.o)
                              /OPT/altera/12.1/tools/nios2eds/bin/gnu/H-i686-pc-linux-gnu/bin/../lib/gcc/nios2-elf/4.1.2/../../../../nios2-elf/lib/libc.a(lib_a-isattyr.o) (isatty)
../G4Capstone_bsp//libucosii_bsp.a(alt_lseek.o)
                              /OPT/altera/12.1/tools/nios2eds/bin/gnu/H-i686-pc-linux-gnu/bin/../lib/gcc/nios2-elf/4.1.2/../../../../nios2-elf/lib/libc.a(lib_a-lseekr.o) (lseek)
../G4Capstone_bsp//libucosii_bsp.a(alt_main.o)
                              ../G4Capstone_bsp//obj/HAL/src/crt0.o (alt_main)
../G4Capstone_bsp//libucosii_bsp.a(alt_open.o)
                              /OPT/altera/12.1/tools/nios2eds/bin/gnu/H-i686-pc-linux-gnu/bin/../lib/gcc/nios2-elf/4.1.2/../../../../nios2-elf/lib/libc.a(lib_a-openr.o) (open)
../G4Capstone_bsp//libucosii_bsp.a(alt_release_fd.o)
                              ../G4Capstone_bsp//libucosii_bsp.a(alt_open.o) (alt_release_fd)
../G4Capstone_bsp//libucosii_bsp.a(alt_sbrk.o)
                              /OPT/altera/12.1/tools/nios2eds/bin/gnu/H-i686-pc-linux-gnu/bin/../lib/gcc/nios2-elf/4.1.2/../../../../nios2-elf/lib/libc.a(lib_a-sbrkr.o) (sbrk)
../G4Capstone_bsp//libucosii_bsp.a(alt_tick.o)
                              obj/default/http.o (_alt_nticks)
../G4Capstone_bsp//libucosii_bsp.a(alt_usleep.o)
                              obj/default/dm9000a.o (usleep)
../G4Capstone_bsp//libucosii_bsp.a(alt_env_lock.o)
                              ../G4Capstone_bsp//libucosii_bsp.a(alt_main.o) (alt_envsem)
../G4Capstone_bsp//libucosii_bsp.a(alt_malloc_lock.o)
                              /OPT/altera/12.1/tools/nios2eds/bin/gnu/H-i686-pc-linux-gnu/bin/../lib/gcc/nios2-elf/4.1.2/../../../../nios2-elf/lib/libc.a(lib_a-freer.o) (__malloc_lock)
../G4Capstone_bsp//libucosii_bsp.a(os_core.o)
                              ../G4Capstone_bsp//libucosii_bsp.a(alt_main.o) (OSInit)
../G4Capstone_bsp//libucosii_bsp.a(os_dbg.o)
                              ../G4Capstone_bsp//libucosii_bsp.a(os_core.o) (OSDebugInit)
../G4Capstone_bsp//libucosii_bsp.a(os_flag.o)
                              ../G4Capstone_bsp//libucosii_bsp.a(os_core.o) (OS_FlagInit)
../G4Capstone_bsp//libucosii_bsp.a(os_mbox.o)
                              obj/default/http.o (OSMboxPost)
../G4Capstone_bsp//libucosii_bsp.a(os_mem.o)
                              ../G4Capstone_bsp//libucosii_bsp.a(os_core.o) (OS_MemInit)
../G4Capstone_bsp//libucosii_bsp.a(os_q.o)
                              obj/default/web_server.o (OSQCreate)
../G4Capstone_bsp//libucosii_bsp.a(os_sem.o)
                              ../G4Capstone_bsp//libucosii_bsp.a(alt_main.o) (OSSemCreate)
../G4Capstone_bsp//libucosii_bsp.a(os_task.o)
                              obj/default/web_server.o (OSTaskCreateExt)
../G4Capstone_bsp//libucosii_bsp.a(os_time.o)
                              obj/default/web_server.o (OSTimeDly)
../G4Capstone_bsp//libucosii_bsp.a(alt_sys_init.o)
                              ../G4Capstone_bsp//libucosii_bsp.a(alt_main.o) (alt_irq_init)
../G4Capstone_bsp//libucosii_bsp.a(altera_avalon_jtag_uart_fd.o)
                              ../G4Capstone_bsp//libucosii_bsp.a(alt_sys_init.o) (altera_avalon_jtag_uart_read_fd)
../G4Capstone_bsp//libucosii_bsp.a(altera_avalon_jtag_uart_init.o)
                              ../G4Capstone_bsp//libucosii_bsp.a(alt_sys_init.o) (altera_avalon_jtag_uart_init)
../G4Capstone_bsp//libucosii_bsp.a(altera_avalon_jtag_uart_ioctl.o)
                              ../G4Capstone_bsp//libucosii_bsp.a(altera_avalon_jtag_uart_fd.o) (altera_avalon_jtag_uart_ioctl)
../G4Capstone_bsp//libucosii_bsp.a(altera_avalon_jtag_uart_read.o)
                              ../G4Capstone_bsp//libucosii_bsp.a(altera_avalon_jtag_uart_fd.o) (altera_avalon_jtag_uart_read)
../G4Capstone_bsp//libucosii_bsp.a(altera_avalon_jtag_uart_write.o)
                              ../G4Capstone_bsp//libucosii_bsp.a(altera_avalon_jtag_uart_fd.o) (altera_avalon_jtag_uart_write)
../G4Capstone_bsp//libucosii_bsp.a(altera_avalon_timer_sc.o)
                              ../G4Capstone_bsp//libucosii_bsp.a(alt_sys_init.o) (alt_avalon_timer_sc_init)
../G4Capstone_bsp//libucosii_bsp.a(altera_ro_zipfs.o)
                              ../G4Capstone_bsp//libucosii_bsp.a(alt_sys_init.o) (alt_ro_zipfs_open)
../G4Capstone_bsp//libucosii_bsp.a(altera_up_avalon_audio_and_video_config.o)
                              obj/default/web_server.o (alt_up_av_config_open_dev)
../G4Capstone_bsp//libucosii_bsp.a(altera_up_avalon_character_lcd.o)
                              obj/default/web_server.o (alt_up_character_lcd_init)
../G4Capstone_bsp//libucosii_bsp.a(alt_iniche_close.o)
                              obj/default/http.o (close)
../G4Capstone_bsp//libucosii_bsp.a(alt_iniche_dev.o)
                              obj/default/web_server.o (alt_iniche_dev_list)
../G4Capstone_bsp//libucosii_bsp.a(alt_iniche_read.o)
                              /OPT/altera/12.1/tools/nios2eds/bin/gnu/H-i686-pc-linux-gnu/bin/../lib/gcc/nios2-elf/4.1.2/../../../../nios2-elf/lib/libc.a(lib_a-readr.o) (read)
../G4Capstone_bsp//libucosii_bsp.a(alt_iniche_write.o)
                              /OPT/altera/12.1/tools/nios2eds/bin/gnu/H-i686-pc-linux-gnu/bin/../lib/gcc/nios2-elf/4.1.2/../../../../nios2-elf/lib/libc.a(lib_a-writer.o) (write)
../G4Capstone_bsp//libucosii_bsp.a(ipnet.o)
                              obj/default/dm9000a.o (rcvdq)
../G4Capstone_bsp//libucosii_bsp.a(ipstart.o)
                              ../G4Capstone_bsp//libucosii_bsp.a(ipnet.o) (ifNumber)
../G4Capstone_bsp//libucosii_bsp.a(igmp_cmn.o)
                              ../G4Capstone_bsp//libucosii_bsp.a(ipstart.o) (igmp_init)
../G4Capstone_bsp//libucosii_bsp.a(bsdsock.o)
                              obj/default/http.o (bsd_accept)
../G4Capstone_bsp//libucosii_bsp.a(cksum.o)
                              ../G4Capstone_bsp//libucosii_bsp.a(igmp_cmn.o) (cksum)
../G4Capstone_bsp//libucosii_bsp.a(in_utils.o)
                              ../G4Capstone_bsp//libucosii_bsp.a(igmp_cmn.o) (ns_printf)
../G4Capstone_bsp//libucosii_bsp.a(netmain.o)
                              obj/default/web_server.o (iniche_net_ready)
../G4Capstone_bsp//libucosii_bsp.a(tk_crnos.o)
                              ../G4Capstone_bsp//libucosii_bsp.a(ipnet.o) (tk_yield)
../G4Capstone_bsp//libucosii_bsp.a(dhcpclnt.o)
                              ../G4Capstone_bsp//libucosii_bsp.a(netmain.o) (dhc_second)
../G4Capstone_bsp//libucosii_bsp.a(dhcputil.o)
                              ../G4Capstone_bsp//libucosii_bsp.a(dhcpclnt.o) (find_opt)
../G4Capstone_bsp//libucosii_bsp.a(pktalloc.o)
                              ../G4Capstone_bsp//libucosii_bsp.a(ipnet.o) (pk_init)
../G4Capstone_bsp//libucosii_bsp.a(q.o)
                              ../G4Capstone_bsp//libucosii_bsp.a(ipnet.o) (getq)
../G4Capstone_bsp//libucosii_bsp.a(udp_open.o)
                              ../G4Capstone_bsp//libucosii_bsp.a(dhcpclnt.o) (udp_open)
../G4Capstone_bsp//libucosii_bsp.a(asm_cksum.o)
                              ../G4Capstone_bsp//libucosii_bsp.a(cksum.o) (asm_cksum)
../G4Capstone_bsp//libucosii_bsp.a(brdutils.o)
                              ../G4Capstone_bsp//libucosii_bsp.a(ipnet.o) (dtrap)
../G4Capstone_bsp//libucosii_bsp.a(osportco.o)
                              ../G4Capstone_bsp//libucosii_bsp.a(tk_crnos.o) (tcp_sleep_count)
../G4Capstone_bsp//libucosii_bsp.a(targnios.o)
                              obj/default/web_server.o (alt_iniche_init)
../G4Capstone_bsp//libucosii_bsp.a(nptcp.o)
                              ../G4Capstone_bsp//libucosii_bsp.a(bsdsock.o) (soq)
../G4Capstone_bsp//libucosii_bsp.a(rawsock.o)
                              ../G4Capstone_bsp//libucosii_bsp.a(nptcp.o) (rawip_usrreq)
../G4Capstone_bsp//libucosii_bsp.a(sockcall.o)
                              obj/default/http.o (t_socket)
../G4Capstone_bsp//libucosii_bsp.a(socket.o)
                              ../G4Capstone_bsp//libucosii_bsp.a(sockcall.o) (socreate)
../G4Capstone_bsp//libucosii_bsp.a(socket2.o)
                              ../G4Capstone_bsp//libucosii_bsp.a(sockcall.o) (soqremque)
../G4Capstone_bsp//libucosii_bsp.a(soselect.o)
                              ../G4Capstone_bsp//libucosii_bsp.a(bsdsock.o) (t_select)
../G4Capstone_bsp//libucosii_bsp.a(tcp_in.o)
                              ../G4Capstone_bsp//libucosii_bsp.a(nptcp.o) (tcp_input)
../G4Capstone_bsp//libucosii_bsp.a(tcp_out.o)
                              ../G4Capstone_bsp//libucosii_bsp.a(tcp_in.o) (tcp_output)
../G4Capstone_bsp//libucosii_bsp.a(tcp_subr.o)
                              ../G4Capstone_bsp//libucosii_bsp.a(nptcp.o) (tcp_init)
../G4Capstone_bsp//libucosii_bsp.a(tcp_timr.o)
                              ../G4Capstone_bsp//libucosii_bsp.a(tcp_in.o) (tcp_keepidle)
../G4Capstone_bsp//libucosii_bsp.a(tcp_usr.o)
                              ../G4Capstone_bsp//libucosii_bsp.a(nptcp.o) (tcp_usrreq)
../G4Capstone_bsp//libucosii_bsp.a(tcpport.o)
                              ../G4Capstone_bsp//libucosii_bsp.a(ipstart.o) (tcpinit)
../G4Capstone_bsp//libucosii_bsp.a(udpsock.o)
                              ../G4Capstone_bsp//libucosii_bsp.a(nptcp.o) (udp_usrreq)
../G4Capstone_bsp//libucosii_bsp.a(alt_alarm_start.o)
                              ../G4Capstone_bsp//libucosii_bsp.a(altera_avalon_jtag_uart_init.o) (alt_alarm_start)
../G4Capstone_bsp//libucosii_bsp.a(alt_busy_sleep.o)
                              ../G4Capstone_bsp//libucosii_bsp.a(alt_usleep.o) (alt_busy_sleep)
../G4Capstone_bsp//libucosii_bsp.a(alt_close.o)
                              ../G4Capstone_bsp//libucosii_bsp.a(alt_iniche_close.o) (alt_close)
../G4Capstone_bsp//libucosii_bsp.a(alt_dev.o)
                              ../G4Capstone_bsp//libucosii_bsp.a(alt_open.o) (alt_dev_list)
../G4Capstone_bsp//libucosii_bsp.a(alt_dev_llist_insert.o)
                              ../G4Capstone_bsp//libucosii_bsp.a(alt_sys_init.o) (alt_dev_llist_insert)
../G4Capstone_bsp//libucosii_bsp.a(alt_do_ctors.o)
                              ../G4Capstone_bsp//libucosii_bsp.a(alt_main.o) (_do_ctors)
../G4Capstone_bsp//libucosii_bsp.a(alt_do_dtors.o)
                              ../G4Capstone_bsp//libucosii_bsp.a(alt_main.o) (_do_dtors)
../G4Capstone_bsp//libucosii_bsp.a(alt_errno.o)
                              ../G4Capstone_bsp//libucosii_bsp.a(alt_fstat.o) (alt_errno)
../G4Capstone_bsp//libucosii_bsp.a(alt_find_dev.o)
                              ../G4Capstone_bsp//libucosii_bsp.a(alt_flash_dev.o) (alt_find_dev)
../G4Capstone_bsp//libucosii_bsp.a(alt_find_file.o)
                              ../G4Capstone_bsp//libucosii_bsp.a(alt_open.o) (alt_find_file)
../G4Capstone_bsp//libucosii_bsp.a(alt_fs_reg.o)
                              ../G4Capstone_bsp//libucosii_bsp.a(alt_sys_init.o) (alt_fs_reg)
../G4Capstone_bsp//libucosii_bsp.a(alt_get_fd.o)
                              ../G4Capstone_bsp//libucosii_bsp.a(alt_open.o) (alt_get_fd)
../G4Capstone_bsp//libucosii_bsp.a(alt_iic.o)
                              ../G4Capstone_bsp//libucosii_bsp.a(altera_avalon_jtag_uart_init.o) (alt_ic_isr_register)
../G4Capstone_bsp//libucosii_bsp.a(alt_iic_isr_register.o)
                              ../G4Capstone_bsp//libucosii_bsp.a(alt_iic.o) (alt_iic_isr_register)
../G4Capstone_bsp//libucosii_bsp.a(alt_io_redirect.o)
                              ../G4Capstone_bsp//libucosii_bsp.a(alt_main.o) (alt_io_redirect)
../G4Capstone_bsp//libucosii_bsp.a(alt_irq_entry.o)
                              ../G4Capstone_bsp//libucosii_bsp.a(alt_irq_register.o) (alt_irq_entry)
../G4Capstone_bsp//libucosii_bsp.a(alt_irq_handler.o)
                              ../G4Capstone_bsp//libucosii_bsp.a(alt_irq_register.o) (alt_irq_handler)
../G4Capstone_bsp//libucosii_bsp.a(alt_read.o)
                              ../G4Capstone_bsp//libucosii_bsp.a(alt_iniche_read.o) (alt_read)
../G4Capstone_bsp//libucosii_bsp.a(alt_remap_cached.o)
                              ../G4Capstone_bsp//libucosii_bsp.a(targnios.o) (alt_remap_cached)
../G4Capstone_bsp//libucosii_bsp.a(alt_remap_uncached.o)
                              ../G4Capstone_bsp//libucosii_bsp.a(targnios.o) (alt_remap_uncached)
../G4Capstone_bsp//libucosii_bsp.a(alt_write.o)
                              ../G4Capstone_bsp//libucosii_bsp.a(alt_iniche_write.o) (alt_write)
../G4Capstone_bsp//libucosii_bsp.a(altera_nios2_qsys_irq.o)
                              ../G4Capstone_bsp//libucosii_bsp.a(alt_sys_init.o) (altera_nios2_qsys_irq_init)
../G4Capstone_bsp//libucosii_bsp.a(os_cpu_a.o)
                              ../G4Capstone_bsp//libucosii_bsp.a(os_core.o) (OSIntCtxSw)
../G4Capstone_bsp//libucosii_bsp.a(os_cpu_c.o)
                              ../G4Capstone_bsp//libucosii_bsp.a(os_task.o) (OSTaskStkInit)
../G4Capstone_bsp//libucosii_bsp.a(allports.o)
                              ../G4Capstone_bsp//libucosii_bsp.a(dhcpclnt.o) (name)
../G4Capstone_bsp//libucosii_bsp.a(timeouts.o)
                              ../G4Capstone_bsp//libucosii_bsp.a(netmain.o) (inet_timer)
../G4Capstone_bsp//libucosii_bsp.a(tk_misc.o)
                              ../G4Capstone_bsp//libucosii_bsp.a(netmain.o) (create_apptasks)
../G4Capstone_bsp//libucosii_bsp.a(alt_iniche_fcntl.o)
                              ../G4Capstone_bsp//libucosii_bsp.a(brdutils.o) (fcntl)
../G4Capstone_bsp//libucosii_bsp.a(et_arp.o)
                              ../G4Capstone_bsp//libucosii_bsp.a(ipstart.o) (etainit)
../G4Capstone_bsp//libucosii_bsp.a(iface.o)
                              ../G4Capstone_bsp//libucosii_bsp.a(ipnet.o) (netlist)
../G4Capstone_bsp//libucosii_bsp.a(ip.o)
                              ../G4Capstone_bsp//libucosii_bsp.a(ipstart.o) (ip_init)
../G4Capstone_bsp//libucosii_bsp.a(ip_reasm.o)
                              ../G4Capstone_bsp//libucosii_bsp.a(timeouts.o) (ire_cticks)
../G4Capstone_bsp//libucosii_bsp.a(ipdemux.o)
                              ../G4Capstone_bsp//libucosii_bsp.a(ipnet.o) (ip_rcv)
../G4Capstone_bsp//libucosii_bsp.a(ipmc.o)
                              ../G4Capstone_bsp//libucosii_bsp.a(ipstart.o) (in_addmulti)
../G4Capstone_bsp//libucosii_bsp.a(ipport.o)
                              ../G4Capstone_bsp//libucosii_bsp.a(targnios.o) (port_prep)
../G4Capstone_bsp//libucosii_bsp.a(ipraw.o)
                              ../G4Capstone_bsp//libucosii_bsp.a(rawsock.o) (ipraw_eps)
../G4Capstone_bsp//libucosii_bsp.a(iproute.o)
                              ../G4Capstone_bsp//libucosii_bsp.a(ip.o) (cachedRoute)
../G4Capstone_bsp//libucosii_bsp.a(udp.o)
                              ../G4Capstone_bsp//libucosii_bsp.a(ipdemux.o) (udpdemux)
../G4Capstone_bsp//libucosii_bsp.a(igmp.o)
                              ../G4Capstone_bsp//libucosii_bsp.a(igmp_cmn.o) (igmpv1_input)
../G4Capstone_bsp//libucosii_bsp.a(igmp2.o)
                              ../G4Capstone_bsp//libucosii_bsp.a(igmp_cmn.o) (igmpv2_input)
../G4Capstone_bsp//libucosii_bsp.a(ipopt.o)
                              ../G4Capstone_bsp//libucosii_bsp.a(socket.o) (ip_setmoptions)
../G4Capstone_bsp//libucosii_bsp.a(u_mctest.o)
                              ../G4Capstone_bsp//libucosii_bsp.a(allports.o) (u_mctest_init)
../G4Capstone_bsp//libucosii_bsp.a(dhcsetup.o)
                              ../G4Capstone_bsp//libucosii_bsp.a(allports.o) (dhc_setup)
../G4Capstone_bsp//libucosii_bsp.a(memdev.o)
                              ../G4Capstone_bsp//libucosii_bsp.a(allports.o) (init_memdev)
../G4Capstone_bsp//libucosii_bsp.a(parseip.o)
                              ../G4Capstone_bsp//libucosii_bsp.a(u_mctest.o) (inet_addr)
../G4Capstone_bsp//libucosii_bsp.a(tcpcksum.o)
                              ../G4Capstone_bsp//libucosii_bsp.a(nptcp.o) (tcp_cksum)
../G4Capstone_bsp//libucosii_bsp.a(in_pcb.o)
                              ../G4Capstone_bsp//libucosii_bsp.a(tcp_usr.o) (in_pcballoc)
../G4Capstone_bsp//libucosii_bsp.a(vfsfiles.o)
                              ../G4Capstone_bsp//libucosii_bsp.a(memdev.o) (vfsystems)
../G4Capstone_bsp//libucosii_bsp.a(vfsport.o)
                              ../G4Capstone_bsp//libucosii_bsp.a(allports.o) (prep_vfs)
../G4Capstone_bsp//libucosii_bsp.a(alt_exception_entry.o)
                              ../G4Capstone_bsp//libucosii_bsp.a(alt_irq_entry.o) (alt_exception)
../G4Capstone_bsp//libucosii_bsp.a(alt_fcntl.o)
                              ../G4Capstone_bsp//libucosii_bsp.a(alt_iniche_fcntl.o) (alt_fcntl)
../G4Capstone_bsp//libucosii_bsp.a(icmp.o)
                              ../G4Capstone_bsp//libucosii_bsp.a(ipdemux.o) (icmprcv)
/OPT/altera/12.1/tools/nios2eds/bin/gnu/H-i686-pc-linux-gnu/bin/../lib/gcc/nios2-elf/4.1.2/../../../../nios2-elf/lib/libc.a(lib_a-atexit.o)
                              ../G4Capstone_bsp//libucosii_bsp.a(alt_main.o) (atexit)
/OPT/altera/12.1/tools/nios2eds/bin/gnu/H-i686-pc-linux-gnu/bin/../lib/gcc/nios2-elf/4.1.2/../../../../nios2-elf/lib/libc.a(lib_a-calloc.o)
                              ../G4Capstone_bsp//libucosii_bsp.a(targnios.o) (calloc)
/OPT/altera/12.1/tools/nios2eds/bin/gnu/H-i686-pc-linux-gnu/bin/../lib/gcc/nios2-elf/4.1.2/../../../../nios2-elf/lib/libc.a(lib_a-exit.o)
                              ../G4Capstone_bsp//libucosii_bsp.a(alt_main.o) (exit)
/OPT/altera/12.1/tools/nios2eds/bin/gnu/H-i686-pc-linux-gnu/bin/../lib/gcc/nios2-elf/4.1.2/../../../../nios2-elf/lib/libc.a(lib_a-getc.o)
                              ../G4Capstone_bsp//libucosii_bsp.a(brdutils.o) (getc)
/OPT/altera/12.1/tools/nios2eds/bin/gnu/H-i686-pc-linux-gnu/bin/../lib/gcc/nios2-elf/4.1.2/../../../../nios2-elf/lib/libc.a(lib_a-malloc.o)
                              ../G4Capstone_bsp//libucosii_bsp.a(targnios.o) (free)
/OPT/altera/12.1/tools/nios2eds/bin/gnu/H-i686-pc-linux-gnu/bin/../lib/gcc/nios2-elf/4.1.2/../../../../nios2-elf/lib/libc.a(lib_a-rget.o)
                              /OPT/altera/12.1/tools/nios2eds/bin/gnu/H-i686-pc-linux-gnu/bin/../lib/gcc/nios2-elf/4.1.2/../../../../nios2-elf/lib/libc.a(lib_a-getc.o) (__srget_r)
/OPT/altera/12.1/tools/nios2eds/bin/gnu/H-i686-pc-linux-gnu/bin/../lib/gcc/nios2-elf/4.1.2/../../../../nios2-elf/lib/libc.a(lib_a-vprintf.o)
                              ../G4Capstone_bsp//libucosii_bsp.a(in_utils.o) (vprintf)
/OPT/altera/12.1/tools/nios2eds/bin/gnu/H-i686-pc-linux-gnu/bin/../lib/gcc/nios2-elf/4.1.2/../../../../nios2-elf/lib/libc.a(lib_a-vsprintf.o)
                              ../G4Capstone_bsp//libucosii_bsp.a(in_utils.o) (vsprintf)
/OPT/altera/12.1/tools/nios2eds/bin/gnu/H-i686-pc-linux-gnu/bin/../lib/gcc/nios2-elf/4.1.2/../../../../nios2-elf/lib/libc.a(lib_a-__atexit.o)
                              /OPT/altera/12.1/tools/nios2eds/bin/gnu/H-i686-pc-linux-gnu/bin/../lib/gcc/nios2-elf/4.1.2/../../../../nios2-elf/lib/libc.a(lib_a-atexit.o) (__register_exitproc)
/OPT/altera/12.1/tools/nios2eds/bin/gnu/H-i686-pc-linux-gnu/bin/../lib/gcc/nios2-elf/4.1.2/../../../../nios2-elf/lib/libc.a(lib_a-__call_atexit.o)
                              /OPT/altera/12.1/tools/nios2eds/bin/gnu/H-i686-pc-linux-gnu/bin/../lib/gcc/nios2-elf/4.1.2/../../../../nios2-elf/lib/libc.a(lib_a-exit.o) (__call_exitprocs)
../G4Capstone_bsp//libucosii_bsp.a(alt_exit.o)
                              /OPT/altera/12.1/tools/nios2eds/bin/gnu/H-i686-pc-linux-gnu/bin/../lib/gcc/nios2-elf/4.1.2/../../../../nios2-elf/lib/libc.a(lib_a-exit.o) (_exit)

Allocating common symbols
Common symbol       size              file

soq                 0x14              ../G4Capstone_bsp//libucosii_bsp.a(nptcp.o)
upload_buf          0x5b8d88          obj/default/http.o
alt_irq             0x100             ../G4Capstone_bsp//libucosii_bsp.a(alt_irq_handler.o)
tcp_optionbuf       0x4               ../G4Capstone_bsp//libucosii_bsp.a(tcp_out.o)
last_flash_sector_offset
                    0x4               obj/default/network_utilities.o
rt_mib              0x4               ../G4Capstone_bsp//libucosii_bsp.a(ip.o)
so_evtmap_create    0x4               ../G4Capstone_bsp//libucosii_bsp.a(ipport.o)
board_funcs         0x2a              obj/default/http.o
OSLockNesting       0x1               ../G4Capstone_bsp//libucosii_bsp.a(os_core.o)
tcb                 0x2c              ../G4Capstone_bsp//libucosii_bsp.a(tcp_subr.o)
OSRunning           0x1               ../G4Capstone_bsp//libucosii_bsp.a(os_core.o)
dhc_states          0xf0              ../G4Capstone_bsp//libucosii_bsp.a(dhcpclnt.o)
tcpstat             0xe0              ../G4Capstone_bsp//libucosii_bsp.a(tcp_subr.o)
OSIdleCtr           0x4               ../G4Capstone_bsp//libucosii_bsp.a(os_core.o)
udp_mib             0x10              ../G4Capstone_bsp//libucosii_bsp.a(udp.o)
to_netmain          0x1               ../G4Capstone_bsp//libucosii_bsp.a(netmain.o)
OSPrioHighRdy       0x1               ../G4Capstone_bsp//libucosii_bsp.a(os_core.o)
errno               0x4               /OPT/altera/12.1/tools/nios2eds/bin/gnu/H-i686-pc-linux-gnu/bin/../lib/gcc/nios2-elf/4.1.2/../../../../nios2-elf/lib/libc.a(lib_a-int_errno.o)
lilfreeq            0x14              ../G4Capstone_bsp//libucosii_bsp.a(pktalloc.o)
icmp_mib            0x68              ../G4Capstone_bsp//libucosii_bsp.a(icmp.o)
resid_semaphore     0x40              ../G4Capstone_bsp//libucosii_bsp.a(targnios.o)
alt_heapsem         0x4               ../G4Capstone_bsp//libucosii_bsp.a(alt_malloc_lock.o)
OSFlagTbl           0x370             ../G4Capstone_bsp//libucosii_bsp.a(os_core.o)
mbstat              0x8               ../G4Capstone_bsp//libucosii_bsp.a(nptcp.o)
netq_intmask        0x4               ../G4Capstone_bsp//libucosii_bsp.a(osportco.o)
select_wait         0x2               ../G4Capstone_bsp//libucosii_bsp.a(nptcp.o)
tcpmib              0x3c              ../G4Capstone_bsp//libucosii_bsp.a(nptcp.o)
OSPrioCur           0x1               ../G4Capstone_bsp//libucosii_bsp.a(os_core.o)
mheap_sem_ptr       0x4               ../G4Capstone_bsp//libucosii_bsp.a(targnios.o)
netlist             0x14              ../G4Capstone_bsp//libucosii_bsp.a(iface.o)
mbufq               0x14              ../G4Capstone_bsp//libucosii_bsp.a(nptcp.o)
OSTCBList           0x4               ../G4Capstone_bsp//libucosii_bsp.a(os_core.o)
alt_fd_list_lock    0x4               ../G4Capstone_bsp//libucosii_bsp.a(alt_dev.o)
OSMemTbl            0xc30             ../G4Capstone_bsp//libucosii_bsp.a(os_core.o)
OSTickStepState     0x1               ../G4Capstone_bsp//libucosii_bsp.a(os_core.o)
line_count          0x4               obj/default/srec_flash.o
OSTaskStatStk       0x800             ../G4Capstone_bsp//libucosii_bsp.a(os_core.o)
OSCtxSwCtr          0x4               ../G4Capstone_bsp//libucosii_bsp.a(os_core.o)
igmpstats           0x64              ../G4Capstone_bsp//libucosii_bsp.a(igmp_cmn.o)
ire_stats           0x18              ../G4Capstone_bsp//libucosii_bsp.a(ip_reasm.o)
__hexdig            0x100             /OPT/altera/12.1/tools/nios2eds/bin/gnu/H-i686-pc-linux-gnu/bin/../lib/gcc/nios2-elf/4.1.2/../../../../nios2-elf/lib/libc.a(lib_a-gdtoa-gethex.o)
old_mode            0x4               ../G4Capstone_bsp//libucosii_bsp.a(osportco.o)
vfs_dir_stale       0x4               ../G4Capstone_bsp//libucosii_bsp.a(vfsfiles.o)
cticks_factor       0x4               ../G4Capstone_bsp//libucosii_bsp.a(brdutils.o)
g_dm9ka             0x44              obj/default/dm9000a.o
OSIdleCtrMax        0x4               ../G4Capstone_bsp//libucosii_bsp.a(os_core.o)
memestats           0x10              ../G4Capstone_bsp//libucosii_bsp.a(pktalloc.o)
intimers            0x64              ../G4Capstone_bsp//libucosii_bsp.a(timeouts.o)
OSTCBFreeList       0x4               ../G4Capstone_bsp//libucosii_bsp.a(os_core.o)
global_TCPwakeup_setIndx
                    0x4               ../G4Capstone_bsp//libucosii_bsp.a(osportco.o)
rcvdq               0x14              ../G4Capstone_bsp//libucosii_bsp.a(ipnet.o)
http_rx_buffer      0xc000            obj/default/http.o
global_tcb_ext      0xfc              ../G4Capstone_bsp//libucosii_bsp.a(osportco.o)
netstatic           0x300             ../G4Capstone_bsp//libucosii_bsp.a(ipstart.o)
tcp_maxidle         0x4               ../G4Capstone_bsp//libucosii_bsp.a(tcp_timr.o)
flash_inf           0x30              obj/default/http.o
AudioTask_stk       0x2000            obj/default/web_server.o
OSCPUUsage          0x1               ../G4Capstone_bsp//libucosii_bsp.a(os_core.o)
nets                0x10              ../G4Capstone_bsp//libucosii_bsp.a(ipstart.o)
pktlog              0xf0              ../G4Capstone_bsp//libucosii_bsp.a(pktalloc.o)
frag                0x104             obj/default/srec_flash.o
OSTaskCtr           0x1               ../G4Capstone_bsp//libucosii_bsp.a(os_core.o)
OSMemFreeList       0x4               ../G4Capstone_bsp//libucosii_bsp.a(os_core.o)
vfs_open_files      0x4               ../G4Capstone_bsp//libucosii_bsp.a(vfsfiles.o)
cticks              0x4               ../G4Capstone_bsp//libucosii_bsp.a(osportco.o)
to_nettick          0x1               ../G4Capstone_bsp//libucosii_bsp.a(netmain.o)
WSInitialTaskStk    0x2000            obj/default/web_server.o
last_flash_sector   0x4               obj/default/network_utilities.o
OSQTbl              0x1e0             ../G4Capstone_bsp//libucosii_bsp.a(os_core.o)
OSTCBHighRdy        0x4               ../G4Capstone_bsp//libucosii_bsp.a(os_core.o)
OSQFreeList         0x4               ../G4Capstone_bsp//libucosii_bsp.a(os_core.o)
OSRdyGrp            0x1               ../G4Capstone_bsp//libucosii_bsp.a(os_core.o)
QUEUE               0x4               obj/default/web_server.o
ip_mib              0x50              ../G4Capstone_bsp//libucosii_bsp.a(ip.o)
OS_TPS              0x4               ../G4Capstone_bsp//libucosii_bsp.a(brdutils.o)
_atexit0            0x190             /OPT/altera/12.1/tools/nios2eds/bin/gnu/H-i686-pc-linux-gnu/bin/../lib/gcc/nios2-elf/4.1.2/../../../../nios2-elf/lib/libc.a(lib_a-atexit.o)
current_flash_block
                    0x4               obj/default/srec_flash.o
OSRdyTbl            0x3               ../G4Capstone_bsp//libucosii_bsp.a(os_core.o)
igmp_all_hosts_group
                    0x4               ../G4Capstone_bsp//libucosii_bsp.a(igmp_cmn.o)
eth_prt_buf         0x12              ../G4Capstone_bsp//libucosii_bsp.a(in_utils.o)
app_semaphore       0x18              ../G4Capstone_bsp//libucosii_bsp.a(targnios.o)
LCDTask_stk         0x2000            obj/default/web_server.o
rcvdq_sem_ptr       0x4               ../G4Capstone_bsp//libucosii_bsp.a(targnios.o)
OSEventFreeList     0x4               ../G4Capstone_bsp//libucosii_bsp.a(os_core.o)
http_tx_buffer      0xc000            obj/default/http.o
mfreeq              0x14              ../G4Capstone_bsp//libucosii_bsp.a(nptcp.o)
global_TCPwakeup_set
                    0xf0              ../G4Capstone_bsp//libucosii_bsp.a(osportco.o)
bigfreeq            0x14              ../G4Capstone_bsp//libucosii_bsp.a(pktalloc.o)
so_evtmap_delete    0x4               ../G4Capstone_bsp//libucosii_bsp.a(ipport.o)
tcp_saveti          0x28              ../G4Capstone_bsp//libucosii_bsp.a(tcp_in.o)
OSIntNesting        0x1               ../G4Capstone_bsp//libucosii_bsp.a(os_core.o)
so_evtmap           0x1               ../G4Capstone_bsp//libucosii_bsp.a(ipport.o)
board_control_mbox  0x4               obj/default/web_server.o
to_wstask           0x1               obj/default/web_server.o
OSTCBCur            0x4               ../G4Capstone_bsp//libucosii_bsp.a(os_core.o)
arp_table           0x100             ../G4Capstone_bsp//libucosii_bsp.a(et_arp.o)
tcp_iss             0x4               ../G4Capstone_bsp//libucosii_bsp.a(tcp_timr.o)
vfs_total_rw_space  0x4               ../G4Capstone_bsp//libucosii_bsp.a(vfsfiles.o)
OSTime              0x4               ../G4Capstone_bsp//libucosii_bsp.a(os_core.o)
OSTaskIdleStk       0x800             ../G4Capstone_bsp//libucosii_bsp.a(os_core.o)
OSEventTbl          0xb40             ../G4Capstone_bsp//libucosii_bsp.a(os_core.o)
vfs_total_dyna_files
                    0x4               ../G4Capstone_bsp//libucosii_bsp.a(vfsfiles.o)
OSTCBTbl            0x510             ../G4Capstone_bsp//libucosii_bsp.a(os_core.o)
ipreturn            0x12              ../G4Capstone_bsp//libucosii_bsp.a(in_utils.o)
OSFlagFreeList      0x4               ../G4Capstone_bsp//libucosii_bsp.a(os_core.o)
dropline            0x4               ../G4Capstone_bsp//libucosii_bsp.a(tcp_in.o)
OSStatRdy           0x1               ../G4Capstone_bsp//libucosii_bsp.a(os_core.o)
OSTCBPrioTbl        0x54              ../G4Capstone_bsp//libucosii_bsp.a(os_core.o)
igmp_all_rtrs_group
                    0x4               ../G4Capstone_bsp//libucosii_bsp.a(igmp_cmn.o)
alt_envsem          0x4               ../G4Capstone_bsp//libucosii_bsp.a(alt_env_lock.o)
OSIdleCtrRun        0x4               ../G4Capstone_bsp//libucosii_bsp.a(os_core.o)

Memory Configuration

Name             Origin             Length             Attributes
sdram_0          0x00800000         0x00800000
reset            0x01400000         0x00000020
generic_tristate_controller_0 0x01400020         0x003fffe0
sram_0           0x01880000         0x00080000
onchip_memory2_0_BEFORE_EXCEPTION 0x01904000         0x00000020
onchip_memory2_0 0x01904020         0x00003fe0
*default*        0x00000000         0xffffffff

Linker script and memory map

LOAD ../G4Capstone_bsp//obj/HAL/src/crt0.o
LOAD obj/default/alt_error_handler.o
LOAD obj/default/dm9000a.o
LOAD obj/default/http.o
LOAD obj/default/network_utilities.o
LOAD obj/default/srec_flash.o
LOAD obj/default/web_server.o
LOAD /OPT/altera/12.1/tools/nios2eds/bin/gnu/H-i686-pc-linux-gnu/bin/../lib/gcc/nios2-elf/4.1.2/../../../../nios2-elf/lib/libstdc++.a
LOAD /OPT/altera/12.1/tools/nios2eds/bin/gnu/H-i686-pc-linux-gnu/bin/../lib/gcc/nios2-elf/4.1.2/../../../../nios2-elf/lib/libm.a
LOAD /OPT/altera/12.1/tools/nios2eds/bin/gnu/H-i686-pc-linux-gnu/bin/../lib/gcc/nios2-elf/4.1.2/libgcc.a
START GROUP
LOAD /OPT/altera/12.1/tools/nios2eds/bin/gnu/H-i686-pc-linux-gnu/bin/../lib/gcc/nios2-elf/4.1.2/../../../../nios2-elf/lib/libc.a
LOAD /OPT/altera/12.1/tools/nios2eds/bin/gnu/H-i686-pc-linux-gnu/bin/../lib/gcc/nios2-elf/4.1.2/libgcc.a
LOAD ../G4Capstone_bsp//libucosii_bsp.a
END GROUP
LOAD /OPT/altera/12.1/tools/nios2eds/bin/gnu/H-i686-pc-linux-gnu/bin/../lib/gcc/nios2-elf/4.1.2/libgcc.a
                0x00800000                __alt_mem_sdram_0 = 0x800000
                0x01400000                __alt_mem_generic_tristate_controller_0 = 0x1400000
                0x01880000                __alt_mem_sram_0 = 0x1880000
                0x01904000                __alt_mem_onchip_memory2_0 = 0x1904000

.entry          0x01400000        0x0
 *(.entry)
 .entry         0x01400000        0x0 ../G4Capstone_bsp//obj/HAL/src/crt0.o
                0x01400000                __reset

.exceptions     0x01904020      0x19c
                0x01904020                PROVIDE (__ram_exceptions_start, ABSOLUTE (.))
                0x01904020                . = ALIGN (0x20)
 *(.irq)
 *(.exceptions.entry.label)
 .exceptions.entry.label
                0x01904020        0x0 ../G4Capstone_bsp//libucosii_bsp.a(alt_irq_entry.o)
                0x01904020                alt_irq_entry
 .exceptions.entry.label
                0x01904020        0x0 ../G4Capstone_bsp//libucosii_bsp.a(alt_exception_entry.o)
                0x01904020                alt_exception
 *(.exceptions.entry.user)
 *(.exceptions.entry)
 .exceptions.entry
                0x01904020       0x54 ../G4Capstone_bsp//libucosii_bsp.a(alt_exception_entry.o)
 *(.exceptions.irqtest.user)
 *(.exceptions.irqtest)
 .exceptions.irqtest
                0x01904074       0x10 ../G4Capstone_bsp//libucosii_bsp.a(alt_irq_entry.o)
 *(.exceptions.irqhandler.user)
 *(.exceptions.irqhandler)
 .exceptions.irqhandler
                0x01904084        0x4 ../G4Capstone_bsp//libucosii_bsp.a(alt_irq_entry.o)
 *(.exceptions.irqreturn.user)
 *(.exceptions.irqreturn)
 .exceptions.irqreturn
                0x01904088        0x4 ../G4Capstone_bsp//libucosii_bsp.a(alt_irq_entry.o)
 *(.exceptions.notirq.label)
 .exceptions.notirq.label
                0x0190408c        0x0 ../G4Capstone_bsp//libucosii_bsp.a(alt_irq_entry.o)
 *(.exceptions.notirq.user)
 *(.exceptions.notirq)
 .exceptions.notirq
                0x0190408c        0x8 ../G4Capstone_bsp//libucosii_bsp.a(alt_exception_entry.o)
 *(.exceptions.soft.user)
 *(.exceptions.soft)
 *(.exceptions.unknown.user)
 *(.exceptions.unknown)
 .exceptions.unknown
                0x01904094        0x4 ../G4Capstone_bsp//libucosii_bsp.a(alt_exception_entry.o)
 *(.exceptions.exit.label)
 .exceptions.exit.label
                0x01904098        0x0 ../G4Capstone_bsp//libucosii_bsp.a(alt_irq_entry.o)
 .exceptions.exit.label
                0x01904098        0x0 ../G4Capstone_bsp//libucosii_bsp.a(alt_exception_entry.o)
 *(.exceptions.exit.user)
 *(.exceptions.exit)
 .exceptions.exit
                0x01904098       0x54 ../G4Capstone_bsp//libucosii_bsp.a(alt_exception_entry.o)
 *(.exceptions)
 .exceptions    0x019040ec       0xd0 ../G4Capstone_bsp//libucosii_bsp.a(alt_irq_handler.o)
                0x019040ec                alt_irq_handler
                0x019041bc                PROVIDE (__ram_exceptions_end, ABSOLUTE (.))
                0x01904020                PROVIDE (__flash_exceptions_start, LOADADDR (.exceptions))

.text           0x00800000    0x4a9e0
                0x00800000                PROVIDE (stext, ABSOLUTE (.))
 *(.interp)
 *(.hash)
 *(.dynsym)
 *(.dynstr)
 *(.gnu.version)
 *(.gnu.version_d)
 *(.gnu.version_r)
 *(.rel.init)
 *(.rela.init)
 *(.rel.text .rel.text.* .rel.gnu.linkonce.t.*)
 *(.rela.text .rela.text.* .rela.gnu.linkonce.t.*)
 *(.rel.fini)
 *(.rela.fini)
 *(.rel.rodata .rel.rodata.* .rel.gnu.linkonce.r.*)
 *(.rela.rodata .rela.rodata.* .rela.gnu.linkonce.r.*)
 *(.rel.data .rel.data.* .rel.gnu.linkonce.d.*)
 *(.rela.data .rela.data.* .rela.gnu.linkonce.d.*)
 *(.rel.tdata .rel.tdata.* .rel.gnu.linkonce.td.*)
 *(.rela.tdata .rela.tdata.* .rela.gnu.linkonce.td.*)
 *(.rel.tbss .rel.tbss.* .rel.gnu.linkonce.tb.*)
 *(.rela.tbss .rela.tbss.* .rela.gnu.linkonce.tb.*)
 *(.rel.ctors)
 *(.rela.ctors)
 *(.rel.dtors)
 *(.rela.dtors)
 *(.rel.got)
 *(.rela.got)
 *(.rel.sdata .rel.sdata.* .rel.gnu.linkonce.s.*)
 *(.rela.sdata .rela.sdata.* .rela.gnu.linkonce.s.*)
 *(.rel.sbss .rel.sbss.* .rel.gnu.linkonce.sb.*)
 *(.rela.sbss .rela.sbss.* .rela.gnu.linkonce.sb.*)
 *(.rel.sdata2 .rel.sdata2.* .rel.gnu.linkonce.s2.*)
 *(.rela.sdata2 .rela.sdata2.* .rela.gnu.linkonce.s2.*)
 *(.rel.sbss2 .rel.sbss2.* .rel.gnu.linkonce.sb2.*)
 *(.rela.sbss2 .rela.sbss2.* .rela.gnu.linkonce.sb2.*)
 *(.rel.bss .rel.bss.* .rel.gnu.linkonce.b.*)
 *(.rela.bss .rela.bss.* .rela.gnu.linkonce.b.*)
 *(.rel.plt)
 *(.rela.plt)
 *(.rel.dyn)
 *(.init)
 *(.plt)
 *(.text .stub .text.* .gnu.linkonce.t.*)
 .text          0x00800000       0x38 ../G4Capstone_bsp//obj/HAL/src/crt0.o
                0x00800000                _start
 .text          0x00800038      0x624 obj/default/alt_error_handler.o
                0x00800038                alt_uCOSIIErrorHandler
 .text          0x0080065c      0xdf0 obj/default/dm9000a.o
                0x0080065c                dm9000a_iow
                0x008006b0                dm9000a_ior
                0x008006fc                phy_write
                0x00800798                dm9000a_reset
                0x0080095c                TransmitPacket
                0x00800a78                prep_dm9000a
                0x00800c3c                dm9000a_init
                0x0080108c                dm9Ka_isr_wrap
                0x008010cc                dm9ka_init
                0x008011c4                dm9ka_close
                0x008012d4                dm9ka_stats
                0x00801330                dm9ka_pkt_send
 .text          0x0080144c     0x2858 obj/default/http.o
                0x0080144c                print
                0x0080147c                sweep
                0x00801564                http_cleanup_lcd_text
                0x008015e8                lcd_output
                0x008016b0                http_parse_multipart_header
                0x00801900                file_upload
                0x00801b64                ProgFlashStub
                0x00801bb4                http_reset_connection
                0x00801ca4                http_manage_connection
                0x00801e50                http_handle_accept
                0x00801f78                http_read_line
                0x00802028                http_parse_type_boundary
                0x00802114                http_process_headers
                0x00802348                http_process_request
                0x0080263c                http_send_file_chunk
                0x008027e8                http_send_file_header
                0x00802f28                http_find_file
                0x008031a4                http_send_redirect
                0x008031d8                http_handle_post
                0x008034d0                http_prepare_response
                0x00803544                http_handle_receive
                0x00803900                http_handle_transmit
                0x00803960                WSTask
 .text          0x00803ca4      0x6d8 obj/default/network_utilities.o
                0x00803ca4                die_with_error
                0x00803cd4                get_serial_number
                0x00803cf8                generate_and_store_mac_addr
                0x00803eb4                generate_mac_addr
                0x00803ff0                get_board_mac_addr
                0x00804184                get_mac_addr
                0x008041dc                get_ip_addr
                0x00804238                FindLastFlashSectorOffset
 .text          0x0080437c      0x820 obj/default/srec_flash.o
                0x0080437c                ProgFlash
                0x00804620                ParseAndProgramLine
                0x008048dc                ParseSRECBuf
 .text          0x00804b9c      0x388 obj/default/web_server.o
                0x00804b9c                WSInitialTask
                0x00804c14                main
                0x00804df0                AudioTask
                0x00804e94                LCDTask
 .text          0x00804f24      0x14c /OPT/altera/12.1/tools/nios2eds/bin/gnu/H-i686-pc-linux-gnu/bin/../lib/gcc/nios2-elf/4.1.2/libgcc.a(lib2-divmod.o)
                0x00804fa0                __divsi3
                0x00805000                __modsi3
                0x00805060                __udivsi3
                0x00805068                __umodsi3
 .text          0x00805070       0x18 /OPT/altera/12.1/tools/nios2eds/bin/gnu/H-i686-pc-linux-gnu/bin/../lib/gcc/nios2-elf/4.1.2/../../../../nios2-elf/lib/libc.a(lib_a-atoi.o)
                0x00805070                _atoi_r
                0x0080507c                atoi
 .text          0x00805088        0x0 /OPT/altera/12.1/tools/nios2eds/bin/gnu/H-i686-pc-linux-gnu/bin/../lib/gcc/nios2-elf/4.1.2/../../../../nios2-elf/lib/libc.a(lib_a-ctype_.o)
 .text          0x00805088      0x124 /OPT/altera/12.1/tools/nios2eds/bin/gnu/H-i686-pc-linux-gnu/bin/../lib/gcc/nios2-elf/4.1.2/../../../../nios2-elf/lib/libc.a(lib_a-fclose.o)
                0x00805088                _fclose_r
                0x00805198                fclose
 .text          0x008051ac      0x230 /OPT/altera/12.1/tools/nios2eds/bin/gnu/H-i686-pc-linux-gnu/bin/../lib/gcc/nios2-elf/4.1.2/../../../../nios2-elf/lib/libc.a(lib_a-fflush.o)
                0x008051ac                _fflush_r
                0x008053a8                fflush
 .text          0x008053dc       0x48 /OPT/altera/12.1/tools/nios2eds/bin/gnu/H-i686-pc-linux-gnu/bin/../lib/gcc/nios2-elf/4.1.2/../../../../nios2-elf/lib/libc.a(lib_a-fgetpos.o)
                0x008053dc                _fgetpos_r
                0x00805408                fgetpos
 .text          0x00805424      0x2c0 /OPT/altera/12.1/tools/nios2eds/bin/gnu/H-i686-pc-linux-gnu/bin/../lib/gcc/nios2-elf/4.1.2/../../../../nios2-elf/lib/libc.a(lib_a-findfp.o)
                0x0080547c                __sfp_lock_acquire
                0x00805480                __sfp_lock_release
                0x00805484                __sinit_lock_acquire
                0x00805488                __sinit_lock_release
                0x0080548c                __sinit
                0x00805540                __fp_unlock_all
                0x00805558                __fp_lock_all
                0x00805570                _cleanup_r
                0x0080557c                _cleanup
                0x0080558c                __sfmoreglue
                0x008055f4                __sfp
 .text          0x008056e4      0x110 /OPT/altera/12.1/tools/nios2eds/bin/gnu/H-i686-pc-linux-gnu/bin/../lib/gcc/nios2-elf/4.1.2/../../../../nios2-elf/lib/libc.a(lib_a-fopen.o)
                0x008056e4                _fopen_r
                0x008057d8                fopen
 .text          0x008057f4       0x60 /OPT/altera/12.1/tools/nios2eds/bin/gnu/H-i686-pc-linux-gnu/bin/../lib/gcc/nios2-elf/4.1.2/../../../../nios2-elf/lib/libc.a(lib_a-fprintf.o)
                0x008057f4                fprintf
                0x00805820                _fprintf_r
 .text          0x00805854      0x23c /OPT/altera/12.1/tools/nios2eds/bin/gnu/H-i686-pc-linux-gnu/bin/../lib/gcc/nios2-elf/4.1.2/../../../../nios2-elf/lib/libc.a(lib_a-fread.o)
                0x00805854                _fread_r
                0x00805a50                fread
 .text          0x00805a90      0x440 /OPT/altera/12.1/tools/nios2eds/bin/gnu/H-i686-pc-linux-gnu/bin/../lib/gcc/nios2-elf/4.1.2/../../../../nios2-elf/lib/libc.a(lib_a-freer.o)
                0x00805a90                _malloc_trim_r
                0x00805bbc                _free_r
 .text          0x00805ed0      0x460 /OPT/altera/12.1/tools/nios2eds/bin/gnu/H-i686-pc-linux-gnu/bin/../lib/gcc/nios2-elf/4.1.2/../../../../nios2-elf/lib/libc.a(lib_a-fseek.o)
                0x00805ed0                _fseek_r
                0x0080630c                fseek
 .text          0x00806330       0x74 /OPT/altera/12.1/tools/nios2eds/bin/gnu/H-i686-pc-linux-gnu/bin/../lib/gcc/nios2-elf/4.1.2/../../../../nios2-elf/lib/libc.a(lib_a-fstatr.o)
                0x00806330                _fstat_r
 .text          0x008063a4      0x10c /OPT/altera/12.1/tools/nios2eds/bin/gnu/H-i686-pc-linux-gnu/bin/../lib/gcc/nios2-elf/4.1.2/../../../../nios2-elf/lib/libc.a(lib_a-ftell.o)
                0x008063a4                _ftell_r
                0x0080649c                ftell
 .text          0x008064b0      0x180 /OPT/altera/12.1/tools/nios2eds/bin/gnu/H-i686-pc-linux-gnu/bin/../lib/gcc/nios2-elf/4.1.2/../../../../nios2-elf/lib/libc.a(lib_a-fwalk.o)
                0x008064b0                _fwalk_reent
                0x00806578                _fwalk
 .text          0x00806630       0xdc /OPT/altera/12.1/tools/nios2eds/bin/gnu/H-i686-pc-linux-gnu/bin/../lib/gcc/nios2-elf/4.1.2/../../../../nios2-elf/lib/libc.a(lib_a-fwrite.o)
                0x00806630                _fwrite_r
                0x008066cc                fwrite
 .text          0x0080670c        0x0 /OPT/altera/12.1/tools/nios2eds/bin/gnu/H-i686-pc-linux-gnu/bin/../lib/gcc/nios2-elf/4.1.2/../../../../nios2-elf/lib/libc.a(lib_a-impure.o)
 .text          0x0080670c        0x0 /OPT/altera/12.1/tools/nios2eds/bin/gnu/H-i686-pc-linux-gnu/bin/../lib/gcc/nios2-elf/4.1.2/../../../../nios2-elf/lib/libc.a(lib_a-int_errno.o)
 .text          0x0080670c      0x194 /OPT/altera/12.1/tools/nios2eds/bin/gnu/H-i686-pc-linux-gnu/bin/../lib/gcc/nios2-elf/4.1.2/../../../../nios2-elf/lib/libc.a(lib_a-makebuf.o)
                0x0080670c                __smakebuf_r
 .text          0x008068a0      0x740 /OPT/altera/12.1/tools/nios2eds/bin/gnu/H-i686-pc-linux-gnu/bin/../lib/gcc/nios2-elf/4.1.2/../../../../nios2-elf/lib/libc.a(lib_a-mallocr.o)
                0x008068a0                _malloc_r
 .text          0x00806fe0       0xa0 /OPT/altera/12.1/tools/nios2eds/bin/gnu/H-i686-pc-linux-gnu/bin/../lib/gcc/nios2-elf/4.1.2/../../../../nios2-elf/lib/libc.a(lib_a-memcpy.o)
                0x00806fe0                memcpy
 .text          0x00807080       0xe0 /OPT/altera/12.1/tools/nios2eds/bin/gnu/H-i686-pc-linux-gnu/bin/../lib/gcc/nios2-elf/4.1.2/../../../../nios2-elf/lib/libc.a(lib_a-memmove.o)
                0x00807080                memmove
 .text          0x00807160       0x98 /OPT/altera/12.1/tools/nios2eds/bin/gnu/H-i686-pc-linux-gnu/bin/../lib/gcc/nios2-elf/4.1.2/../../../../nios2-elf/lib/libc.a(lib_a-memset.o)
                0x00807160                memset
 .text          0x008071f8       0x78 /OPT/altera/12.1/tools/nios2eds/bin/gnu/H-i686-pc-linux-gnu/bin/../lib/gcc/nios2-elf/4.1.2/../../../../nios2-elf/lib/libc.a(lib_a-openr.o)
                0x008071f8                _open_r
 .text          0x00807270       0x80 /OPT/altera/12.1/tools/nios2eds/bin/gnu/H-i686-pc-linux-gnu/bin/../lib/gcc/nios2-elf/4.1.2/../../../../nios2-elf/lib/libc.a(lib_a-perror.o)
                0x00807270                _perror_r
                0x008072dc                perror
 .text          0x008072f0       0x78 /OPT/altera/12.1/tools/nios2eds/bin/gnu/H-i686-pc-linux-gnu/bin/../lib/gcc/nios2-elf/4.1.2/../../../../nios2-elf/lib/libc.a(lib_a-printf.o)
                0x008072f0                printf
                0x00807334                _printf_r
 .text          0x00807368       0xb4 /OPT/altera/12.1/tools/nios2eds/bin/gnu/H-i686-pc-linux-gnu/bin/../lib/gcc/nios2-elf/4.1.2/../../../../nios2-elf/lib/libc.a(lib_a-puts.o)
                0x00807368                _puts_r
                0x00807408                puts
 .text          0x0080741c      0x1e0 /OPT/altera/12.1/tools/nios2eds/bin/gnu/H-i686-pc-linux-gnu/bin/../lib/gcc/nios2-elf/4.1.2/../../../../nios2-elf/lib/libc.a(lib_a-refill.o)
                0x0080741c                __srefill_r
 .text          0x008075fc       0x70 /OPT/altera/12.1/tools/nios2eds/bin/gnu/H-i686-pc-linux-gnu/bin/../lib/gcc/nios2-elf/4.1.2/../../../../nios2-elf/lib/libc.a(lib_a-sbrkr.o)
                0x008075fc                _sbrk_r
 .text          0x0080766c       0xd4 /OPT/altera/12.1/tools/nios2eds/bin/gnu/H-i686-pc-linux-gnu/bin/../lib/gcc/nios2-elf/4.1.2/../../../../nios2-elf/lib/libc.a(lib_a-sprintf.o)
                0x0080766c                sprintf
                0x008076e0                _sprintf_r
 .text          0x00807740      0x114 /OPT/altera/12.1/tools/nios2eds/bin/gnu/H-i686-pc-linux-gnu/bin/../lib/gcc/nios2-elf/4.1.2/../../../../nios2-elf/lib/libc.a(lib_a-sscanf.o)
                0x00807748                _sscanf_r
                0x008077d0                sscanf
 .text          0x00807854      0x14c /OPT/altera/12.1/tools/nios2eds/bin/gnu/H-i686-pc-linux-gnu/bin/../lib/gcc/nios2-elf/4.1.2/../../../../nios2-elf/lib/libc.a(lib_a-stdio.o)
                0x00807854                __sclose
                0x0080785c                __sseek
                0x008078c4                __swrite
                0x00807940                __sread
 .text          0x008079a0       0xb0 /OPT/altera/12.1/tools/nios2eds/bin/gnu/H-i686-pc-linux-gnu/bin/../lib/gcc/nios2-elf/4.1.2/../../../../nios2-elf/lib/libc.a(lib_a-strcasecmp.o)
                0x008079a0                strcasecmp
 .text          0x00807a50       0x90 /OPT/altera/12.1/tools/nios2eds/bin/gnu/H-i686-pc-linux-gnu/bin/../lib/gcc/nios2-elf/4.1.2/../../../../nios2-elf/lib/libc.a(lib_a-strcat.o)
                0x00807a50                strcat
 .text          0x00807ae0       0xe0 /OPT/altera/12.1/tools/nios2eds/bin/gnu/H-i686-pc-linux-gnu/bin/../lib/gcc/nios2-elf/4.1.2/../../../../nios2-elf/lib/libc.a(lib_a-strchr.o)
                0x00807ae0                strchr
 .text          0x00807bc0       0xbc /OPT/altera/12.1/tools/nios2eds/bin/gnu/H-i686-pc-linux-gnu/bin/../lib/gcc/nios2-elf/4.1.2/../../../../nios2-elf/lib/libc.a(lib_a-strcmp.o)
                0x00807bc0                strcmp
 .text          0x00807c7c       0x8c /OPT/altera/12.1/tools/nios2eds/bin/gnu/H-i686-pc-linux-gnu/bin/../lib/gcc/nios2-elf/4.1.2/../../../../nios2-elf/lib/libc.a(lib_a-strcpy.o)
                0x00807c7c                strcpy
 .text          0x00807d08      0x674 /OPT/altera/12.1/tools/nios2eds/bin/gnu/H-i686-pc-linux-gnu/bin/../lib/gcc/nios2-elf/4.1.2/../../../../nios2-elf/lib/libc.a(lib_a-strerror.o)
                0x00807d08                strerror
 .text          0x0080837c       0x74 /OPT/altera/12.1/tools/nios2eds/bin/gnu/H-i686-pc-linux-gnu/bin/../lib/gcc/nios2-elf/4.1.2/../../../../nios2-elf/lib/libc.a(lib_a-strlen.o)
                0x0080837c                strlen
 .text          0x008083f0       0xf0 /OPT/altera/12.1/tools/nios2eds/bin/gnu/H-i686-pc-linux-gnu/bin/../lib/gcc/nios2-elf/4.1.2/../../../../nios2-elf/lib/libc.a(lib_a-strncmp.o)
                0x008083f0                strncmp
 .text          0x008084e0       0xbc /OPT/altera/12.1/tools/nios2eds/bin/gnu/H-i686-pc-linux-gnu/bin/../lib/gcc/nios2-elf/4.1.2/../../../../nios2-elf/lib/libc.a(lib_a-strncpy.o)
                0x008084e0                strncpy
 .text          0x0080859c      0x794 /OPT/altera/12.1/tools/nios2eds/bin/gnu/H-i686-pc-linux-gnu/bin/../lib/gcc/nios2-elf/4.1.2/../../../../nios2-elf/lib/libc.a(lib_a-strstr.o)
                0x008086d0                strstr
 .text          0x00808d30       0x18 /OPT/altera/12.1/tools/nios2eds/bin/gnu/H-i686-pc-linux-gnu/bin/../lib/gcc/nios2-elf/4.1.2/../../../../nios2-elf/lib/libc.a(lib_a-strtok.o)
                0x00808d30                strtok
 .text          0x00808d48       0xac /OPT/altera/12.1/tools/nios2eds/bin/gnu/H-i686-pc-linux-gnu/bin/../lib/gcc/nios2-elf/4.1.2/../../../../nios2-elf/lib/libc.a(lib_a-strtok_r.o)
                0x00808d48                __strtok_r
                0x00808dec                strtok_r
 .text          0x00808df4      0x268 /OPT/altera/12.1/tools/nios2eds/bin/gnu/H-i686-pc-linux-gnu/bin/../lib/gcc/nios2-elf/4.1.2/../../../../nios2-elf/lib/libc.a(lib_a-strtol.o)
                0x00808df4                _strtol_r
                0x00809038                strtol
 .text          0x0080905c        0x8 /OPT/altera/12.1/tools/nios2eds/bin/gnu/H-i686-pc-linux-gnu/bin/../lib/gcc/nios2-elf/4.1.2/../../../../nios2-elf/lib/libc.a(lib_a-u_strerr.o)
                0x0080905c                _user_strerror
 .text          0x00809064     0x1f28 /OPT/altera/12.1/tools/nios2eds/bin/gnu/H-i686-pc-linux-gnu/bin/../lib/gcc/nios2-elf/4.1.2/../../../../nios2-elf/lib/libc.a(lib_a-vfprintf.o)
                0x008090bc                ___vfprintf_internal_r
                0x0080af68                __vfprintf_internal
 .text          0x0080af8c     0x1780 /OPT/altera/12.1/tools/nios2eds/bin/gnu/H-i686-pc-linux-gnu/bin/../lib/gcc/nios2-elf/4.1.2/../../../../nios2-elf/lib/libc.a(lib_a-vfscanf.o)
                0x0080af8c                __svfscanf_r
                0x0080c60c                __svfscanf
                0x0080c630                _vfscanf_r
                0x0080c698                vfscanf
 .text          0x0080c70c       0x78 /OPT/altera/12.1/tools/nios2eds/bin/gnu/H-i686-pc-linux-gnu/bin/../lib/gcc/nios2-elf/4.1.2/../../../../nios2-elf/lib/libc.a(lib_a-writer.o)
                0x0080c70c                _write_r
 .text          0x0080c784      0x13c /OPT/altera/12.1/tools/nios2eds/bin/gnu/H-i686-pc-linux-gnu/bin/../lib/gcc/nios2-elf/4.1.2/../../../../nios2-elf/lib/libc.a(lib_a-wsetup.o)
                0x0080c784                __swsetup_r
 .text          0x0080c8c0       0x70 /OPT/altera/12.1/tools/nios2eds/bin/gnu/H-i686-pc-linux-gnu/bin/../lib/gcc/nios2-elf/4.1.2/../../../../nios2-elf/lib/libc.a(lib_a-closer.o)
                0x0080c8c0                _close_r
 .text          0x0080c930     0x17cc /OPT/altera/12.1/tools/nios2eds/bin/gnu/H-i686-pc-linux-gnu/bin/../lib/gcc/nios2-elf/4.1.2/../../../../nios2-elf/lib/libc.a(lib_a-dtoa.o)
                0x0080cb48                _dtoa_r
 .text          0x0080e0fc       0xa0 /OPT/altera/12.1/tools/nios2eds/bin/gnu/H-i686-pc-linux-gnu/bin/../lib/gcc/nios2-elf/4.1.2/../../../../nios2-elf/lib/libc.a(lib_a-flags.o)
                0x0080e0fc                __sflags
 .text          0x0080e19c       0xbc /OPT/altera/12.1/tools/nios2eds/bin/gnu/H-i686-pc-linux-gnu/bin/../lib/gcc/nios2-elf/4.1.2/../../../../nios2-elf/lib/libc.a(lib_a-fputc.o)
                0x0080e19c                fputc
                0x0080e200                _fputc_r
 .text          0x0080e258       0x90 /OPT/altera/12.1/tools/nios2eds/bin/gnu/H-i686-pc-linux-gnu/bin/../lib/gcc/nios2-elf/4.1.2/../../../../nios2-elf/lib/libc.a(lib_a-fputs.o)
                0x0080e258                _fputs_r
                0x0080e2cc                fputs
 .text          0x0080e2e8      0x49c /OPT/altera/12.1/tools/nios2eds/bin/gnu/H-i686-pc-linux-gnu/bin/../lib/gcc/nios2-elf/4.1.2/../../../../nios2-elf/lib/libc.a(lib_a-fvwrite.o)
                0x0080e2e8                __sfvwrite_r
 .text          0x0080e784       0x70 /OPT/altera/12.1/tools/nios2eds/bin/gnu/H-i686-pc-linux-gnu/bin/../lib/gcc/nios2-elf/4.1.2/../../../../nios2-elf/lib/libc.a(lib_a-isattyr.o)
                0x0080e784                _isatty_r
 .text          0x0080e7f4       0x2c /OPT/altera/12.1/tools/nios2eds/bin/gnu/H-i686-pc-linux-gnu/bin/../lib/gcc/nios2-elf/4.1.2/../../../../nios2-elf/lib/libc.a(lib_a-iswspace.o)
                0x0080e7f4                iswspace
 .text          0x0080e820       0xc4 /OPT/altera/12.1/tools/nios2eds/bin/gnu/H-i686-pc-linux-gnu/bin/../lib/gcc/nios2-elf/4.1.2/../../../../nios2-elf/lib/libc.a(lib_a-locale.o)
                0x0080e820                __locale_charset
                0x0080e828                _localeconv_r
                0x0080e834                localeconv
                0x0080e844                _setlocale_r
                0x0080e8c8                setlocale
 .text          0x0080e8e4       0x78 /OPT/altera/12.1/tools/nios2eds/bin/gnu/H-i686-pc-linux-gnu/bin/../lib/gcc/nios2-elf/4.1.2/../../../../nios2-elf/lib/libc.a(lib_a-lseekr.o)
                0x0080e8e4                _lseek_r
 .text          0x0080e95c       0xc0 /OPT/altera/12.1/tools/nios2eds/bin/gnu/H-i686-pc-linux-gnu/bin/../lib/gcc/nios2-elf/4.1.2/../../../../nios2-elf/lib/libc.a(lib_a-mbrtowc.o)
                0x0080e95c                _mbrtowc_r
                0x0080e9dc                mbrtowc
 .text          0x0080ea1c       0x40 /OPT/altera/12.1/tools/nios2eds/bin/gnu/H-i686-pc-linux-gnu/bin/../lib/gcc/nios2-elf/4.1.2/../../../../nios2-elf/lib/libc.a(lib_a-mbtowc_r.o)
                0x0080ea1c                _mbtowc_r
 .text          0x0080ea5c       0xe4 /OPT/altera/12.1/tools/nios2eds/bin/gnu/H-i686-pc-linux-gnu/bin/../lib/gcc/nios2-elf/4.1.2/../../../../nios2-elf/lib/libc.a(lib_a-memchr.o)
                0x0080ea5c                memchr
 .text          0x0080eb40       0x74 /OPT/altera/12.1/tools/nios2eds/bin/gnu/H-i686-pc-linux-gnu/bin/../lib/gcc/nios2-elf/4.1.2/../../../../nios2-elf/lib/libc.a(lib_a-memcmp.o)
                0x0080eb40                memcmp
 .text          0x0080ebb4      0xff4 /OPT/altera/12.1/tools/nios2eds/bin/gnu/H-i686-pc-linux-gnu/bin/../lib/gcc/nios2-elf/4.1.2/../../../../nios2-elf/lib/libc.a(lib_a-mprec.o)
                0x0080ebb4                _Bfree
                0x0080ebdc                __hi0bits
                0x0080ec4c                __lo0bits
                0x0080ed10                __mcmp
                0x0080ed70                __ulp
                0x0080edf0                __b2d
                0x0080ef10                __ratio
                0x0080efc0                _mprec_log10
                0x0080f054                __copybits
                0x0080f0ac                __any_on
                0x0080f134                _Balloc
                0x0080f1f0                __d2b
                0x0080f36c                __mdiff
                0x0080f4f8                __lshift
                0x0080f644                __multiply
                0x0080f82c                __i2b
                0x0080f868                __multadd
                0x0080f968                __pow5mult
                0x0080fa88                __s2b
 .text          0x0080fba8      0x1ec /OPT/altera/12.1/tools/nios2eds/bin/gnu/H-i686-pc-linux-gnu/bin/../lib/gcc/nios2-elf/4.1.2/../../../../nios2-elf/lib/libc.a(lib_a-putc.o)
                0x0080fba8                putc
                0x0080fcac                _putc_r
 .text          0x0080fd94       0x78 /OPT/altera/12.1/tools/nios2eds/bin/gnu/H-i686-pc-linux-gnu/bin/../lib/gcc/nios2-elf/4.1.2/../../../../nios2-elf/lib/libc.a(lib_a-readr.o)
                0x0080fd94                _read_r
 .text          0x0080fe0c      0x5f4 /OPT/altera/12.1/tools/nios2eds/bin/gnu/H-i686-pc-linux-gnu/bin/../lib/gcc/nios2-elf/4.1.2/../../../../nios2-elf/lib/libc.a(lib_a-reallocr.o)
                0x0080fe0c                _realloc_r
 .text          0x00810400       0x40 /OPT/altera/12.1/tools/nios2eds/bin/gnu/H-i686-pc-linux-gnu/bin/../lib/gcc/nios2-elf/4.1.2/../../../../nios2-elf/lib/libc.a(lib_a-s_isinfd.o)
                0x00810400                __isinfd
 .text          0x00810440       0x30 /OPT/altera/12.1/tools/nios2eds/bin/gnu/H-i686-pc-linux-gnu/bin/../lib/gcc/nios2-elf/4.1.2/../../../../nios2-elf/lib/libc.a(lib_a-s_isnand.o)
                0x00810440                __isnand
 .text          0x00810470       0xc0 /OPT/altera/12.1/tools/nios2eds/bin/gnu/H-i686-pc-linux-gnu/bin/../lib/gcc/nios2-elf/4.1.2/../../../../nios2-elf/lib/libc.a(lib_a-sccl.o)
                0x00810470                __sccl
 .text          0x00810530        0x8 /OPT/altera/12.1/tools/nios2eds/bin/gnu/H-i686-pc-linux-gnu/bin/../lib/gcc/nios2-elf/4.1.2/../../../../nios2-elf/lib/libc.a(lib_a-sf_nan.o)
                0x00810530                nanf
 .text          0x00810538     0x166c /OPT/altera/12.1/tools/nios2eds/bin/gnu/H-i686-pc-linux-gnu/bin/../lib/gcc/nios2-elf/4.1.2/../../../../nios2-elf/lib/libc.a(lib_a-strtod.o)
                0x00810580                _strtod_r
                0x00811a64                strtof
                0x00811b88                strtod
 .text          0x00811ba4      0x318 /OPT/altera/12.1/tools/nios2eds/bin/gnu/H-i686-pc-linux-gnu/bin/../lib/gcc/nios2-elf/4.1.2/../../../../nios2-elf/lib/libc.a(lib_a-strtoll_r.o)
                0x00811ba4                _strtoll_r
 .text          0x00811ebc      0x254 /OPT/altera/12.1/tools/nios2eds/bin/gnu/H-i686-pc-linux-gnu/bin/../lib/gcc/nios2-elf/4.1.2/../../../../nios2-elf/lib/libc.a(lib_a-strtoul.o)
                0x00811ebc                _strtoul_r
                0x008120ec                strtoul
 .text          0x00812110      0x2f0 /OPT/altera/12.1/tools/nios2eds/bin/gnu/H-i686-pc-linux-gnu/bin/../lib/gcc/nios2-elf/4.1.2/../../../../nios2-elf/lib/libc.a(lib_a-strtoull_r.o)
                0x00812110                _strtoull_r
 .text          0x00812400      0x294 /OPT/altera/12.1/tools/nios2eds/bin/gnu/H-i686-pc-linux-gnu/bin/../lib/gcc/nios2-elf/4.1.2/../../../../nios2-elf/lib/libc.a(lib_a-ungetc.o)
                0x00812400                __submore
                0x008124dc                _ungetc_r
                0x00812678                ungetc
 .text          0x00812694      0x14c /OPT/altera/12.1/tools/nios2eds/bin/gnu/H-i686-pc-linux-gnu/bin/../lib/gcc/nios2-elf/4.1.2/../../../../nios2-elf/lib/libc.a(lib_a-wbuf.o)
                0x00812694                __swbuf_r
                0x008127c4                __swbuf
 .text          0x008127e0       0xb4 /OPT/altera/12.1/tools/nios2eds/bin/gnu/H-i686-pc-linux-gnu/bin/../lib/gcc/nios2-elf/4.1.2/../../../../nios2-elf/lib/libc.a(lib_a-callocr.o)
                0x008127e0                _calloc_r
 .text          0x00812894      0x8f4 /OPT/altera/12.1/tools/nios2eds/bin/gnu/H-i686-pc-linux-gnu/bin/../lib/gcc/nios2-elf/4.1.2/../../../../nios2-elf/lib/libc.a(lib_a-gdtoa-gethex.o)
                0x008128b8                __hexdig_init
                0x008129d0                __gethex
 .text          0x00813188      0x294 /OPT/altera/12.1/tools/nios2eds/bin/gnu/H-i686-pc-linux-gnu/bin/../lib/gcc/nios2-elf/4.1.2/../../../../nios2-elf/lib/libc.a(lib_a-gdtoa-hexnan.o)
                0x008131d4                __hexnan
 .text          0x0081341c       0x98 /OPT/altera/12.1/tools/nios2eds/bin/gnu/H-i686-pc-linux-gnu/bin/../lib/gcc/nios2-elf/4.1.2/libgcc.a(_muldi3.o)
                0x0081341c                __muldi3
 .text          0x008134b4       0xa4 /OPT/altera/12.1/tools/nios2eds/bin/gnu/H-i686-pc-linux-gnu/bin/../lib/gcc/nios2-elf/4.1.2/libgcc.a(_fixunsdfsi.o)
                0x008134b4                __fixunsdfsi
 .text          0x00813558      0x5dc /OPT/altera/12.1/tools/nios2eds/bin/gnu/H-i686-pc-linux-gnu/bin/../lib/gcc/nios2-elf/4.1.2/libgcc.a(_udivdi3.o)
                0x00813558                __udivdi3
 .text          0x00813b34      0x5b0 /OPT/altera/12.1/tools/nios2eds/bin/gnu/H-i686-pc-linux-gnu/bin/../lib/gcc/nios2-elf/4.1.2/libgcc.a(_umoddi3.o)
                0x00813b34                __umoddi3
 .text          0x008140e4       0x78 /OPT/altera/12.1/tools/nios2eds/bin/gnu/H-i686-pc-linux-gnu/bin/../lib/gcc/nios2-elf/4.1.2/libgcc.a(_ne_sf.o)
                0x008140e4                __nesf2
 .text          0x0081415c       0x78 /OPT/altera/12.1/tools/nios2eds/bin/gnu/H-i686-pc-linux-gnu/bin/../lib/gcc/nios2-elf/4.1.2/libgcc.a(_gt_sf.o)
                0x0081415c                __gtsf2
 .text          0x008141d4       0x78 /OPT/altera/12.1/tools/nios2eds/bin/gnu/H-i686-pc-linux-gnu/bin/../lib/gcc/nios2-elf/4.1.2/libgcc.a(_lt_sf.o)
                0x008141d4                __ltsf2
 .text          0x0081424c      0x504 /OPT/altera/12.1/tools/nios2eds/bin/gnu/H-i686-pc-linux-gnu/bin/../lib/gcc/nios2-elf/4.1.2/libgcc.a(_addsub_df.o)
                0x0081465c                __subdf3
                0x008146dc                __adddf3
 .text          0x00814750      0x3c4 /OPT/altera/12.1/tools/nios2eds/bin/gnu/H-i686-pc-linux-gnu/bin/../lib/gcc/nios2-elf/4.1.2/libgcc.a(_mul_df.o)
                0x00814750                __muldf3
 .text          0x00814b14      0x258 /OPT/altera/12.1/tools/nios2eds/bin/gnu/H-i686-pc-linux-gnu/bin/../lib/gcc/nios2-elf/4.1.2/libgcc.a(_div_df.o)
                0x00814b14                __divdf3
 .text          0x00814d6c       0x88 /OPT/altera/12.1/tools/nios2eds/bin/gnu/H-i686-pc-linux-gnu/bin/../lib/gcc/nios2-elf/4.1.2/libgcc.a(_eq_df.o)
                0x00814d6c                __eqdf2
 .text          0x00814df4       0x88 /OPT/altera/12.1/tools/nios2eds/bin/gnu/H-i686-pc-linux-gnu/bin/../lib/gcc/nios2-elf/4.1.2/libgcc.a(_ne_df.o)
                0x00814df4                __nedf2
 .text          0x00814e7c       0x88 /OPT/altera/12.1/tools/nios2eds/bin/gnu/H-i686-pc-linux-gnu/bin/../lib/gcc/nios2-elf/4.1.2/libgcc.a(_gt_df.o)
                0x00814e7c                __gtdf2
 .text          0x00814f04       0x88 /OPT/altera/12.1/tools/nios2eds/bin/gnu/H-i686-pc-linux-gnu/bin/../lib/gcc/nios2-elf/4.1.2/libgcc.a(_ge_df.o)
                0x00814f04                __gedf2
 .text          0x00814f8c       0x88 /OPT/altera/12.1/tools/nios2eds/bin/gnu/H-i686-pc-linux-gnu/bin/../lib/gcc/nios2-elf/4.1.2/libgcc.a(_lt_df.o)
                0x00814f8c                __ltdf2
 .text          0x00815014       0x88 /OPT/altera/12.1/tools/nios2eds/bin/gnu/H-i686-pc-linux-gnu/bin/../lib/gcc/nios2-elf/4.1.2/libgcc.a(_le_df.o)
                0x00815014                __ledf2
 .text          0x0081509c       0xf8 /OPT/altera/12.1/tools/nios2eds/bin/gnu/H-i686-pc-linux-gnu/bin/../lib/gcc/nios2-elf/4.1.2/libgcc.a(_si_to_df.o)
                0x0081509c                __floatsidf
 .text          0x00815194       0xd8 /OPT/altera/12.1/tools/nios2eds/bin/gnu/H-i686-pc-linux-gnu/bin/../lib/gcc/nios2-elf/4.1.2/libgcc.a(_df_to_si.o)
                0x00815194                __fixdfsi
 .text          0x0081526c       0x74 /OPT/altera/12.1/tools/nios2eds/bin/gnu/H-i686-pc-linux-gnu/bin/../lib/gcc/nios2-elf/4.1.2/libgcc.a(_df_to_sf.o)
                0x0081526c                __truncdfsf2
 .text          0x008152e0        0x0 /OPT/altera/12.1/tools/nios2eds/bin/gnu/H-i686-pc-linux-gnu/bin/../lib/gcc/nios2-elf/4.1.2/libgcc.a(_thenan_df.o)
 .text          0x008152e0      0x194 /OPT/altera/12.1/tools/nios2eds/bin/gnu/H-i686-pc-linux-gnu/bin/../lib/gcc/nios2-elf/4.1.2/libgcc.a(_usi_to_df.o)
                0x008152e0                __floatunsidf
 .text          0x00815474        0x0 /OPT/altera/12.1/tools/nios2eds/bin/gnu/H-i686-pc-linux-gnu/bin/../lib/gcc/nios2-elf/4.1.2/libgcc.a(_clz.o)
 .text          0x00815474       0x80 /OPT/altera/12.1/tools/nios2eds/bin/gnu/H-i686-pc-linux-gnu/bin/../lib/gcc/nios2-elf/4.1.2/libgcc.a(_clzsi2.o)
                0x00815474                __clzsi2
 .text          0x008154f4       0xc8 /OPT/altera/12.1/tools/nios2eds/bin/gnu/H-i686-pc-linux-gnu/bin/../lib/gcc/nios2-elf/4.1.2/libgcc.a(_unpack_sf.o)
                0x008154f4                __unpack_f
 .text          0x008155bc       0xa8 /OPT/altera/12.1/tools/nios2eds/bin/gnu/H-i686-pc-linux-gnu/bin/../lib/gcc/nios2-elf/4.1.2/libgcc.a(_fpcmp_parts_sf.o)
                0x008155bc                __fpcmp_parts_f
 .text          0x00815664       0x2c /OPT/altera/12.1/tools/nios2eds/bin/gnu/H-i686-pc-linux-gnu/bin/../lib/gcc/nios2-elf/4.1.2/libgcc.a(_make_sf.o)
                0x00815664                __make_fp
 .text          0x00815690      0x314 /OPT/altera/12.1/tools/nios2eds/bin/gnu/H-i686-pc-linux-gnu/bin/../lib/gcc/nios2-elf/4.1.2/libgcc.a(_pack_df.o)
                0x00815690                __pack_d
 .text          0x008159a4      0x138 /OPT/altera/12.1/tools/nios2eds/bin/gnu/H-i686-pc-linux-gnu/bin/../lib/gcc/nios2-elf/4.1.2/libgcc.a(_unpack_df.o)
                0x008159a4                __unpack_d
 .text          0x00815adc       0xc8 /OPT/altera/12.1/tools/nios2eds/bin/gnu/H-i686-pc-linux-gnu/bin/../lib/gcc/nios2-elf/4.1.2/libgcc.a(_fpcmp_parts_df.o)
                0x00815adc                __fpcmp_parts_d
 .text          0x00815ba4      0x160 /OPT/altera/12.1/tools/nios2eds/bin/gnu/H-i686-pc-linux-gnu/bin/../lib/gcc/nios2-elf/4.1.2/libgcc.a(_pack_sf.o)
                0x00815ba4                __pack_f
 .text          0x00815d04       0x24 ../G4Capstone_bsp//libucosii_bsp.a(alt_dcache_flush.o)
                0x00815d04                alt_dcache_flush
 .text          0x00815d28       0xd0 ../G4Capstone_bsp//libucosii_bsp.a(alt_flash_dev.o)
                0x00815d28                alt_flash_open_dev
                0x00815da4                alt_flash_close_dev
 .text          0x00815df8      0x134 ../G4Capstone_bsp//libucosii_bsp.a(alt_fstat.o)
                0x00815df8                fstat
 .text          0x00815f2c      0x1c0 ../G4Capstone_bsp//libucosii_bsp.a(alt_irq_register.o)
                0x00815f2c                alt_irq_register
 .text          0x008160ec        0x0 ../G4Capstone_bsp//libucosii_bsp.a(alt_irq_vars.o)
 .text          0x008160ec      0x120 ../G4Capstone_bsp//libucosii_bsp.a(alt_isatty.o)
                0x008160ec                isatty
 .text          0x0081620c      0x150 ../G4Capstone_bsp//libucosii_bsp.a(alt_lseek.o)
                0x0081620c                lseek
 .text          0x0081635c       0xc8 ../G4Capstone_bsp//libucosii_bsp.a(alt_main.o)
                0x0081635c                alt_main
 .text          0x00816424      0x2c4 ../G4Capstone_bsp//libucosii_bsp.a(alt_open.o)
                0x00816500                open
 .text          0x008166e8       0x60 ../G4Capstone_bsp//libucosii_bsp.a(alt_release_fd.o)
                0x008166e8                alt_release_fd
 .text          0x00816748       0xbc ../G4Capstone_bsp//libucosii_bsp.a(alt_sbrk.o)
                0x00816748                sbrk
 .text          0x00816804      0x1a8 ../G4Capstone_bsp//libucosii_bsp.a(alt_tick.o)
                0x00816804                alt_alarm_stop
                0x0081689c                alt_tick
 .text          0x008169ac      0x118 ../G4Capstone_bsp//libucosii_bsp.a(alt_usleep.o)
                0x008169ac                usleep
 .text          0x00816ac4      0x108 ../G4Capstone_bsp//libucosii_bsp.a(alt_env_lock.o)
                0x00816ac4                __env_lock
                0x00816b70                __env_unlock
 .text          0x00816bcc      0x1d8 ../G4Capstone_bsp//libucosii_bsp.a(alt_malloc_lock.o)
                0x00816bcc                __malloc_lock
                0x00816cd4                __malloc_unlock
 .text          0x00816da4     0x2128 ../G4Capstone_bsp//libucosii_bsp.a(os_core.o)
                0x00816da4                OSEventNameGet
                0x00816ed4                OSEventNameSet
                0x00817018                OSEventPendMulti
                0x008176cc                OSInit
                0x00817720                OSIntEnter
                0x0081779c                OSIntExit
                0x0081789c                OSSchedLock
                0x00817928                OSSchedUnlock
                0x00817a0c                OSStart
                0x00817a7c                OSStatInit
                0x00817b28                OSTimeTick
                0x00817d68                OSVersion
                0x00817d88                OS_Dummy
                0x00817da4                OS_EventTaskRdy
                0x00817f38                OS_EventTaskWait
                0x00818048                OS_EventTaskWaitMulti
                0x0081819c                OS_EventTaskRemove
                0x00818254                OS_EventTaskRemoveMulti
                0x00818358                OS_EventWaitListInit
                0x00818724                OS_MemClr
                0x00818778                OS_MemCopy
                0x008187e4                OS_Sched
                0x00818928                OS_StrCopy
                0x008189a8                OS_StrLen
                0x00818a00                OS_TaskIdle
                0x00818a5c                OS_TaskStat
                0x00818b24                OS_TaskStatStkChk
                0x00818bec                OS_TCBInit
 .text          0x00818ecc      0x18c ../G4Capstone_bsp//libucosii_bsp.a(os_dbg.o)
                0x00818ecc                OSDebugInit
 .text          0x00819058     0x193c ../G4Capstone_bsp//libucosii_bsp.a(os_flag.o)
                0x00819058                OSFlagAccept
                0x0081938c                OSFlagCreate
                0x008194c8                OSFlagDel
                0x00819770                OSFlagNameGet
                0x008198b4                OSFlagNameSet
                0x00819a08                OSFlagPend
                0x0081a04c                OSFlagPendGetFlagsRdy
                0x0081a0b4                OSFlagPost
                0x0081a45c                OSFlagQuery
                0x0081a6f4                OS_FlagInit
                0x0081a8e8                OS_FlagUnlink
 .text          0x0081a994      0xc8c ../G4Capstone_bsp//libucosii_bsp.a(os_mbox.o)
                0x0081a994                OSMboxAccept
                0x0081aa38                OSMboxCreate
                0x0081ab4c                OSMboxDel
                0x0081adec                OSMboxPend
                0x0081b0b4                OSMboxPendAbort
                0x0081b230                OSMboxPost
                0x0081b364                OSMboxPostOpt
                0x0081b4f0                OSMboxQuery
 .text          0x0081b620      0x808 ../G4Capstone_bsp//libucosii_bsp.a(os_mem.o)
                0x0081b620                OSMemCreate
                0x0081b83c                OSMemGet
                0x0081b940                OSMemNameGet
                0x0081ba4c                OSMemNameSet
                0x0081bb6c                OSMemPut
                0x0081bc5c                OSMemQuery
                0x0081bd58                OS_MemInit
 .text          0x0081be28     0x1334 ../G4Capstone_bsp//libucosii_bsp.a(os_q.o)
                0x0081be28                OSQAccept
                0x0081bf7c                OSQCreate
                0x0081c190                OSQDel
                0x0081c490                OSQFlush
                0x0081c558                OSQPend
                0x0081c878                OSQPendAbort
                0x0081c9f4                OSQPost
                0x0081cb74                OSQPostFront
                0x0081ccfc                OSQPostOpt
                0x0081cf30                OSQQuery
                0x0081d0b0                OS_QInit
 .text          0x0081d15c      0xbc8 ../G4Capstone_bsp//libucosii_bsp.a(os_sem.o)
                0x0081d15c                OSSemAccept
                0x0081d21c                OSSemCreate
                0x0081d330                OSSemDel
                0x0081d5d0                OSSemPend
                0x0081d84c                OSSemPendAbort
                0x0081d9c8                OSSemPost
                0x0081daf0                OSSemQuery
                0x0081dc20                OSSemSet
 .text          0x0081dd24     0x1a40 ../G4Capstone_bsp//libucosii_bsp.a(os_task.o)
                0x0081dd24                OSTaskChangePrio
                0x0081e298                OSTaskCreate
                0x0081e46c                OSTaskCreateExt
                0x0081e66c                OSTaskDel
                0x0081ea78                OSTaskDelReq
                0x0081ebe8                OSTaskNameGet
                0x0081eda0                OSTaskNameSet
                0x0081ef64                OSTaskResume
                0x0081f17c                OSTaskStkChk
                0x0081f378                OSTaskSuspend
                0x0081f5a4                OSTaskQuery
                0x0081f6e8                OS_TaskStkClr
 .text          0x0081f764      0x598 ../G4Capstone_bsp//libucosii_bsp.a(os_time.o)
                0x0081f764                OSTimeDly
                0x0081f8b0                OSTimeDlyHMSM
                0x0081fa24                OSTimeDlyResume
                0x0081fc34                OSTimeGet
                0x0081fc98                OSTimeSet
 .text          0x0081fcfc      0x10c ../G4Capstone_bsp//libucosii_bsp.a(alt_sys_init.o)
                0x0081fcfc                alt_irq_init
                0x0081fd30                alt_sys_init
 .text          0x0081fe08      0x148 ../G4Capstone_bsp//libucosii_bsp.a(altera_avalon_jtag_uart_fd.o)
                0x0081fe08                altera_avalon_jtag_uart_read_fd
                0x0081fe60                altera_avalon_jtag_uart_write_fd
                0x0081feb8                altera_avalon_jtag_uart_close_fd
                0x0081ff00                altera_avalon_jtag_uart_ioctl_fd
 .text          0x0081ff50      0x584 ../G4Capstone_bsp//libucosii_bsp.a(altera_avalon_jtag_uart_init.o)
                0x0081ff50                altera_avalon_jtag_uart_init
                0x00820460                altera_avalon_jtag_uart_close
 .text          0x008204d4       0xf4 ../G4Capstone_bsp//libucosii_bsp.a(altera_avalon_jtag_uart_ioctl.o)
                0x008204d4                altera_avalon_jtag_uart_ioctl
 .text          0x008205c8      0x2c0 ../G4Capstone_bsp//libucosii_bsp.a(altera_avalon_jtag_uart_read.o)
                0x008205c8                altera_avalon_jtag_uart_read
 .text          0x00820888      0x2dc ../G4Capstone_bsp//libucosii_bsp.a(altera_avalon_jtag_uart_write.o)
                0x00820888                altera_avalon_jtag_uart_write
 .text          0x00820b64      0x100 ../G4Capstone_bsp//libucosii_bsp.a(altera_avalon_timer_sc.o)
                0x00820bd4                alt_avalon_timer_sc_init
 .text          0x00820c64      0xb70 ../G4Capstone_bsp//libucosii_bsp.a(altera_ro_zipfs.o)
                0x00820ed8                check_directory_header
                0x00821430                alt_ro_zipfs_open
                0x008214c8                alt_ro_zipfs_read
                0x008215c4                alt_ro_zipfs_seek
                0x0082170c                alt_ro_zipfs_fstat
                0x0082177c                alt_ro_zipfs_check_valid
 .text          0x008217d4      0x788 ../G4Capstone_bsp//libucosii_bsp.a(altera_up_avalon_audio_and_video_config.o)
                0x008217d4                alt_up_av_config_open_dev
                0x00821838                alt_up_av_config_write_data
                0x0082189c                alt_up_av_config_read_data
                0x00821928                alt_up_av_config_reset
                0x00821960                alt_up_av_config_enable_interrupt
                0x00821998                alt_up_av_config_disable_interrupt
                0x008219c8                alt_up_av_config_read_acknowledge
                0x00821a30                alt_up_av_config_read_ready
                0x00821a68                alt_up_av_config_write_audio_cfg_register
                0x00821b14                alt_up_av_config_read_video_cfg_register
                0x00821c0c                alt_up_av_config_write_video_cfg_register
                0x00821d04                alt_up_av_config_read_DC2_cfg_register
                0x00821d68                alt_up_av_config_write_DC2_cfg_register
                0x00821dcc                alt_up_av_config_read_D5M_cfg_register
                0x00821e30                alt_up_av_config_write_D5M_cfg_register
                0x00821e94                alt_up_av_config_read_LTM_cfg_register
                0x00821ef8                alt_up_av_config_write_LTM_cfg_register
 .text          0x00821f5c      0x530 ../G4Capstone_bsp//libucosii_bsp.a(altera_up_avalon_character_lcd.o)
                0x00821f5c                get_DDRAM_addr
                0x00821fd8                alt_up_character_lcd_send_cmd
                0x0082200c                alt_up_character_lcd_init
                0x00822040                alt_up_character_lcd_open_dev
                0x00822080                alt_up_character_lcd_write
                0x008220f8                alt_up_character_lcd_string
                0x00822170                alt_up_character_lcd_write_fd
                0x008221bc                alt_up_character_lcd_set_cursor_pos
                0x00822234                alt_up_character_lcd_shift_cursor
                0x008222e4                alt_up_character_lcd_shift_display
                0x00822394                alt_up_character_lcd_erase_pos
                0x00822424                alt_up_character_lcd_cursor_off
                0x00822458                alt_up_character_lcd_cursor_blink_on
 .text          0x0082248c       0x54 ../G4Capstone_bsp//libucosii_bsp.a(alt_iniche_close.o)
                0x0082248c                close
 .text          0x008224e0      0x144 ../G4Capstone_bsp//libucosii_bsp.a(alt_iniche_dev.o)
                0x008224e0                iniche_devices_init
 .text          0x00822624       0x78 ../G4Capstone_bsp//libucosii_bsp.a(alt_iniche_read.o)
                0x00822624                read
 .text          0x0082269c       0x70 ../G4Capstone_bsp//libucosii_bsp.a(alt_iniche_write.o)
                0x0082269c                write
 .text          0x0082270c      0xedc ../G4Capstone_bsp//libucosii_bsp.a(ipnet.o)
                0x0082270c                Netinit
                0x00822d58                fixup_subnet_mask
                0x00822eb8                netclose
                0x00822fa0                pktdemux
                0x00823374                c_older
                0x00823444                ip2mac
 .text          0x008235e8      0x4b0 ../G4Capstone_bsp//libucosii_bsp.a(ipstart.o)
                0x008235e8                ip_startup
                0x008238cc                exit_hook
                0x00823938                ip_exit
                0x00823a08                if_netnumber
 .text          0x00823a98     0x1010 ../G4Capstone_bsp//libucosii_bsp.a(igmp_cmn.o)
                0x00823a98                igmp_init
                0x00823b48                igmp_input
                0x00823c40                igmp_fasttimo
                0x00823ddc                igmp_send
                0x00824084                igmp_joingroup
                0x008242f0                igmp_leavegroup
                0x0082436c                igmp_validate
                0x008246c8                igmp_print_stats
 .text          0x00824aa8      0xb50 ../G4Capstone_bsp//libucosii_bsp.a(bsdsock.o)
                0x00824aa8                bsd_accept
                0x00824be0                bsd_getpeername
                0x00824d0c                bsd_getsockname
                0x00824e38                bsd_i_sockoptlen
                0x00824ff0                bsd_getsockopt
                0x00825110                bsd_ioctl
                0x00825214                bsd_inet_ntoa
                0x00825244                bsd_recvfrom
                0x008253a4                bsd_select
                0x0082550c                bsd_setsockopt
 .text          0x008255f8      0x118 ../G4Capstone_bsp//libucosii_bsp.a(cksum.o)
                0x008255f8                ccksum
                0x008256a8                cksum
 .text          0x00825710      0xa9c ../G4Capstone_bsp//libucosii_bsp.a(in_utils.o)
                0x00825710                do_trap
                0x0082573c                nextarg
                0x008257b8                hexdump
                0x00825900                print_ipad
                0x00825974                print_uptime
                0x00825aa0                panic
                0x00825ae4                print_eth
                0x00825c48                uslash
                0x00825cc8                ns_printf
                0x00825e4c                std_out
                0x00825e90                con_page
                0x00825f80                parse_args
 .text          0x008261ac      0x1c8 ../G4Capstone_bsp//libucosii_bsp.a(netmain.o)
                0x008261ac                netmain
                0x008262a0                tk_netmain
                0x00826328                tk_nettick
 .text          0x00826374      0x5e8 ../G4Capstone_bsp//libucosii_bsp.a(tk_crnos.o)
                0x00826374                TK_OSTimeDly
                0x008263a0                TK_OSTaskResume
                0x00826410                tcp_sleep
                0x008265b0                tcp_wakeup
                0x008266b4                TK_OSTaskQuery
                0x00826728                tk_yield
                0x00826754                tk_stats
 .text          0x0082695c     0x2f40 ../G4Capstone_bsp//libucosii_bsp.a(dhcpclnt.o)
                0x0082695c                dhc_get_srv_ipaddr
                0x008269ec                dhc_init
                0x00826aa8                dhc_set_callback
                0x00826aec                dhc_upcall
                0x0082731c                dhc_buildheader
                0x00827538                dhc_discover
                0x00827a50                dhc_rx_offer
                0x00827b54                dhc_request
                0x00828690                dhc_setip
                0x00828910                dhc_resetip
                0x008289f4                dhc_decline
                0x00828bd8                dhc_extract_opts
                0x00828e94                dhc_second
                0x00829430                dhc_halt
                0x008294b8                dhc_reclaim
                0x00829688                dhc_state_init
                0x008296e8                dhc_alldone
                0x00829778                dhc_ifacedone
                0x008297ec                dhc_set_state
 .text          0x0082989c       0xcc ../G4Capstone_bsp//libucosii_bsp.a(dhcputil.o)
                0x0082989c                find_opt
 .text          0x00829968      0x79c ../G4Capstone_bsp//libucosii_bsp.a(pktalloc.o)
                0x00829968                pk_init
                0x00829bf8                pk_alloc
                0x00829cd4                pk_validate
                0x00829f8c                pk_free
                0x0082a038                pk_get_max_intrsafe_buf_len
                0x0082a058                dump_buf_estats
 .text          0x0082a104      0x288 ../G4Capstone_bsp//libucosii_bsp.a(q.o)
                0x0082a104                getq
                0x0082a1cc                putq
                0x0082a27c                qdel
 .text          0x0082a38c      0x31c ../G4Capstone_bsp//libucosii_bsp.a(udp_open.o)
                0x0082a38c                udp_open
                0x0082a5c4                udp_close
 .text          0x0082a6a8      0x194 ../G4Capstone_bsp//libucosii_bsp.a(asm_cksum.o)
                0x0082a6a8                asm_cksum
 .text          0x0082a83c      0x2a0 ../G4Capstone_bsp//libucosii_bsp.a(brdutils.o)
                0x0082a83c                dtrap
                0x0082a86c                kbhit
                0x0082a918                getch
                0x0082a978                clock_init
                0x0082a9b4                clock_c
                0x0082a9d0                cticks_hook
                0x0082aa3c                irq_Mask
                0x0082aa98                irq_Unmask
 .text          0x0082aadc      0x488 ../G4Capstone_bsp//libucosii_bsp.a(osportco.o)
                0x0082aadc                LOCK_NET_RESOURCE
                0x0082ab9c                UNLOCK_NET_RESOURCE
                0x0082ac24                TK_NEWTASK
                0x0082ae38                wait_app_sem
                0x0082aeec                post_app_sem
 .text          0x0082af64      0x568 ../G4Capstone_bsp//libucosii_bsp.a(targnios.o)
                0x0082af64                alt_iniche_init
                0x0082b180                pre_task_setup
                0x0082b1f4                post_task_setup
                0x0082b214                prep_armintcp
                0x0082b24c                calloc2
                0x0082b280                npalloc
                0x0082b374                npfree
                0x0082b42c                ncpalloc
                0x0082b480                ncpfree
 .text          0x0082b4cc     0x197c ../G4Capstone_bsp//libucosii_bsp.a(nptcp.o)
                0x0082b4cc                pffindtype
                0x0082b56c                pffindproto
                0x0082b63c                m_getnbuf
                0x0082b7e4                m_free
                0x0082b918                m_freem
                0x0082b95c                m_copy
                0x0082bc80                m_adj
                0x0082be50                mbuf_len
                0x0082bea8                dtom
                0x0082bf50                remque
                0x0082bfc0                insque
                0x0082c03c                nptcp_init
                0x0082c160                tcp_rcv
                0x0082c34c                ip_output
                0x0082c944                in_broadcast
                0x0082c984                np_stripoptions
                0x0082ca6c                so_icmpdu
                0x0082cdc4                tcp_tick
 .text          0x0082ce48      0xa2c ../G4Capstone_bsp//libucosii_bsp.a(rawsock.o)
                0x0082ce48                rawip_lookup
                0x0082ceb8                rawip_soinput
                0x0082d08c                rawip_usrreq
 .text          0x0082d874     0x17fc ../G4Capstone_bsp//libucosii_bsp.a(sockcall.o)
                0x0082d874                DOMAIN_CHECK
                0x0082d8c0                t_socket
                0x0082d950                t_bind
                0x0082dacc                t_listen
                0x0082dbb0                t_accept
                0x0082de48                t_connect
                0x0082e0f0                t_getpeername
                0x0082e134                t_getsockname
                0x0082e374                t_setsockopt
                0x0082e550                t_getsockopt
                0x0082e6f4                t_recv
                0x0082e7e4                t_recvfrom
                0x0082e934                t_sendto
                0x0082eb60                t_send
                0x0082ed88                t_shutdown
                0x0082ee6c                t_socketclose
                0x0082efd4                t_errno
 .text          0x0082f070     0x2374 ../G4Capstone_bsp//libucosii_bsp.a(socket.o)
                0x0082f070                socreate
                0x0082f23c                sobind
                0x0082f298                solisten
                0x0082f388                sofree
                0x0082f4b8                soclose
                0x0082f7ac                soabort
                0x0082f7fc                soaccept
                0x0082f898                soconnect
                0x0082f96c                sodisconnect
                0x0082fa0c                sosend
                0x00830014                soreceive
                0x008307f8                soshutdown
                0x008308a0                sorflush
                0x008309a0                sosetopt
                0x00830e60                sogetopt
                0x008313a0                sohasoutofband
 .text          0x008313e4     0x1318 ../G4Capstone_bsp//libucosii_bsp.a(socket2.o)
                0x008313e4                soisconnecting
                0x00831450                soisconnected
                0x0083154c                soisdisconnecting
                0x008315d8                soisdisconnected
                0x00831694                sonewconn
                0x008318b0                soqinsque
                0x0083195c                soqremque
                0x00831a7c                socantsendmore
                0x00831acc                socantrcvmore
                0x00831b1c                sbselqueue
                0x00831b54                sbwait
                0x00831bbc                sbwakeup
                0x00831c58                soreserve
                0x00831cd8                sbreserve
                0x00831d38                sbrelease
                0x00831d80                sbappend
                0x00831e28                sbappendrecord
                0x00831f08                sbappendaddr
                0x00832110                sbcompress
                0x008322f8                sbflush
                0x00832388                sbdrop
                0x00832558                sbdropend
                0x00832668                sbdroprecord
 .text          0x008326fc      0x914 ../G4Capstone_bsp//libucosii_bsp.a(soselect.o)
                0x008326fc                t_select
                0x0083291c                sock_selscan
                0x00832a74                sock_select
                0x00832c88                in_pcbnotify
                0x00832d54                tcp_notify
                0x00832dbc                ifd_clr
                0x00832eac                ifd_set
                0x00832f20                ifd_isset
                0x00832fa0                ifd_get
 .text          0x00833010     0x2fe8 ../G4Capstone_bsp//libucosii_bsp.a(tcp_in.o)
                0x00833010                tcp_reass
                0x00833418                tcp_input
                0x0083596c                tcp_dooptions
                0x00835afc                tcp_pulloutofband
                0x00835c28                tcp_xmit_timer
                0x00835e94                ip4_tcpmss
                0x00835edc                tcp_mss
 .text          0x00835ff8     0x1360 ../G4Capstone_bsp//libucosii_bsp.a(tcp_out.o)
                0x00835ff8                tcp_output
                0x00837174                tcp_setpersist
 .text          0x00837358      0x9e8 ../G4Capstone_bsp//libucosii_bsp.a(tcp_subr.o)
                0x00837358                tcp_init
                0x008373b0                tcp_template
                0x008374c8                tcp_respond
                0x00837950                tcp_newtcpcb
                0x00837a68                tcp_drop
                0x00837b14                tcp_close
                0x00837bfc                tcp_quench
                0x00837c48                tcp_putseq
                0x00837cc8                tcp_getseq
 .text          0x00837d40      0x798 ../G4Capstone_bsp//libucosii_bsp.a(tcp_timr.o)
                0x00837d40                tcp_slowtimo
                0x00837fe0                tcp_canceltimers
                0x0083803c                tcp_timers
 .text          0x008384d8      0x9ec ../G4Capstone_bsp//libucosii_bsp.a(tcp_usr.o)
                0x008384d8                tcp_usrreq
                0x00838bdc                tcp_attach
                0x00838d10                tcp_disconnect
                0x00838de4                tcp_usrclosed
 .text          0x00838ec4       0x4c ../G4Capstone_bsp//libucosii_bsp.a(tcpport.o)
                0x00838ec4                tcpinit
 .text          0x00838f10      0xd20 ../G4Capstone_bsp//libucosii_bsp.a(udpsock.o)
                0x00838f10                udp_lookup
                0x00838f80                udp_soinput
                0x00839138                udp_usrreq
                0x008393bc                udp4_sockbind
                0x008396f8                udp4_socksend
                0x00839ad4                udp4_sockaddr
 .text          0x00839c30      0x154 ../G4Capstone_bsp//libucosii_bsp.a(alt_alarm_start.o)
                0x00839c30                alt_alarm_start
 .text          0x00839d84      0x14c ../G4Capstone_bsp//libucosii_bsp.a(alt_busy_sleep.o)
                0x00839d84                alt_busy_sleep
 .text          0x00839ed0      0x15c ../G4Capstone_bsp//libucosii_bsp.a(alt_close.o)
                0x00839ed0                alt_close
 .text          0x0083a02c       0x2c ../G4Capstone_bsp//libucosii_bsp.a(alt_dev.o)
 .text          0x0083a058      0x114 ../G4Capstone_bsp//libucosii_bsp.a(alt_dev_llist_insert.o)
                0x0083a058                alt_dev_llist_insert
 .text          0x0083a16c       0x64 ../G4Capstone_bsp//libucosii_bsp.a(alt_do_ctors.o)
                0x0083a16c                _do_ctors
 .text          0x0083a1d0       0x64 ../G4Capstone_bsp//libucosii_bsp.a(alt_do_dtors.o)
                0x0083a1d0                _do_dtors
 .text          0x0083a234        0x0 ../G4Capstone_bsp//libucosii_bsp.a(alt_errno.o)
 .text          0x0083a234       0x94 ../G4Capstone_bsp//libucosii_bsp.a(alt_find_dev.o)
                0x0083a234                alt_find_dev
 .text          0x0083a2c8      0x120 ../G4Capstone_bsp//libucosii_bsp.a(alt_find_file.o)
                0x0083a2c8                alt_find_file
 .text          0x0083a3e8       0x90 ../G4Capstone_bsp//libucosii_bsp.a(alt_fs_reg.o)
                0x0083a3e8                alt_fs_reg
 .text          0x0083a478       0xf4 ../G4Capstone_bsp//libucosii_bsp.a(alt_get_fd.o)
                0x0083a478                alt_get_fd
 .text          0x0083a56c      0x1d4 ../G4Capstone_bsp//libucosii_bsp.a(alt_iic.o)
                0x0083a56c                alt_ic_isr_register
                0x0083a5bc                alt_ic_irq_enable
                0x0083a658                alt_ic_irq_disable
                0x0083a6f8                alt_ic_irq_enabled
 .text          0x0083a740       0xf8 ../G4Capstone_bsp//libucosii_bsp.a(alt_iic_isr_register.o)
                0x0083a740                alt_iic_isr_register
 .text          0x0083a838      0x13c ../G4Capstone_bsp//libucosii_bsp.a(alt_io_redirect.o)
                0x0083a8fc                alt_io_redirect
 .text          0x0083a974        0x0 ../G4Capstone_bsp//libucosii_bsp.a(alt_irq_entry.o)
 .text          0x0083a974        0x0 ../G4Capstone_bsp//libucosii_bsp.a(alt_irq_handler.o)
 .text          0x0083a974      0x180 ../G4Capstone_bsp//libucosii_bsp.a(alt_read.o)
                0x0083a974                alt_read
 .text          0x0083aaf4       0x38 ../G4Capstone_bsp//libucosii_bsp.a(alt_remap_cached.o)
                0x0083aaf4                alt_remap_cached
 .text          0x0083ab2c       0x40 ../G4Capstone_bsp//libucosii_bsp.a(alt_remap_uncached.o)
                0x0083ab2c                alt_remap_uncached
 .text          0x0083ab6c      0x180 ../G4Capstone_bsp//libucosii_bsp.a(alt_write.o)
                0x0083ab6c                alt_write
 .text          0x0083acec       0x20 ../G4Capstone_bsp//libucosii_bsp.a(altera_nios2_qsys_irq.o)
                0x0083acec                altera_nios2_qsys_irq_init
 .text          0x0083ad0c       0xd0 ../G4Capstone_bsp//libucosii_bsp.a(os_cpu_a.o)
                0x0083ad0c                OSCtxSw
                0x0083ad0c                OSIntCtxSw
                0x0083ad98                OSStartHighRdy
                0x0083adb8                OSStartTsk
 .text          0x0083addc      0x424 ../G4Capstone_bsp//libucosii_bsp.a(os_cpu_c.o)
                0x0083addc                OSTaskStkInit
                0x0083b0ec                OSTaskCreateHook
                0x0083b10c                OSTaskDelHook
                0x0083b12c                OSTaskSwHook
                0x0083b148                OSTaskStatHook
                0x0083b164                OSTimeTickHook
                0x0083b18c                OSInitHookBegin
                0x0083b1a8                OSInitHookEnd
                0x0083b1c4                OSTaskIdleHook
                0x0083b1e0                OSTCBInitHook
 .text          0x0083b200      0x3d4 ../G4Capstone_bsp//libucosii_bsp.a(allports.o)
                0x0083b200                netmain_init
                0x0083b2fc                icmp_port_du
                0x0083b384                station_state
                0x0083b4d0                sysuptime
                0x0083b50c                packet_check
                0x0083b558                mcastlist
                0x0083b57c                prep_modules
 .text          0x0083b5d4      0x480 ../G4Capstone_bsp//libucosii_bsp.a(timeouts.o)
                0x0083b5d4                inet_timer
                0x0083b830                in_timerset
                0x0083b9ac                in_timerkill
 .text          0x0083ba54       0xa4 ../G4Capstone_bsp//libucosii_bsp.a(tk_misc.o)
                0x0083ba54                create_apptasks
                0x0083ba78                task_stats
 .text          0x0083baf8       0xb0 ../G4Capstone_bsp//libucosii_bsp.a(alt_iniche_fcntl.o)
                0x0083baf8                fcntl
 .text          0x0083bba8     0x14a0 ../G4Capstone_bsp//libucosii_bsp.a(et_arp.o)
                0x0083bba8                etainit
                0x0083bbfc                et_send
                0x0083bd78                arp_free_pending
                0x0083be00                arp_send_pending
                0x0083be74                send_arp
                0x0083c30c                find_oldest_arp
                0x0083c4b4                make_arp_entry
                0x0083c5c8                arpReply
                0x0083c85c                arprcv
                0x0083cabc                send_via_arp
                0x0083cc64                cb_arpent_tmo
                0x0083cd7c                grat_arp
 .text          0x0083d048      0x298 ../G4Capstone_bsp//libucosii_bsp.a(iface.o)
                0x0083d048                if_getbynum
                0x0083d0cc                isbcast
                0x0083d1ac                reg_type
                0x0083d248                if_killsocks
 .text          0x0083d2e0     0x22a4 ../G4Capstone_bsp//libucosii_bsp.a(ip.o)
                0x0083d2e0                ip_init
                0x0083d3dc                ip_bldhead
                0x0083d580                ip_write_internal
                0x0083dd00                ip_write
                0x0083df48                ip_write2
                0x0083e2f8                ip_raw_write
                0x0083e3d0                ip_fragment_lc
                0x0083e858                ip_fragment
                0x0083ee7c                ip_mymach
                0x0083ef28                ip_dump
                0x0083f1e0                iproute
                0x0083f44c                ip_copypkt
 .text          0x0083f584     0x1d9c ../G4Capstone_bsp//libucosii_bsp.a(ip_reasm.o)
                0x0083f584                ip_reasm_match_frag_with_ire
                0x0083f654                ip_reasm_determine_type_of_frag
                0x0083f740                ip_reasm_check_mem_useage
                0x0083f7d8                ip_reasm_incr_mem_useage
                0x0083f880                ip_reasm_decr_mem_useage
                0x0083f920                ip_reasm_process_first_fragment
                0x0083fc00                ip_reassm
                0x0083fca0                ip_reasm_compute_overlap
                0x00840230                ip_reasm_process_subsequent_fragments
                0x008407c4                ip_reasm_find_ire
                0x00840828                ip_reasm_copy_queued_fragments_into_reassy_buffer
                0x00840b84                ip_reasm_process_timer_tick
                0x00840c68                ip_reasm_delete_ire
                0x00840e30                ip_reasm_mark_compact_rfq
                0x00840f78                ipr_stats
                0x008412cc                ip_reasm_send_icmp_timex
 .text          0x00841320      0xe3c ../G4Capstone_bsp//libucosii_bsp.a(ipdemux.o)
                0x00841320                ip_rcv
                0x00841720                ip_rcv_phase2
                0x00841d2c                ip_demux
 .text          0x0084215c      0x2f0 ../G4Capstone_bsp//libucosii_bsp.a(ipmc.o)
                0x0084215c                in_addmulti
                0x008422c4                in_delmulti
                0x008423dc                lookup_mcast
 .text          0x0084244c       0xe4 ../G4Capstone_bsp//libucosii_bsp.a(ipport.o)
                0x0084244c                prep_ifaces
                0x008424e0                netexit
                0x00842508                evtmap_setup
 .text          0x00842530      0x550 ../G4Capstone_bsp//libucosii_bsp.a(ipraw.o)
                0x00842530                ip_raw_open
                0x00842620                ip_raw_close
                0x008426e0                ip_raw_input
                0x00842918                ip_raw_alloc
                0x008429e4                ip_raw_free
                0x00842a24                ip_raw_maxalloc
 .text          0x00842a80      0x6f0 ../G4Capstone_bsp//libucosii_bsp.a(iproute.o)
                0x00842a80                rt_lookup
                0x00842c04                add_route
                0x0084302c                del_route
 .text          0x00843170      0xe3c ../G4Capstone_bsp//libucosii_bsp.a(udp.o)
                0x00843170                udpdemux
                0x008439c8                udp_send
                0x00843c80                udpswap
                0x00843db0                udp_socket
                0x00843e80                udp_alloc
                0x00843f40                udp_maxalloc
                0x00843f6c                udp_free
 .text          0x00843fac      0x2e8 ../G4Capstone_bsp//libucosii_bsp.a(igmp.o)
                0x00843fac                igmpv1_input
 .text          0x00844294      0x7c0 ../G4Capstone_bsp//libucosii_bsp.a(igmp2.o)
                0x00844294                igmpv2_input
                0x008443f4                igmpv2_process_report
                0x00844540                igmpv2_process_query
                0x0084478c                igmpv2_chk_set_timer
                0x008448e4                igmpv2_chk4_rtr_alert_opt
 .text          0x00844a54      0x8fc ../G4Capstone_bsp//libucosii_bsp.a(ipopt.o)
                0x00844a54                IPADDR_TO_NETP
                0x00844b9c                ip_setmoptions
                0x0084518c                ip_getmoptions
                0x008452cc                ip_freemoptions
 .text          0x00845350      0x6ac ../G4Capstone_bsp//libucosii_bsp.a(u_mctest.o)
                0x00845350                u_mctest_init
                0x00845380                u_mctest_run
 .text          0x008459fc      0x38c ../G4Capstone_bsp//libucosii_bsp.a(dhcsetup.o)
                0x008459fc                dhc_setup
                0x00845c84                dhc_main_ipset
 .text          0x00845d88      0x40c ../G4Capstone_bsp//libucosii_bsp.a(memdev.o)
                0x00845d88                init_memdev
                0x00845e00                md_fopen
                0x00845e28                md_fclose
                0x00845e48                md_fread
                0x00845fc8                md_fwrite
                0x00846048                md_fseek
                0x00846074                md_ftell
                0x00846098                md_fgetc
                0x00846170                md_unlink
 .text          0x00846194      0x810 ../G4Capstone_bsp//libucosii_bsp.a(parseip.o)
                0x00846194                parse_ipad
                0x008464b0                inet_addr
                0x00846518                hextoa
                0x00846588                inet_pton
                0x00846634                inet_ntop
                0x008466c0                print46_addr
                0x00846720                inet46_addr
                0x008467e4                inet_setport
                0x00846858                convert_ip
 .text          0x008469a4      0x1cc ../G4Capstone_bsp//libucosii_bsp.a(tcpcksum.o)
                0x008469a4                tcp_cksum
 .text          0x00846b70      0x900 ../G4Capstone_bsp//libucosii_bsp.a(in_pcb.o)
                0x00846b70                in_pcballoc
                0x00846c04                in_pcbdetach
                0x00846c58                in_pcbbind
                0x00846eac                in_pcbconnect
                0x008470bc                in_pcbdisconnect
                0x0084711c                in_setsockaddr
                0x00847198                in_setpeeraddr
                0x00847214                in_pcblookup
 .text          0x00847470     0x1a74 ../G4Capstone_bsp//libucosii_bsp.a(vfsfiles.o)
                0x00847470                set_vfopen_error
                0x00847498                get_vfopen_error
                0x008474b8                vf_alloc_and_link_vop
                0x00847534                vf_alloc_buffer
                0x0084760c                vf_free_buffer
                0x0084765c                vfopen_locked
                0x008479c4                vfopen
                0x00847a14                vfclose_locked
                0x00847bbc                vfclose
                0x00847bfc                vfflush
                0x00847c44                vfgets
                0x00847d28                vfeof
                0x00847d80                vunlink_flag_open_files
                0x00847ddc                vunlink
                0x00847ffc                vfread
                0x008481a8                vfwrite_locked
                0x00848590                vfwrite
                0x008485f0                vfseek
                0x0084876c                vftell
                0x008488a0                vgetc_locked
                0x008489c0                vgetc
                0x00848a08                vfslookup_locked
                0x00848b40                vfslookup
                0x00848b88                strippath
                0x00848d70                isvfile_locked
                0x00848dd4                isvfile
                0x00848e1c                vferror
                0x00848e88                vclearerr
 .text          0x00848ee4       0x24 ../G4Capstone_bsp//libucosii_bsp.a(vfsport.o)
                0x00848ee4                prep_vfs
 .text          0x00848f08        0x0 ../G4Capstone_bsp//libucosii_bsp.a(alt_exception_entry.o)
 .text          0x00848f08      0x1b4 ../G4Capstone_bsp//libucosii_bsp.a(alt_fcntl.o)
                0x00848f08                alt_fcntl
 .text          0x008490bc     0x130c ../G4Capstone_bsp//libucosii_bsp.a(icmp.o)
                0x008490bc                icmprcv
                0x00849cf0                icmp_destun
                0x0084a040                icmp_timex
                0x0084a374                icmp_du
 .text          0x0084a3c8       0x14 /OPT/altera/12.1/tools/nios2eds/bin/gnu/H-i686-pc-linux-gnu/bin/../lib/gcc/nios2-elf/4.1.2/../../../../nios2-elf/lib/libc.a(lib_a-atexit.o)
                0x0084a3c8                atexit
 .text          0x0084a3dc       0x1c /OPT/altera/12.1/tools/nios2eds/bin/gnu/H-i686-pc-linux-gnu/bin/../lib/gcc/nios2-elf/4.1.2/../../../../nios2-elf/lib/libc.a(lib_a-calloc.o)
                0x0084a3dc                calloc
 .text          0x0084a3f8       0x38 /OPT/altera/12.1/tools/nios2eds/bin/gnu/H-i686-pc-linux-gnu/bin/../lib/gcc/nios2-elf/4.1.2/../../../../nios2-elf/lib/libc.a(lib_a-exit.o)
                0x0084a3f8                exit
 .text          0x0084a430      0x128 /OPT/altera/12.1/tools/nios2eds/bin/gnu/H-i686-pc-linux-gnu/bin/../lib/gcc/nios2-elf/4.1.2/../../../../nios2-elf/lib/libc.a(lib_a-getc.o)
                0x0084a430                getc
                0x0084a4c8                _getc_r
 .text          0x0084a558       0x28 /OPT/altera/12.1/tools/nios2eds/bin/gnu/H-i686-pc-linux-gnu/bin/../lib/gcc/nios2-elf/4.1.2/../../../../nios2-elf/lib/libc.a(lib_a-malloc.o)
                0x0084a558                free
                0x0084a56c                malloc
 .text          0x0084a580       0x60 /OPT/altera/12.1/tools/nios2eds/bin/gnu/H-i686-pc-linux-gnu/bin/../lib/gcc/nios2-elf/4.1.2/../../../../nios2-elf/lib/libc.a(lib_a-rget.o)
                0x0084a580                __srget_r
                0x0084a5cc                __srget
 .text          0x0084a5e0       0x34 /OPT/altera/12.1/tools/nios2eds/bin/gnu/H-i686-pc-linux-gnu/bin/../lib/gcc/nios2-elf/4.1.2/../../../../nios2-elf/lib/libc.a(lib_a-vprintf.o)
                0x0084a5e0                _vprintf_r
                0x0084a5f4                vprintf
 .text          0x0084a614       0x74 /OPT/altera/12.1/tools/nios2eds/bin/gnu/H-i686-pc-linux-gnu/bin/../lib/gcc/nios2-elf/4.1.2/../../../../nios2-elf/lib/libc.a(lib_a-vsprintf.o)
                0x0084a614                _vsprintf_r
                0x0084a664                vsprintf
 .text          0x0084a688      0x134 /OPT/altera/12.1/tools/nios2eds/bin/gnu/H-i686-pc-linux-gnu/bin/../lib/gcc/nios2-elf/4.1.2/../../../../nios2-elf/lib/libc.a(lib_a-__atexit.o)
                0x0084a688                __register_exitproc
 .text          0x0084a7bc      0x1b4 /OPT/altera/12.1/tools/nios2eds/bin/gnu/H-i686-pc-linux-gnu/bin/../lib/gcc/nios2-elf/4.1.2/../../../../nios2-elf/lib/libc.a(lib_a-__call_atexit.o)
                0x0084a7c0                __call_exitprocs
 .text          0x0084a970       0x6c ../G4Capstone_bsp//libucosii_bsp.a(alt_exit.o)
                0x0084a9b0                _exit
 *(.gnu.warning.*)
 *(.fini)
                0x0084a9dc                PROVIDE (__etext, ABSOLUTE (.))
                0x0084a9dc                PROVIDE (_etext, ABSOLUTE (.))
                0x0084a9dc                PROVIDE (etext, ABSOLUTE (.))
 *(.eh_frame_hdr)
                0x0084a9dc                . = ALIGN (0x4)
                0x0084a9dc                PROVIDE (__preinit_array_start, ABSOLUTE (.))
 *(.preinit_array)
                0x0084a9dc                PROVIDE (__preinit_array_end, ABSOLUTE (.))
                0x0084a9dc                PROVIDE (__init_array_start, ABSOLUTE (.))
 *(.init_array)
                0x0084a9dc                PROVIDE (__init_array_end, ABSOLUTE (.))
                0x0084a9dc                PROVIDE (__fini_array_start, ABSOLUTE (.))
 *(.fini_array)
                0x0084a9dc                PROVIDE (__fini_array_end, ABSOLUTE (.))
 *(.eh_frame)
 *(.gcc_except_table)
 *(.dynamic)
                0x0084a9dc                PROVIDE (__CTOR_LIST__, ABSOLUTE (.))
 *(.ctors)
 *(SORT(.ctors.*))
 .ctors.65535   0x0084a9dc        0x4 /OPT/altera/12.1/tools/nios2eds/bin/gnu/H-i686-pc-linux-gnu/bin/../lib/gcc/nios2-elf/4.1.2/../../../../nios2-elf/lib/libc.a(lib_a-__call_atexit.o)
                0x0084a9e0                PROVIDE (__CTOR_END__, ABSOLUTE (.))
                0x0084a9e0                PROVIDE (__DTOR_LIST__, ABSOLUTE (.))
 *(.dtors)
 *(SORT(.dtors.*))
                0x0084a9e0                PROVIDE (__DTOR_END__, ABSOLUTE (.))
 *(.jcr)
                0x0084a9e0                . = ALIGN (0x4)

.rodata         0x0084a9e0     0x427c
                0x0084a9e0                PROVIDE (__ram_rodata_start, ABSOLUTE (.))
                0x0084a9e0                . = ALIGN (0x4)
 *(.rodata .rodata.* .gnu.linkonce.r.*)
 .rodata        0x0084a9e0      0x654 obj/default/alt_error_handler.o
 .rodata        0x0084b034       0x64 obj/default/dm9000a.o
 .rodata        0x0084b098      0x84c obj/default/http.o
 .rodata        0x0084b8e4      0x17c obj/default/network_utilities.o
 .rodata        0x0084ba60      0x1ac obj/default/srec_flash.o
 .rodata        0x0084bc0c       0xe0 obj/default/web_server.o
 .rodata        0x0084bcec      0x281 /OPT/altera/12.1/tools/nios2eds/bin/gnu/H-i686-pc-linux-gnu/bin/../lib/gcc/nios2-elf/4.1.2/../../../../nios2-elf/lib/libc.a(lib_a-ctype_.o)
                0x0084bcec                _ctype_
 *fill*         0x0084bf6d        0x3 00
 .rodata.str1.4
                0x0084bf70        0x2 /OPT/altera/12.1/tools/nios2eds/bin/gnu/H-i686-pc-linux-gnu/bin/../lib/gcc/nios2-elf/4.1.2/../../../../nios2-elf/lib/libc.a(lib_a-impure.o)
                                  0x4 (size before relaxing)
 *fill*         0x0084bf72        0x2 00
 .rodata.str1.4
                0x0084bf74        0x3 /OPT/altera/12.1/tools/nios2eds/bin/gnu/H-i686-pc-linux-gnu/bin/../lib/gcc/nios2-elf/4.1.2/../../../../nios2-elf/lib/libc.a(lib_a-perror.o)
                                  0x4 (size before relaxing)
 *fill*         0x0084bf77        0x1 00
 .rodata.str1.4
                0x0084bf78        0x2 /OPT/altera/12.1/tools/nios2eds/bin/gnu/H-i686-pc-linux-gnu/bin/../lib/gcc/nios2-elf/4.1.2/../../../../nios2-elf/lib/libc.a(lib_a-puts.o)
                                  0x4 (size before relaxing)
 *fill*         0x0084bf7a        0x2 00
 .rodata.str1.4
                0x0084bf7c      0x7a2 /OPT/altera/12.1/tools/nios2eds/bin/gnu/H-i686-pc-linux-gnu/bin/../lib/gcc/nios2-elf/4.1.2/../../../../nios2-elf/lib/libc.a(lib_a-strerror.o)
                                0x7a8 (size before relaxing)
 *fill*         0x0084c71e        0x2 00
 .rodata.str1.4
                0x0084c720       0x5e /OPT/altera/12.1/tools/nios2eds/bin/gnu/H-i686-pc-linux-gnu/bin/../lib/gcc/nios2-elf/4.1.2/../../../../nios2-elf/lib/libc.a(lib_a-vfprintf.o)
                                 0x60 (size before relaxing)
 .rodata        0x0084c77e       0x20 /OPT/altera/12.1/tools/nios2eds/bin/gnu/H-i686-pc-linux-gnu/bin/../lib/gcc/nios2-elf/4.1.2/../../../../nios2-elf/lib/libc.a(lib_a-vfprintf.o)
 *fill*         0x0084c79e        0x2 00
 .rodata.str1.4
                0x0084c7a0        0x5 /OPT/altera/12.1/tools/nios2eds/bin/gnu/H-i686-pc-linux-gnu/bin/../lib/gcc/nios2-elf/4.1.2/../../../../nios2-elf/lib/libc.a(lib_a-vfscanf.o)
                                  0x8 (size before relaxing)
 *fill*         0x0084c7a5        0x1 00
 .rodata        0x0084c7a6       0x22 /OPT/altera/12.1/tools/nios2eds/bin/gnu/H-i686-pc-linux-gnu/bin/../lib/gcc/nios2-elf/4.1.2/../../../../nios2-elf/lib/libc.a(lib_a-vfscanf.o)
 .rodata.str1.4
                0x0084c7c8       0x10 /OPT/altera/12.1/tools/nios2eds/bin/gnu/H-i686-pc-linux-gnu/bin/../lib/gcc/nios2-elf/4.1.2/../../../../nios2-elf/lib/libc.a(lib_a-dtoa.o)
                                 0x14 (size before relaxing)
 .rodata.str1.4
                0x0084c7d8        0xf /OPT/altera/12.1/tools/nios2eds/bin/gnu/H-i686-pc-linux-gnu/bin/../lib/gcc/nios2-elf/4.1.2/../../../../nios2-elf/lib/libc.a(lib_a-locale.o)
                                 0x18 (size before relaxing)
 *fill*         0x0084c7e7        0x1 00
 .rodata        0x0084c7e8       0x30 /OPT/altera/12.1/tools/nios2eds/bin/gnu/H-i686-pc-linux-gnu/bin/../lib/gcc/nios2-elf/4.1.2/../../../../nios2-elf/lib/libc.a(lib_a-locale.o)
 .rodata.str1.4
                0x00000000        0x4 /OPT/altera/12.1/tools/nios2eds/bin/gnu/H-i686-pc-linux-gnu/bin/../lib/gcc/nios2-elf/4.1.2/../../../../nios2-elf/lib/libc.a(lib_a-mbrtowc.o)
 .rodata        0x0084c818      0x124 /OPT/altera/12.1/tools/nios2eds/bin/gnu/H-i686-pc-linux-gnu/bin/../lib/gcc/nios2-elf/4.1.2/../../../../nios2-elf/lib/libc.a(lib_a-mprec.o)
                0x0084c818                __mprec_tens
                0x0084c8e0                __mprec_bigtens
                0x0084c908                __mprec_tinytens
 .rodata.str1.4
                0x0084c93c        0xf /OPT/altera/12.1/tools/nios2eds/bin/gnu/H-i686-pc-linux-gnu/bin/../lib/gcc/nios2-elf/4.1.2/../../../../nios2-elf/lib/libc.a(lib_a-strtod.o)
                                 0x10 (size before relaxing)
 *fill*         0x0084c94b        0x1 00
 .rodata        0x0084c94c       0x28 /OPT/altera/12.1/tools/nios2eds/bin/gnu/H-i686-pc-linux-gnu/bin/../lib/gcc/nios2-elf/4.1.2/../../../../nios2-elf/lib/libc.a(lib_a-strtod.o)
 .rodata.str1.4
                0x0084c974       0x1c /OPT/altera/12.1/tools/nios2eds/bin/gnu/H-i686-pc-linux-gnu/bin/../lib/gcc/nios2-elf/4.1.2/../../../../nios2-elf/lib/libc.a(lib_a-gdtoa-gethex.o)
 .rodata        0x0084c990       0x14 /OPT/altera/12.1/tools/nios2eds/bin/gnu/H-i686-pc-linux-gnu/bin/../lib/gcc/nios2-elf/4.1.2/libgcc.a(_thenan_df.o)
                0x0084c990                __thenan_df
 .rodata        0x0084c9a4      0x100 /OPT/altera/12.1/tools/nios2eds/bin/gnu/H-i686-pc-linux-gnu/bin/../lib/gcc/nios2-elf/4.1.2/libgcc.a(_clz.o)
                0x0084c9a4                __clz_tab
 .rodata        0x0084caa4       0x14 ../G4Capstone_bsp//libucosii_bsp.a(alt_main.o)
 .rodata        0x0084cab8      0x120 ../G4Capstone_bsp//libucosii_bsp.a(os_core.o)
                0x0084cab8                OSUnMapTbl
 .rodata        0x0084cbd8       0x5c ../G4Capstone_bsp//libucosii_bsp.a(alt_sys_init.o)
 .rodata        0x0084cc34       0xd8 ../G4Capstone_bsp//libucosii_bsp.a(ipnet.o)
 .rodata        0x0084cd0c       0xec ../G4Capstone_bsp//libucosii_bsp.a(ipstart.o)
 .rodata        0x0084cdf8      0x54c ../G4Capstone_bsp//libucosii_bsp.a(igmp_cmn.o)
 .rodata        0x0084d344       0xb8 ../G4Capstone_bsp//libucosii_bsp.a(in_utils.o)
 .rodata        0x0084d3fc       0x34 ../G4Capstone_bsp//libucosii_bsp.a(netmain.o)
 .rodata        0x0084d430      0x1a8 ../G4Capstone_bsp//libucosii_bsp.a(tk_crnos.o)
 .rodata        0x0084d5d8        0x8 ../G4Capstone_bsp//libucosii_bsp.a(dhcpclnt.o)
 .rodata        0x0084d5e0      0x118 ../G4Capstone_bsp//libucosii_bsp.a(pktalloc.o)
 .rodata        0x0084d6f8       0x84 ../G4Capstone_bsp//libucosii_bsp.a(udp_open.o)
 .rodata        0x0084d77c       0x2c ../G4Capstone_bsp//libucosii_bsp.a(brdutils.o)
 .rodata        0x0084d7a8      0x26c ../G4Capstone_bsp//libucosii_bsp.a(osportco.o)
 .rodata        0x0084da14       0xa0 ../G4Capstone_bsp//libucosii_bsp.a(targnios.o)
 .rodata        0x0084dab4       0x90 ../G4Capstone_bsp//libucosii_bsp.a(nptcp.o)
 .rodata        0x0084db44        0x8 ../G4Capstone_bsp//libucosii_bsp.a(sockcall.o)
 .rodata        0x0084db4c       0x50 ../G4Capstone_bsp//libucosii_bsp.a(socket.o)
 .rodata        0x0084db9c       0x40 ../G4Capstone_bsp//libucosii_bsp.a(socket2.o)
 .rodata        0x0084dbdc       0x20 ../G4Capstone_bsp//libucosii_bsp.a(tcp_in.o)
 .rodata        0x0084dbfc       0x40 ../G4Capstone_bsp//libucosii_bsp.a(tcp_out.o)
 .rodata        0x0084dc3c       0x24 ../G4Capstone_bsp//libucosii_bsp.a(tcp_subr.o)
 .rodata        0x0084dc60       0x2c ../G4Capstone_bsp//libucosii_bsp.a(tcp_usr.o)
 .rodata        0x0084dc8c        0xc ../G4Capstone_bsp//libucosii_bsp.a(alt_dev.o)
 .rodata        0x0084dc98        0x4 ../G4Capstone_bsp//libucosii_bsp.a(os_cpu_c.o)
 .rodata        0x0084dc9c      0x1d4 ../G4Capstone_bsp//libucosii_bsp.a(allports.o)
 .rodata        0x0084de70       0x34 ../G4Capstone_bsp//libucosii_bsp.a(tk_misc.o)
 .rodata        0x0084dea4       0x44 ../G4Capstone_bsp//libucosii_bsp.a(et_arp.o)
 .rodata        0x0084dee8      0x1dc ../G4Capstone_bsp//libucosii_bsp.a(ip.o)
 .rodata        0x0084e0c4      0x158 ../G4Capstone_bsp//libucosii_bsp.a(ip_reasm.o)
 .rodata        0x0084e21c      0x120 ../G4Capstone_bsp//libucosii_bsp.a(ipdemux.o)
 .rodata        0x0084e33c       0x34 ../G4Capstone_bsp//libucosii_bsp.a(ipport.o)
 .rodata        0x0084e370       0x24 ../G4Capstone_bsp//libucosii_bsp.a(ipraw.o)
 .rodata        0x0084e394       0x38 ../G4Capstone_bsp//libucosii_bsp.a(iproute.o)
 .rodata        0x0084e3cc       0xe8 ../G4Capstone_bsp//libucosii_bsp.a(udp.o)
 .rodata        0x0084e4b4      0x2d0 ../G4Capstone_bsp//libucosii_bsp.a(u_mctest.o)
 .rodata        0x0084e784       0xf8 ../G4Capstone_bsp//libucosii_bsp.a(dhcsetup.o)
 .rodata        0x0084e87c       0x94 ../G4Capstone_bsp//libucosii_bsp.a(parseip.o)
 .rodata        0x0084e910       0x34 ../G4Capstone_bsp//libucosii_bsp.a(vfsfiles.o)
 .rodata        0x0084e944      0x318 ../G4Capstone_bsp//libucosii_bsp.a(icmp.o)
 *(.rodata1)
                0x0084ec5c                . = ALIGN (0x4)
                0x0084ec5c                PROVIDE (__ram_rodata_end, ABSOLUTE (.))
                0x0084a9e0                PROVIDE (__flash_rodata_start, LOADADDR (.rodata))

.rwdata         0x0084ec5c     0x1e80
                0x0084ec5c                PROVIDE (__ram_rwdata_start, ABSOLUTE (.))
                0x0084ec5c                . = ALIGN (0x4)
 *(.got.plt)
 *(.got)
 *(.data1)
 *(.data .data.* .gnu.linkonce.d.*)
 .data          0x0084ec5c        0x0 ../G4Capstone_bsp//obj/HAL/src/crt0.o
 .data          0x0084ec5c        0x0 obj/default/alt_error_handler.o
 .data          0x0084ec5c        0x0 obj/default/dm9000a.o
 .data          0x0084ec5c        0x0 obj/default/http.o
 .data          0x0084ec5c        0x0 obj/default/network_utilities.o
 .data          0x0084ec5c        0x0 obj/default/srec_flash.o
 .data          0x0084ec5c       0x18 obj/default/web_server.o
                0x0084ec5c                wstask
 .data          0x0084ec74        0x0 /OPT/altera/12.1/tools/nios2eds/bin/gnu/H-i686-pc-linux-gnu/bin/../lib/gcc/nios2-elf/4.1.2/libgcc.a(lib2-divmod.o)
 .data          0x0084ec74        0x0 /OPT/altera/12.1/tools/nios2eds/bin/gnu/H-i686-pc-linux-gnu/bin/../lib/gcc/nios2-elf/4.1.2/../../../../nios2-elf/lib/libc.a(lib_a-atoi.o)
 .data          0x0084ec74        0x0 /OPT/altera/12.1/tools/nios2eds/bin/gnu/H-i686-pc-linux-gnu/bin/../lib/gcc/nios2-elf/4.1.2/../../../../nios2-elf/lib/libc.a(lib_a-ctype_.o)
 .data          0x0084ec74        0x0 /OPT/altera/12.1/tools/nios2eds/bin/gnu/H-i686-pc-linux-gnu/bin/../lib/gcc/nios2-elf/4.1.2/../../../../nios2-elf/lib/libc.a(lib_a-fclose.o)
 .data          0x0084ec74        0x0 /OPT/altera/12.1/tools/nios2eds/bin/gnu/H-i686-pc-linux-gnu/bin/../lib/gcc/nios2-elf/4.1.2/../../../../nios2-elf/lib/libc.a(lib_a-fflush.o)
 .data          0x0084ec74        0x0 /OPT/altera/12.1/tools/nios2eds/bin/gnu/H-i686-pc-linux-gnu/bin/../lib/gcc/nios2-elf/4.1.2/../../../../nios2-elf/lib/libc.a(lib_a-fgetpos.o)
 .data          0x0084ec74        0x0 /OPT/altera/12.1/tools/nios2eds/bin/gnu/H-i686-pc-linux-gnu/bin/../lib/gcc/nios2-elf/4.1.2/../../../../nios2-elf/lib/libc.a(lib_a-findfp.o)
 .data          0x0084ec74        0x0 /OPT/altera/12.1/tools/nios2eds/bin/gnu/H-i686-pc-linux-gnu/bin/../lib/gcc/nios2-elf/4.1.2/../../../../nios2-elf/lib/libc.a(lib_a-fopen.o)
 .data          0x0084ec74        0x0 /OPT/altera/12.1/tools/nios2eds/bin/gnu/H-i686-pc-linux-gnu/bin/../lib/gcc/nios2-elf/4.1.2/../../../../nios2-elf/lib/libc.a(lib_a-fprintf.o)
 .data          0x0084ec74        0x0 /OPT/altera/12.1/tools/nios2eds/bin/gnu/H-i686-pc-linux-gnu/bin/../lib/gcc/nios2-elf/4.1.2/../../../../nios2-elf/lib/libc.a(lib_a-fread.o)
 .data          0x0084ec74        0x0 /OPT/altera/12.1/tools/nios2eds/bin/gnu/H-i686-pc-linux-gnu/bin/../lib/gcc/nios2-elf/4.1.2/../../../../nios2-elf/lib/libc.a(lib_a-freer.o)
 .data          0x0084ec74        0x0 /OPT/altera/12.1/tools/nios2eds/bin/gnu/H-i686-pc-linux-gnu/bin/../lib/gcc/nios2-elf/4.1.2/../../../../nios2-elf/lib/libc.a(lib_a-fseek.o)
 .data          0x0084ec74        0x0 /OPT/altera/12.1/tools/nios2eds/bin/gnu/H-i686-pc-linux-gnu/bin/../lib/gcc/nios2-elf/4.1.2/../../../../nios2-elf/lib/libc.a(lib_a-fstatr.o)
 .data          0x0084ec74        0x0 /OPT/altera/12.1/tools/nios2eds/bin/gnu/H-i686-pc-linux-gnu/bin/../lib/gcc/nios2-elf/4.1.2/../../../../nios2-elf/lib/libc.a(lib_a-ftell.o)
 .data          0x0084ec74        0x0 /OPT/altera/12.1/tools/nios2eds/bin/gnu/H-i686-pc-linux-gnu/bin/../lib/gcc/nios2-elf/4.1.2/../../../../nios2-elf/lib/libc.a(lib_a-fwalk.o)
 .data          0x0084ec74        0x0 /OPT/altera/12.1/tools/nios2eds/bin/gnu/H-i686-pc-linux-gnu/bin/../lib/gcc/nios2-elf/4.1.2/../../../../nios2-elf/lib/libc.a(lib_a-fwrite.o)
 .data          0x0084ec74      0x400 /OPT/altera/12.1/tools/nios2eds/bin/gnu/H-i686-pc-linux-gnu/bin/../lib/gcc/nios2-elf/4.1.2/../../../../nios2-elf/lib/libc.a(lib_a-impure.o)
 .data          0x0084f074        0x0 /OPT/altera/12.1/tools/nios2eds/bin/gnu/H-i686-pc-linux-gnu/bin/../lib/gcc/nios2-elf/4.1.2/../../../../nios2-elf/lib/libc.a(lib_a-int_errno.o)
 .data          0x0084f074        0x0 /OPT/altera/12.1/tools/nios2eds/bin/gnu/H-i686-pc-linux-gnu/bin/../lib/gcc/nios2-elf/4.1.2/../../../../nios2-elf/lib/libc.a(lib_a-makebuf.o)
 .data          0x0084f074      0x408 /OPT/altera/12.1/tools/nios2eds/bin/gnu/H-i686-pc-linux-gnu/bin/../lib/gcc/nios2-elf/4.1.2/../../../../nios2-elf/lib/libc.a(lib_a-mallocr.o)
                0x0084f074                __malloc_av_
 .data          0x0084f47c        0x0 /OPT/altera/12.1/tools/nios2eds/bin/gnu/H-i686-pc-linux-gnu/bin/../lib/gcc/nios2-elf/4.1.2/../../../../nios2-elf/lib/libc.a(lib_a-memcpy.o)
 .data          0x0084f47c        0x0 /OPT/altera/12.1/tools/nios2eds/bin/gnu/H-i686-pc-linux-gnu/bin/../lib/gcc/nios2-elf/4.1.2/../../../../nios2-elf/lib/libc.a(lib_a-memmove.o)
 .data          0x0084f47c        0x0 /OPT/altera/12.1/tools/nios2eds/bin/gnu/H-i686-pc-linux-gnu/bin/../lib/gcc/nios2-elf/4.1.2/../../../../nios2-elf/lib/libc.a(lib_a-memset.o)
 .data          0x0084f47c        0x0 /OPT/altera/12.1/tools/nios2eds/bin/gnu/H-i686-pc-linux-gnu/bin/../lib/gcc/nios2-elf/4.1.2/../../../../nios2-elf/lib/libc.a(lib_a-openr.o)
 .data          0x0084f47c        0x0 /OPT/altera/12.1/tools/nios2eds/bin/gnu/H-i686-pc-linux-gnu/bin/../lib/gcc/nios2-elf/4.1.2/../../../../nios2-elf/lib/libc.a(lib_a-perror.o)
 .data          0x0084f47c        0x0 /OPT/altera/12.1/tools/nios2eds/bin/gnu/H-i686-pc-linux-gnu/bin/../lib/gcc/nios2-elf/4.1.2/../../../../nios2-elf/lib/libc.a(lib_a-printf.o)
 .data          0x0084f47c        0x0 /OPT/altera/12.1/tools/nios2eds/bin/gnu/H-i686-pc-linux-gnu/bin/../lib/gcc/nios2-elf/4.1.2/../../../../nios2-elf/lib/libc.a(lib_a-puts.o)
 .data          0x0084f47c        0x0 /OPT/altera/12.1/tools/nios2eds/bin/gnu/H-i686-pc-linux-gnu/bin/../lib/gcc/nios2-elf/4.1.2/../../../../nios2-elf/lib/libc.a(lib_a-refill.o)
 .data          0x0084f47c        0x0 /OPT/altera/12.1/tools/nios2eds/bin/gnu/H-i686-pc-linux-gnu/bin/../lib/gcc/nios2-elf/4.1.2/../../../../nios2-elf/lib/libc.a(lib_a-sbrkr.o)
 .data          0x0084f47c        0x0 /OPT/altera/12.1/tools/nios2eds/bin/gnu/H-i686-pc-linux-gnu/bin/../lib/gcc/nios2-elf/4.1.2/../../../../nios2-elf/lib/libc.a(lib_a-sprintf.o)
 .data          0x0084f47c        0x0 /OPT/altera/12.1/tools/nios2eds/bin/gnu/H-i686-pc-linux-gnu/bin/../lib/gcc/nios2-elf/4.1.2/../../../../nios2-elf/lib/libc.a(lib_a-sscanf.o)
 .data          0x0084f47c        0x0 /OPT/altera/12.1/tools/nios2eds/bin/gnu/H-i686-pc-linux-gnu/bin/../lib/gcc/nios2-elf/4.1.2/../../../../nios2-elf/lib/libc.a(lib_a-stdio.o)
 .data          0x0084f47c        0x0 /OPT/altera/12.1/tools/nios2eds/bin/gnu/H-i686-pc-linux-gnu/bin/../lib/gcc/nios2-elf/4.1.2/../../../../nios2-elf/lib/libc.a(lib_a-strcasecmp.o)
 .data          0x0084f47c        0x0 /OPT/altera/12.1/tools/nios2eds/bin/gnu/H-i686-pc-linux-gnu/bin/../lib/gcc/nios2-elf/4.1.2/../../../../nios2-elf/lib/libc.a(lib_a-strcat.o)
 .data          0x0084f47c        0x0 /OPT/altera/12.1/tools/nios2eds/bin/gnu/H-i686-pc-linux-gnu/bin/../lib/gcc/nios2-elf/4.1.2/../../../../nios2-elf/lib/libc.a(lib_a-strchr.o)
 .data          0x0084f47c        0x0 /OPT/altera/12.1/tools/nios2eds/bin/gnu/H-i686-pc-linux-gnu/bin/../lib/gcc/nios2-elf/4.1.2/../../../../nios2-elf/lib/libc.a(lib_a-strcmp.o)
 .data          0x0084f47c        0x0 /OPT/altera/12.1/tools/nios2eds/bin/gnu/H-i686-pc-linux-gnu/bin/../lib/gcc/nios2-elf/4.1.2/../../../../nios2-elf/lib/libc.a(lib_a-strcpy.o)
 .data          0x0084f47c        0x0 /OPT/altera/12.1/tools/nios2eds/bin/gnu/H-i686-pc-linux-gnu/bin/../lib/gcc/nios2-elf/4.1.2/../../../../nios2-elf/lib/libc.a(lib_a-strerror.o)
 .data          0x0084f47c        0x0 /OPT/altera/12.1/tools/nios2eds/bin/gnu/H-i686-pc-linux-gnu/bin/../lib/gcc/nios2-elf/4.1.2/../../../../nios2-elf/lib/libc.a(lib_a-strlen.o)
 .data          0x0084f47c        0x0 /OPT/altera/12.1/tools/nios2eds/bin/gnu/H-i686-pc-linux-gnu/bin/../lib/gcc/nios2-elf/4.1.2/../../../../nios2-elf/lib/libc.a(lib_a-strncmp.o)
 .data          0x0084f47c        0x0 /OPT/altera/12.1/tools/nios2eds/bin/gnu/H-i686-pc-linux-gnu/bin/../lib/gcc/nios2-elf/4.1.2/../../../../nios2-elf/lib/libc.a(lib_a-strncpy.o)
 .data          0x0084f47c        0x0 /OPT/altera/12.1/tools/nios2eds/bin/gnu/H-i686-pc-linux-gnu/bin/../lib/gcc/nios2-elf/4.1.2/../../../../nios2-elf/lib/libc.a(lib_a-strstr.o)
 .data          0x0084f47c        0x0 /OPT/altera/12.1/tools/nios2eds/bin/gnu/H-i686-pc-linux-gnu/bin/../lib/gcc/nios2-elf/4.1.2/../../../../nios2-elf/lib/libc.a(lib_a-strtok.o)
 .data          0x0084f47c        0x0 /OPT/altera/12.1/tools/nios2eds/bin/gnu/H-i686-pc-linux-gnu/bin/../lib/gcc/nios2-elf/4.1.2/../../../../nios2-elf/lib/libc.a(lib_a-strtok_r.o)
 .data          0x0084f47c        0x0 /OPT/altera/12.1/tools/nios2eds/bin/gnu/H-i686-pc-linux-gnu/bin/../lib/gcc/nios2-elf/4.1.2/../../../../nios2-elf/lib/libc.a(lib_a-strtol.o)
 .data          0x0084f47c        0x0 /OPT/altera/12.1/tools/nios2eds/bin/gnu/H-i686-pc-linux-gnu/bin/../lib/gcc/nios2-elf/4.1.2/../../../../nios2-elf/lib/libc.a(lib_a-u_strerr.o)
 .data          0x0084f47c        0x0 /OPT/altera/12.1/tools/nios2eds/bin/gnu/H-i686-pc-linux-gnu/bin/../lib/gcc/nios2-elf/4.1.2/../../../../nios2-elf/lib/libc.a(lib_a-vfprintf.o)
 .data          0x0084f47c        0x0 /OPT/altera/12.1/tools/nios2eds/bin/gnu/H-i686-pc-linux-gnu/bin/../lib/gcc/nios2-elf/4.1.2/../../../../nios2-elf/lib/libc.a(lib_a-vfscanf.o)
 .data          0x0084f47c        0x0 /OPT/altera/12.1/tools/nios2eds/bin/gnu/H-i686-pc-linux-gnu/bin/../lib/gcc/nios2-elf/4.1.2/../../../../nios2-elf/lib/libc.a(lib_a-writer.o)
 .data          0x0084f47c        0x0 /OPT/altera/12.1/tools/nios2eds/bin/gnu/H-i686-pc-linux-gnu/bin/../lib/gcc/nios2-elf/4.1.2/../../../../nios2-elf/lib/libc.a(lib_a-wsetup.o)
 .data          0x0084f47c        0x0 /OPT/altera/12.1/tools/nios2eds/bin/gnu/H-i686-pc-linux-gnu/bin/../lib/gcc/nios2-elf/4.1.2/../../../../nios2-elf/lib/libc.a(lib_a-closer.o)
 .data          0x0084f47c        0x0 /OPT/altera/12.1/tools/nios2eds/bin/gnu/H-i686-pc-linux-gnu/bin/../lib/gcc/nios2-elf/4.1.2/../../../../nios2-elf/lib/libc.a(lib_a-dtoa.o)
 .data          0x0084f47c        0x0 /OPT/altera/12.1/tools/nios2eds/bin/gnu/H-i686-pc-linux-gnu/bin/../lib/gcc/nios2-elf/4.1.2/../../../../nios2-elf/lib/libc.a(lib_a-flags.o)
 .data          0x0084f47c        0x0 /OPT/altera/12.1/tools/nios2eds/bin/gnu/H-i686-pc-linux-gnu/bin/../lib/gcc/nios2-elf/4.1.2/../../../../nios2-elf/lib/libc.a(lib_a-fputc.o)
 .data          0x0084f47c        0x0 /OPT/altera/12.1/tools/nios2eds/bin/gnu/H-i686-pc-linux-gnu/bin/../lib/gcc/nios2-elf/4.1.2/../../../../nios2-elf/lib/libc.a(lib_a-fputs.o)
 .data          0x0084f47c        0x0 /OPT/altera/12.1/tools/nios2eds/bin/gnu/H-i686-pc-linux-gnu/bin/../lib/gcc/nios2-elf/4.1.2/../../../../nios2-elf/lib/libc.a(lib_a-fvwrite.o)
 .data          0x0084f47c        0x0 /OPT/altera/12.1/tools/nios2eds/bin/gnu/H-i686-pc-linux-gnu/bin/../lib/gcc/nios2-elf/4.1.2/../../../../nios2-elf/lib/libc.a(lib_a-isattyr.o)
 .data          0x0084f47c        0x0 /OPT/altera/12.1/tools/nios2eds/bin/gnu/H-i686-pc-linux-gnu/bin/../lib/gcc/nios2-elf/4.1.2/../../../../nios2-elf/lib/libc.a(lib_a-iswspace.o)
 .data          0x0084f47c        0xc /OPT/altera/12.1/tools/nios2eds/bin/gnu/H-i686-pc-linux-gnu/bin/../lib/gcc/nios2-elf/4.1.2/../../../../nios2-elf/lib/libc.a(lib_a-locale.o)
                0x0084f47c                __lc_ctype
 .data          0x0084f488        0x0 /OPT/altera/12.1/tools/nios2eds/bin/gnu/H-i686-pc-linux-gnu/bin/../lib/gcc/nios2-elf/4.1.2/../../../../nios2-elf/lib/libc.a(lib_a-lseekr.o)
 .data          0x0084f488        0x0 /OPT/altera/12.1/tools/nios2eds/bin/gnu/H-i686-pc-linux-gnu/bin/../lib/gcc/nios2-elf/4.1.2/../../../../nios2-elf/lib/libc.a(lib_a-mbrtowc.o)
 .data          0x0084f488        0x0 /OPT/altera/12.1/tools/nios2eds/bin/gnu/H-i686-pc-linux-gnu/bin/../lib/gcc/nios2-elf/4.1.2/../../../../nios2-elf/lib/libc.a(lib_a-mbtowc_r.o)
 .data          0x0084f488        0x0 /OPT/altera/12.1/tools/nios2eds/bin/gnu/H-i686-pc-linux-gnu/bin/../lib/gcc/nios2-elf/4.1.2/../../../../nios2-elf/lib/libc.a(lib_a-memchr.o)
 .data          0x0084f488        0x0 /OPT/altera/12.1/tools/nios2eds/bin/gnu/H-i686-pc-linux-gnu/bin/../lib/gcc/nios2-elf/4.1.2/../../../../nios2-elf/lib/libc.a(lib_a-memcmp.o)
 .data          0x0084f488        0x0 /OPT/altera/12.1/tools/nios2eds/bin/gnu/H-i686-pc-linux-gnu/bin/../lib/gcc/nios2-elf/4.1.2/../../../../nios2-elf/lib/libc.a(lib_a-mprec.o)
 .data          0x0084f488        0x0 /OPT/altera/12.1/tools/nios2eds/bin/gnu/H-i686-pc-linux-gnu/bin/../lib/gcc/nios2-elf/4.1.2/../../../../nios2-elf/lib/libc.a(lib_a-putc.o)
 .data          0x0084f488        0x0 /OPT/altera/12.1/tools/nios2eds/bin/gnu/H-i686-pc-linux-gnu/bin/../lib/gcc/nios2-elf/4.1.2/../../../../nios2-elf/lib/libc.a(lib_a-readr.o)
 .data          0x0084f488        0x0 /OPT/altera/12.1/tools/nios2eds/bin/gnu/H-i686-pc-linux-gnu/bin/../lib/gcc/nios2-elf/4.1.2/../../../../nios2-elf/lib/libc.a(lib_a-reallocr.o)
 .data          0x0084f488        0x0 /OPT/altera/12.1/tools/nios2eds/bin/gnu/H-i686-pc-linux-gnu/bin/../lib/gcc/nios2-elf/4.1.2/../../../../nios2-elf/lib/libc.a(lib_a-s_isinfd.o)
 .data          0x0084f488        0x0 /OPT/altera/12.1/tools/nios2eds/bin/gnu/H-i686-pc-linux-gnu/bin/../lib/gcc/nios2-elf/4.1.2/../../../../nios2-elf/lib/libc.a(lib_a-s_isnand.o)
 .data          0x0084f488        0x0 /OPT/altera/12.1/tools/nios2eds/bin/gnu/H-i686-pc-linux-gnu/bin/../lib/gcc/nios2-elf/4.1.2/../../../../nios2-elf/lib/libc.a(lib_a-sccl.o)
 .data          0x0084f488        0x0 /OPT/altera/12.1/tools/nios2eds/bin/gnu/H-i686-pc-linux-gnu/bin/../lib/gcc/nios2-elf/4.1.2/../../../../nios2-elf/lib/libc.a(lib_a-sf_nan.o)
 .data          0x0084f488       0x28 /OPT/altera/12.1/tools/nios2eds/bin/gnu/H-i686-pc-linux-gnu/bin/../lib/gcc/nios2-elf/4.1.2/../../../../nios2-elf/lib/libc.a(lib_a-strtod.o)
 .data          0x0084f4b0        0x0 /OPT/altera/12.1/tools/nios2eds/bin/gnu/H-i686-pc-linux-gnu/bin/../lib/gcc/nios2-elf/4.1.2/../../../../nios2-elf/lib/libc.a(lib_a-strtoll_r.o)
 .data          0x0084f4b0        0x0 /OPT/altera/12.1/tools/nios2eds/bin/gnu/H-i686-pc-linux-gnu/bin/../lib/gcc/nios2-elf/4.1.2/../../../../nios2-elf/lib/libc.a(lib_a-strtoul.o)
 .data          0x0084f4b0        0x0 /OPT/altera/12.1/tools/nios2eds/bin/gnu/H-i686-pc-linux-gnu/bin/../lib/gcc/nios2-elf/4.1.2/../../../../nios2-elf/lib/libc.a(lib_a-strtoull_r.o)
 .data          0x0084f4b0        0x0 /OPT/altera/12.1/tools/nios2eds/bin/gnu/H-i686-pc-linux-gnu/bin/../lib/gcc/nios2-elf/4.1.2/../../../../nios2-elf/lib/libc.a(lib_a-ungetc.o)
 .data          0x0084f4b0        0x0 /OPT/altera/12.1/tools/nios2eds/bin/gnu/H-i686-pc-linux-gnu/bin/../lib/gcc/nios2-elf/4.1.2/../../../../nios2-elf/lib/libc.a(lib_a-wbuf.o)
 .data          0x0084f4b0        0x0 /OPT/altera/12.1/tools/nios2eds/bin/gnu/H-i686-pc-linux-gnu/bin/../lib/gcc/nios2-elf/4.1.2/../../../../nios2-elf/lib/libc.a(lib_a-callocr.o)
 .data          0x0084f4b0        0x0 /OPT/altera/12.1/tools/nios2eds/bin/gnu/H-i686-pc-linux-gnu/bin/../lib/gcc/nios2-elf/4.1.2/../../../../nios2-elf/lib/libc.a(lib_a-gdtoa-gethex.o)
 .data          0x0084f4b0        0x0 /OPT/altera/12.1/tools/nios2eds/bin/gnu/H-i686-pc-linux-gnu/bin/../lib/gcc/nios2-elf/4.1.2/../../../../nios2-elf/lib/libc.a(lib_a-gdtoa-hexnan.o)
 .data          0x0084f4b0        0x0 /OPT/altera/12.1/tools/nios2eds/bin/gnu/H-i686-pc-linux-gnu/bin/../lib/gcc/nios2-elf/4.1.2/libgcc.a(_muldi3.o)
 .data          0x0084f4b0        0x0 /OPT/altera/12.1/tools/nios2eds/bin/gnu/H-i686-pc-linux-gnu/bin/../lib/gcc/nios2-elf/4.1.2/libgcc.a(_fixunsdfsi.o)
 .data          0x0084f4b0        0x0 /OPT/altera/12.1/tools/nios2eds/bin/gnu/H-i686-pc-linux-gnu/bin/../lib/gcc/nios2-elf/4.1.2/libgcc.a(_udivdi3.o)
 .data          0x0084f4b0        0x0 /OPT/altera/12.1/tools/nios2eds/bin/gnu/H-i686-pc-linux-gnu/bin/../lib/gcc/nios2-elf/4.1.2/libgcc.a(_umoddi3.o)
 .data          0x0084f4b0        0x0 /OPT/altera/12.1/tools/nios2eds/bin/gnu/H-i686-pc-linux-gnu/bin/../lib/gcc/nios2-elf/4.1.2/libgcc.a(_ne_sf.o)
 .data          0x0084f4b0        0x0 /OPT/altera/12.1/tools/nios2eds/bin/gnu/H-i686-pc-linux-gnu/bin/../lib/gcc/nios2-elf/4.1.2/libgcc.a(_gt_sf.o)
 .data          0x0084f4b0        0x0 /OPT/altera/12.1/tools/nios2eds/bin/gnu/H-i686-pc-linux-gnu/bin/../lib/gcc/nios2-elf/4.1.2/libgcc.a(_lt_sf.o)
 .data          0x0084f4b0        0x0 /OPT/altera/12.1/tools/nios2eds/bin/gnu/H-i686-pc-linux-gnu/bin/../lib/gcc/nios2-elf/4.1.2/libgcc.a(_addsub_df.o)
 .data          0x0084f4b0        0x0 /OPT/altera/12.1/tools/nios2eds/bin/gnu/H-i686-pc-linux-gnu/bin/../lib/gcc/nios2-elf/4.1.2/libgcc.a(_mul_df.o)
 .data          0x0084f4b0        0x0 /OPT/altera/12.1/tools/nios2eds/bin/gnu/H-i686-pc-linux-gnu/bin/../lib/gcc/nios2-elf/4.1.2/libgcc.a(_div_df.o)
 .data          0x0084f4b0        0x0 /OPT/altera/12.1/tools/nios2eds/bin/gnu/H-i686-pc-linux-gnu/bin/../lib/gcc/nios2-elf/4.1.2/libgcc.a(_eq_df.o)
 .data          0x0084f4b0        0x0 /OPT/altera/12.1/tools/nios2eds/bin/gnu/H-i686-pc-linux-gnu/bin/../lib/gcc/nios2-elf/4.1.2/libgcc.a(_ne_df.o)
 .data          0x0084f4b0        0x0 /OPT/altera/12.1/tools/nios2eds/bin/gnu/H-i686-pc-linux-gnu/bin/../lib/gcc/nios2-elf/4.1.2/libgcc.a(_gt_df.o)
 .data          0x0084f4b0        0x0 /OPT/altera/12.1/tools/nios2eds/bin/gnu/H-i686-pc-linux-gnu/bin/../lib/gcc/nios2-elf/4.1.2/libgcc.a(_ge_df.o)
 .data          0x0084f4b0        0x0 /OPT/altera/12.1/tools/nios2eds/bin/gnu/H-i686-pc-linux-gnu/bin/../lib/gcc/nios2-elf/4.1.2/libgcc.a(_lt_df.o)
 .data          0x0084f4b0        0x0 /OPT/altera/12.1/tools/nios2eds/bin/gnu/H-i686-pc-linux-gnu/bin/../lib/gcc/nios2-elf/4.1.2/libgcc.a(_le_df.o)
 .data          0x0084f4b0        0x0 /OPT/altera/12.1/tools/nios2eds/bin/gnu/H-i686-pc-linux-gnu/bin/../lib/gcc/nios2-elf/4.1.2/libgcc.a(_si_to_df.o)
 .data          0x0084f4b0        0x0 /OPT/altera/12.1/tools/nios2eds/bin/gnu/H-i686-pc-linux-gnu/bin/../lib/gcc/nios2-elf/4.1.2/libgcc.a(_df_to_si.o)
 .data          0x0084f4b0        0x0 /OPT/altera/12.1/tools/nios2eds/bin/gnu/H-i686-pc-linux-gnu/bin/../lib/gcc/nios2-elf/4.1.2/libgcc.a(_df_to_sf.o)
 .data          0x0084f4b0        0x0 /OPT/altera/12.1/tools/nios2eds/bin/gnu/H-i686-pc-linux-gnu/bin/../lib/gcc/nios2-elf/4.1.2/libgcc.a(_thenan_df.o)
 .data          0x0084f4b0        0x0 /OPT/altera/12.1/tools/nios2eds/bin/gnu/H-i686-pc-linux-gnu/bin/../lib/gcc/nios2-elf/4.1.2/libgcc.a(_usi_to_df.o)
 .data          0x0084f4b0        0x0 /OPT/altera/12.1/tools/nios2eds/bin/gnu/H-i686-pc-linux-gnu/bin/../lib/gcc/nios2-elf/4.1.2/libgcc.a(_clz.o)
 .data          0x0084f4b0        0x0 /OPT/altera/12.1/tools/nios2eds/bin/gnu/H-i686-pc-linux-gnu/bin/../lib/gcc/nios2-elf/4.1.2/libgcc.a(_clzsi2.o)
 .data          0x0084f4b0        0x0 /OPT/altera/12.1/tools/nios2eds/bin/gnu/H-i686-pc-linux-gnu/bin/../lib/gcc/nios2-elf/4.1.2/libgcc.a(_unpack_sf.o)
 .data          0x0084f4b0        0x0 /OPT/altera/12.1/tools/nios2eds/bin/gnu/H-i686-pc-linux-gnu/bin/../lib/gcc/nios2-elf/4.1.2/libgcc.a(_fpcmp_parts_sf.o)
 .data          0x0084f4b0        0x0 /OPT/altera/12.1/tools/nios2eds/bin/gnu/H-i686-pc-linux-gnu/bin/../lib/gcc/nios2-elf/4.1.2/libgcc.a(_make_sf.o)
 .data          0x0084f4b0        0x0 /OPT/altera/12.1/tools/nios2eds/bin/gnu/H-i686-pc-linux-gnu/bin/../lib/gcc/nios2-elf/4.1.2/libgcc.a(_pack_df.o)
 .data          0x0084f4b0        0x0 /OPT/altera/12.1/tools/nios2eds/bin/gnu/H-i686-pc-linux-gnu/bin/../lib/gcc/nios2-elf/4.1.2/libgcc.a(_unpack_df.o)
 .data          0x0084f4b0        0x0 /OPT/altera/12.1/tools/nios2eds/bin/gnu/H-i686-pc-linux-gnu/bin/../lib/gcc/nios2-elf/4.1.2/libgcc.a(_fpcmp_parts_df.o)
 .data          0x0084f4b0        0x0 /OPT/altera/12.1/tools/nios2eds/bin/gnu/H-i686-pc-linux-gnu/bin/../lib/gcc/nios2-elf/4.1.2/libgcc.a(_pack_sf.o)
 .data          0x0084f4b0        0x0 ../G4Capstone_bsp//libucosii_bsp.a(alt_dcache_flush.o)
 .data          0x0084f4b0        0x0 ../G4Capstone_bsp//libucosii_bsp.a(alt_flash_dev.o)
 .data          0x0084f4b0        0x0 ../G4Capstone_bsp//libucosii_bsp.a(alt_fstat.o)
 .data          0x0084f4b0        0x0 ../G4Capstone_bsp//libucosii_bsp.a(alt_irq_register.o)
 .data          0x0084f4b0        0x0 ../G4Capstone_bsp//libucosii_bsp.a(alt_irq_vars.o)
 .data          0x0084f4b0        0x0 ../G4Capstone_bsp//libucosii_bsp.a(alt_isatty.o)
 .data          0x0084f4b0        0x0 ../G4Capstone_bsp//libucosii_bsp.a(alt_lseek.o)
 .data          0x0084f4b0        0x0 ../G4Capstone_bsp//libucosii_bsp.a(alt_main.o)
 .data          0x0084f4b0        0x0 ../G4Capstone_bsp//libucosii_bsp.a(alt_open.o)
 .data          0x0084f4b0        0x0 ../G4Capstone_bsp//libucosii_bsp.a(alt_release_fd.o)
 .data          0x0084f4b0        0x0 ../G4Capstone_bsp//libucosii_bsp.a(alt_sbrk.o)
 .data          0x0084f4b0        0x0 ../G4Capstone_bsp//libucosii_bsp.a(alt_tick.o)
 .data          0x0084f4b0        0x0 ../G4Capstone_bsp//libucosii_bsp.a(alt_usleep.o)
 .data          0x0084f4b0        0x0 ../G4Capstone_bsp//libucosii_bsp.a(alt_env_lock.o)
 .data          0x0084f4b0        0x0 ../G4Capstone_bsp//libucosii_bsp.a(alt_malloc_lock.o)
 .data          0x0084f4b0        0x0 ../G4Capstone_bsp//libucosii_bsp.a(os_core.o)
 .data          0x0084f4b0        0x0 ../G4Capstone_bsp//libucosii_bsp.a(os_dbg.o)
 .data          0x0084f4b0        0x0 ../G4Capstone_bsp//libucosii_bsp.a(os_flag.o)
 .data          0x0084f4b0        0x0 ../G4Capstone_bsp//libucosii_bsp.a(os_mbox.o)
 .data          0x0084f4b0        0x0 ../G4Capstone_bsp//libucosii_bsp.a(os_mem.o)
 .data          0x0084f4b0        0x0 ../G4Capstone_bsp//libucosii_bsp.a(os_q.o)
 .data          0x0084f4b0        0x0 ../G4Capstone_bsp//libucosii_bsp.a(os_sem.o)
 .data          0x0084f4b0        0x0 ../G4Capstone_bsp//libucosii_bsp.a(os_task.o)
 .data          0x0084f4b0        0x0 ../G4Capstone_bsp//libucosii_bsp.a(os_time.o)
 .data          0x0084f4b0     0x10f8 ../G4Capstone_bsp//libucosii_bsp.a(alt_sys_init.o)
 .data          0x008505a8        0x0 ../G4Capstone_bsp//libucosii_bsp.a(altera_avalon_jtag_uart_fd.o)
 .data          0x008505a8        0x0 ../G4Capstone_bsp//libucosii_bsp.a(altera_avalon_jtag_uart_init.o)
 .data          0x008505a8        0x0 ../G4Capstone_bsp//libucosii_bsp.a(altera_avalon_jtag_uart_ioctl.o)
 .data          0x008505a8        0x0 ../G4Capstone_bsp//libucosii_bsp.a(altera_avalon_jtag_uart_read.o)
 .data          0x008505a8        0x0 ../G4Capstone_bsp//libucosii_bsp.a(altera_avalon_jtag_uart_write.o)
 .data          0x008505a8        0x0 ../G4Capstone_bsp//libucosii_bsp.a(altera_avalon_timer_sc.o)
 .data          0x008505a8        0x0 ../G4Capstone_bsp//libucosii_bsp.a(altera_ro_zipfs.o)
 .data          0x008505a8        0x0 ../G4Capstone_bsp//libucosii_bsp.a(altera_up_avalon_audio_and_video_config.o)
 .data          0x008505a8        0x0 ../G4Capstone_bsp//libucosii_bsp.a(altera_up_avalon_character_lcd.o)
 .data          0x008505a8        0x0 ../G4Capstone_bsp//libucosii_bsp.a(alt_iniche_close.o)
 .data          0x008505a8        0x0 ../G4Capstone_bsp//libucosii_bsp.a(alt_iniche_dev.o)
 .data          0x008505a8        0x0 ../G4Capstone_bsp//libucosii_bsp.a(alt_iniche_read.o)
 .data          0x008505a8        0x0 ../G4Capstone_bsp//libucosii_bsp.a(alt_iniche_write.o)
 .data          0x008505a8        0x0 ../G4Capstone_bsp//libucosii_bsp.a(ipnet.o)
 .data          0x008505a8        0x0 ../G4Capstone_bsp//libucosii_bsp.a(ipstart.o)
 .data          0x008505a8        0x0 ../G4Capstone_bsp//libucosii_bsp.a(igmp_cmn.o)
 .data          0x008505a8        0x0 ../G4Capstone_bsp//libucosii_bsp.a(bsdsock.o)
 .data          0x008505a8        0x0 ../G4Capstone_bsp//libucosii_bsp.a(cksum.o)
 .data          0x008505a8        0x0 ../G4Capstone_bsp//libucosii_bsp.a(in_utils.o)
 .data          0x008505a8       0x30 ../G4Capstone_bsp//libucosii_bsp.a(netmain.o)
                0x008505a8                nettasks
 .data          0x008505d8        0x0 ../G4Capstone_bsp//libucosii_bsp.a(tk_crnos.o)
 .data          0x008505d8        0x0 ../G4Capstone_bsp//libucosii_bsp.a(dhcpclnt.o)
 .data          0x008505d8        0x0 ../G4Capstone_bsp//libucosii_bsp.a(dhcputil.o)
 .data          0x008505d8        0x0 ../G4Capstone_bsp//libucosii_bsp.a(pktalloc.o)
 .data          0x008505d8        0x0 ../G4Capstone_bsp//libucosii_bsp.a(q.o)
 .data          0x008505d8        0x0 ../G4Capstone_bsp//libucosii_bsp.a(udp_open.o)
 .data          0x008505d8        0x0 ../G4Capstone_bsp//libucosii_bsp.a(asm_cksum.o)
 .data          0x008505d8        0x0 ../G4Capstone_bsp//libucosii_bsp.a(brdutils.o)
 .data          0x008505d8        0x0 ../G4Capstone_bsp//libucosii_bsp.a(osportco.o)
 .data          0x008505d8        0x0 ../G4Capstone_bsp//libucosii_bsp.a(targnios.o)
 .data          0x008505d8       0x48 ../G4Capstone_bsp//libucosii_bsp.a(nptcp.o)
                0x008505d8                tcp_protosw
                0x008505f0                udp_protosw
                0x00850608                rawip_protosw
 .data          0x00850620        0x0 ../G4Capstone_bsp//libucosii_bsp.a(rawsock.o)
 .data          0x00850620        0x0 ../G4Capstone_bsp//libucosii_bsp.a(sockcall.o)
 .data          0x00850620        0x0 ../G4Capstone_bsp//libucosii_bsp.a(socket.o)
 .data          0x00850620        0x0 ../G4Capstone_bsp//libucosii_bsp.a(socket2.o)
 .data          0x00850620        0x0 ../G4Capstone_bsp//libucosii_bsp.a(soselect.o)
 .data          0x00850620        0x0 ../G4Capstone_bsp//libucosii_bsp.a(tcp_in.o)
 .data          0x00850620        0xb ../G4Capstone_bsp//libucosii_bsp.a(tcp_out.o)
                0x00850620                tcp_outflags
 .data          0x0085062b        0x0 ../G4Capstone_bsp//libucosii_bsp.a(tcp_subr.o)
 .data          0x0085062b        0xd ../G4Capstone_bsp//libucosii_bsp.a(tcp_timr.o)
                0x0085062b                tcp_backoff
 .data          0x00850638        0x0 ../G4Capstone_bsp//libucosii_bsp.a(tcp_usr.o)
 .data          0x00850638        0x0 ../G4Capstone_bsp//libucosii_bsp.a(tcpport.o)
 .data          0x00850638        0x0 ../G4Capstone_bsp//libucosii_bsp.a(udpsock.o)
 .data          0x00850638        0x0 ../G4Capstone_bsp//libucosii_bsp.a(alt_alarm_start.o)
 .data          0x00850638        0x0 ../G4Capstone_bsp//libucosii_bsp.a(alt_busy_sleep.o)
 .data          0x00850638        0x0 ../G4Capstone_bsp//libucosii_bsp.a(alt_close.o)
 .data          0x00850638      0x1a8 ../G4Capstone_bsp//libucosii_bsp.a(alt_dev.o)
                0x00850638                alt_dev_null
                0x00850660                alt_fd_list
 .data          0x008507e0        0x0 ../G4Capstone_bsp//libucosii_bsp.a(alt_dev_llist_insert.o)
 .data          0x008507e0        0x0 ../G4Capstone_bsp//libucosii_bsp.a(alt_do_ctors.o)
 .data          0x008507e0        0x0 ../G4Capstone_bsp//libucosii_bsp.a(alt_do_dtors.o)
 .data          0x008507e0        0x0 ../G4Capstone_bsp//libucosii_bsp.a(alt_errno.o)
 .data          0x008507e0        0x0 ../G4Capstone_bsp//libucosii_bsp.a(alt_find_dev.o)
 .data          0x008507e0        0x0 ../G4Capstone_bsp//libucosii_bsp.a(alt_find_file.o)
 .data          0x008507e0        0x0 ../G4Capstone_bsp//libucosii_bsp.a(alt_fs_reg.o)
 .data          0x008507e0        0x0 ../G4Capstone_bsp//libucosii_bsp.a(alt_get_fd.o)
 .data          0x008507e0        0x0 ../G4Capstone_bsp//libucosii_bsp.a(alt_iic.o)
 .data          0x008507e0        0x0 ../G4Capstone_bsp//libucosii_bsp.a(alt_iic_isr_register.o)
 .data          0x008507e0        0x0 ../G4Capstone_bsp//libucosii_bsp.a(alt_io_redirect.o)
 .data          0x008507e0        0x0 ../G4Capstone_bsp//libucosii_bsp.a(alt_irq_entry.o)
 .data          0x008507e0        0x0 ../G4Capstone_bsp//libucosii_bsp.a(alt_irq_handler.o)
 .data          0x008507e0        0x0 ../G4Capstone_bsp//libucosii_bsp.a(alt_read.o)
 .data          0x008507e0        0x0 ../G4Capstone_bsp//libucosii_bsp.a(alt_remap_cached.o)
 .data          0x008507e0        0x0 ../G4Capstone_bsp//libucosii_bsp.a(alt_remap_uncached.o)
 .data          0x008507e0        0x0 ../G4Capstone_bsp//libucosii_bsp.a(alt_write.o)
 .data          0x008507e0        0x0 ../G4Capstone_bsp//libucosii_bsp.a(altera_nios2_qsys_irq.o)
 .data          0x008507e0        0x0 ../G4Capstone_bsp//libucosii_bsp.a(os_cpu_a.o)
 .data          0x008507e0        0x0 ../G4Capstone_bsp//libucosii_bsp.a(os_cpu_c.o)
 .data          0x008507e0       0x18 ../G4Capstone_bsp//libucosii_bsp.a(allports.o)
                0x008507e0                icmpdu_types
 .data          0x008507f8        0x0 ../G4Capstone_bsp//libucosii_bsp.a(timeouts.o)
 .data          0x008507f8        0x0 ../G4Capstone_bsp//libucosii_bsp.a(tk_misc.o)
 .data          0x008507f8        0x0 ../G4Capstone_bsp//libucosii_bsp.a(alt_iniche_fcntl.o)
 .data          0x008507f8        0x0 ../G4Capstone_bsp//libucosii_bsp.a(et_arp.o)
 .data          0x008507f8        0x0 ../G4Capstone_bsp//libucosii_bsp.a(iface.o)
 .data          0x008507f8        0x0 ../G4Capstone_bsp//libucosii_bsp.a(ip.o)
 .data          0x008507f8        0x0 ../G4Capstone_bsp//libucosii_bsp.a(ip_reasm.o)
 .data          0x008507f8        0x0 ../G4Capstone_bsp//libucosii_bsp.a(ipdemux.o)
 .data          0x008507f8        0x0 ../G4Capstone_bsp//libucosii_bsp.a(ipmc.o)
 .data          0x008507f8        0x0 ../G4Capstone_bsp//libucosii_bsp.a(ipport.o)
 .data          0x008507f8        0x0 ../G4Capstone_bsp//libucosii_bsp.a(ipraw.o)
 .data          0x008507f8        0x9 ../G4Capstone_bsp//libucosii_bsp.a(iproute.o)
                0x008507f8                rtp_priority
 .data          0x00850801        0x0 ../G4Capstone_bsp//libucosii_bsp.a(udp.o)
 .data          0x00850801        0x0 ../G4Capstone_bsp//libucosii_bsp.a(igmp.o)
 .data          0x00850801        0x0 ../G4Capstone_bsp//libucosii_bsp.a(igmp2.o)
 .data          0x00850801        0x0 ../G4Capstone_bsp//libucosii_bsp.a(ipopt.o)
 .data          0x00850801        0x0 ../G4Capstone_bsp//libucosii_bsp.a(u_mctest.o)
 .data          0x00850801        0x0 ../G4Capstone_bsp//libucosii_bsp.a(dhcsetup.o)
 *fill*         0x00850801        0x3 00
 .data          0x00850804       0xd4 ../G4Capstone_bsp//libucosii_bsp.a(memdev.o)
                0x00850804                mdio
                0x00850828                mdlist
 .data          0x008508d8        0x0 ../G4Capstone_bsp//libucosii_bsp.a(parseip.o)
 .data          0x008508d8        0x0 ../G4Capstone_bsp//libucosii_bsp.a(tcpcksum.o)
 .data          0x008508d8        0x0 ../G4Capstone_bsp//libucosii_bsp.a(in_pcb.o)
 .data          0x008508d8       0x80 ../G4Capstone_bsp//libucosii_bsp.a(vfsfiles.o)
                0x008508d8                vfs_root_path
 .data          0x00850958        0x0 ../G4Capstone_bsp//libucosii_bsp.a(vfsport.o)
 .data          0x00850958        0x0 ../G4Capstone_bsp//libucosii_bsp.a(alt_exception_entry.o)
 .data          0x00850958        0x0 ../G4Capstone_bsp//libucosii_bsp.a(alt_fcntl.o)
 .data          0x00850958       0x18 ../G4Capstone_bsp//libucosii_bsp.a(icmp.o)
 .data          0x00850970        0x0 /OPT/altera/12.1/tools/nios2eds/bin/gnu/H-i686-pc-linux-gnu/bin/../lib/gcc/nios2-elf/4.1.2/../../../../nios2-elf/lib/libc.a(lib_a-atexit.o)
 .data          0x00850970        0x0 /OPT/altera/12.1/tools/nios2eds/bin/gnu/H-i686-pc-linux-gnu/bin/../lib/gcc/nios2-elf/4.1.2/../../../../nios2-elf/lib/libc.a(lib_a-calloc.o)
 .data          0x00850970        0x0 /OPT/altera/12.1/tools/nios2eds/bin/gnu/H-i686-pc-linux-gnu/bin/../lib/gcc/nios2-elf/4.1.2/../../../../nios2-elf/lib/libc.a(lib_a-exit.o)
 .data          0x00850970        0x0 /OPT/altera/12.1/tools/nios2eds/bin/gnu/H-i686-pc-linux-gnu/bin/../lib/gcc/nios2-elf/4.1.2/../../../../nios2-elf/lib/libc.a(lib_a-getc.o)
 .data          0x00850970        0x0 /OPT/altera/12.1/tools/nios2eds/bin/gnu/H-i686-pc-linux-gnu/bin/../lib/gcc/nios2-elf/4.1.2/../../../../nios2-elf/lib/libc.a(lib_a-malloc.o)
 .data          0x00850970        0x0 /OPT/altera/12.1/tools/nios2eds/bin/gnu/H-i686-pc-linux-gnu/bin/../lib/gcc/nios2-elf/4.1.2/../../../../nios2-elf/lib/libc.a(lib_a-rget.o)
 .data          0x00850970        0x0 /OPT/altera/12.1/tools/nios2eds/bin/gnu/H-i686-pc-linux-gnu/bin/../lib/gcc/nios2-elf/4.1.2/../../../../nios2-elf/lib/libc.a(lib_a-vprintf.o)
 .data          0x00850970        0x0 /OPT/altera/12.1/tools/nios2eds/bin/gnu/H-i686-pc-linux-gnu/bin/../lib/gcc/nios2-elf/4.1.2/../../../../nios2-elf/lib/libc.a(lib_a-vsprintf.o)
 .data          0x00850970        0x0 /OPT/altera/12.1/tools/nios2eds/bin/gnu/H-i686-pc-linux-gnu/bin/../lib/gcc/nios2-elf/4.1.2/../../../../nios2-elf/lib/libc.a(lib_a-__atexit.o)
 .data          0x00850970        0x0 /OPT/altera/12.1/tools/nios2eds/bin/gnu/H-i686-pc-linux-gnu/bin/../lib/gcc/nios2-elf/4.1.2/../../../../nios2-elf/lib/libc.a(lib_a-__call_atexit.o)
 .data          0x00850970        0x0 ../G4Capstone_bsp//libucosii_bsp.a(alt_exit.o)
                0x00858970                _gp = ABSOLUTE ((. + 0x8000))
                0x00858970                PROVIDE (gp, _gp)
 *(.rwdata .rwdata.*)
 *(.sdata .sdata.* .gnu.linkonce.s.*)
 .sdata         0x00850970       0x28 obj/default/http.o
                0x00850970                mapping
                0x00850978                sweep_field
                0x00850980                lcd_field
                0x00850988                upload_field
                0x00850990                flash_field
 .sdata         0x00850998        0x4 /OPT/altera/12.1/tools/nios2eds/bin/gnu/H-i686-pc-linux-gnu/bin/../lib/gcc/nios2-elf/4.1.2/../../../../nios2-elf/lib/libc.a(lib_a-ctype_.o)
                0x00850998                __ctype_ptr
 .sdata         0x0085099c        0x8 /OPT/altera/12.1/tools/nios2eds/bin/gnu/H-i686-pc-linux-gnu/bin/../lib/gcc/nios2-elf/4.1.2/../../../../nios2-elf/lib/libc.a(lib_a-impure.o)
                0x0085099c                _impure_ptr
                0x008509a0                _global_impure_ptr
 .sdata         0x008509a4        0x8 /OPT/altera/12.1/tools/nios2eds/bin/gnu/H-i686-pc-linux-gnu/bin/../lib/gcc/nios2-elf/4.1.2/../../../../nios2-elf/lib/libc.a(lib_a-mallocr.o)
                0x008509a4                __malloc_trim_threshold
                0x008509a8                __malloc_sbrk_base
 .sdata         0x008509ac        0x8 /OPT/altera/12.1/tools/nios2eds/bin/gnu/H-i686-pc-linux-gnu/bin/../lib/gcc/nios2-elf/4.1.2/../../../../nios2-elf/lib/libc.a(lib_a-locale.o)
                0x008509ac                __mb_cur_max
 .sdata         0x008509b4        0x8 ../G4Capstone_bsp//libucosii_bsp.a(alt_flash_dev.o)
                0x008509b4                alt_flash_dev_list
 .sdata         0x008509bc        0x4 ../G4Capstone_bsp//libucosii_bsp.a(alt_irq_vars.o)
                0x008509bc                alt_priority_mask
 .sdata         0x008509c0        0x4 ../G4Capstone_bsp//libucosii_bsp.a(alt_sbrk.o)
 .sdata         0x008509c4        0x8 ../G4Capstone_bsp//libucosii_bsp.a(alt_tick.o)
                0x008509c4                alt_alarm_list
 .sdata         0x008509cc        0x4 ../G4Capstone_bsp//libucosii_bsp.a(alt_env_lock.o)
 .sdata         0x008509d0        0x4 ../G4Capstone_bsp//libucosii_bsp.a(alt_malloc_lock.o)
 .sdata         0x008509d4       0x74 ../G4Capstone_bsp//libucosii_bsp.a(os_dbg.o)
                0x008509d4                OSDebugEn
                0x008509d8                OSEndiannessTest
                0x008509dc                OSEventEn
                0x008509de                OSEventMax
                0x008509e0                OSEventNameSize
                0x008509e2                OSEventSize
                0x008509e4                OSEventTblSize
                0x008509e6                OSEventMultiEn
                0x008509e8                OSFlagEn
                0x008509ea                OSFlagGrpSize
                0x008509ec                OSFlagNodeSize
                0x008509ee                OSFlagWidth
                0x008509f0                OSFlagMax
                0x008509f2                OSFlagNameSize
                0x008509f4                OSLowestPrio
                0x008509f6                OSMboxEn
                0x008509f8                OSMemEn
                0x008509fa                OSMemMax
                0x008509fc                OSMemNameSize
                0x008509fe                OSMemSize
                0x00850a00                OSMemTblSize
                0x00850a02                OSMutexEn
                0x00850a04                OSPtrSize
                0x00850a06                OSQEn
                0x00850a08                OSQMax
                0x00850a0a                OSQSize
                0x00850a0c                OSRdyTblSize
                0x00850a0e                OSSemEn
                0x00850a10                OSStkWidth
                0x00850a12                OSTaskCreateEn
                0x00850a14                OSTaskCreateExtEn
                0x00850a16                OSTaskDelEn
                0x00850a18                OSTaskIdleStkSize
                0x00850a1a                OSTaskProfileEn
                0x00850a1c                OSTaskMax
                0x00850a1e                OSTaskNameSize
                0x00850a20                OSTaskStatEn
                0x00850a22                OSTaskStatStkSize
                0x00850a24                OSTaskStatStkChkEn
                0x00850a26                OSTaskSwHookEn
                0x00850a28                OSTCBPrioTblMax
                0x00850a2a                OSTCBSize
                0x00850a2c                OSTicksPerSec
                0x00850a2e                OSTimeTickHookEn
                0x00850a30                OSVersionNbr
                0x00850a32                OSTmrEn
                0x00850a34                OSTmrCfgMax
                0x00850a36                OSTmrCfgNameSize
                0x00850a38                OSTmrCfgWheelSize
                0x00850a3a                OSTmrCfgTicksPerSec
                0x00850a3c                OSTmrSize
                0x00850a3e                OSTmrTblSize
                0x00850a40                OSTmrWheelSize
                0x00850a42                OSTmrWheelTblSize
                0x00850a44                OSDataSize
 .sdata         0x00850a48        0x8 ../G4Capstone_bsp//libucosii_bsp.a(alt_iniche_dev.o)
                0x00850a48                alt_iniche_dev_list
 .sdata         0x00850a50        0x4 ../G4Capstone_bsp//libucosii_bsp.a(ipstart.o)
                0x00850a50                ipmcfail_str
 .sdata         0x00850a54        0x4 ../G4Capstone_bsp//libucosii_bsp.a(cksum.o)
 .sdata         0x00850a58        0x4 ../G4Capstone_bsp//libucosii_bsp.a(netmain.o)
                0x00850a58                num_net_tasks
 .sdata         0x00850a5c        0xc ../G4Capstone_bsp//libucosii_bsp.a(dhcpclnt.o)
                0x00850a5c                xids
                0x00850a60                reqlist
                0x00850a64                reqlist_len
 .sdata         0x00850a68       0x10 ../G4Capstone_bsp//libucosii_bsp.a(pktalloc.o)
                0x00850a68                lilbufs
                0x00850a6c                lilbufsiz
                0x00850a70                bigbufs
                0x00850a74                bigbufsiz
 .sdata         0x00850a78        0x4 ../G4Capstone_bsp//libucosii_bsp.a(brdutils.o)
                0x00850a78                kb_last
 .sdata         0x00850a7c        0x4 ../G4Capstone_bsp//libucosii_bsp.a(nptcp.o)
                0x00850a7c                TCPTV_MSL
 .sdata         0x00850a80        0x2 ../G4Capstone_bsp//libucosii_bsp.a(socket.o)
                0x00850a80                socket_defaults
 .sdata         0x00850a82        0x1 ../G4Capstone_bsp//libucosii_bsp.a(tcp_in.o)
                0x00850a82                tcprexmtthresh
 *fill*         0x00850a83        0x1 00
 .sdata         0x00850a84        0x4 ../G4Capstone_bsp//libucosii_bsp.a(tcp_subr.o)
                0x00850a84                tcp_ttl
 .sdata         0x00850a88        0x8 ../G4Capstone_bsp//libucosii_bsp.a(tcp_timr.o)
                0x00850a88                tcp_keepidle
                0x00850a8c                tcp_keepintvl
 .sdata         0x00850a90        0x8 ../G4Capstone_bsp//libucosii_bsp.a(tcp_usr.o)
                0x00850a90                tcp_sendspace
                0x00850a94                tcp_recvspace
 .sdata         0x00850a98       0x14 ../G4Capstone_bsp//libucosii_bsp.a(alt_dev.o)
                0x00850a98                alt_fs_list
                0x00850aa0                alt_dev_list
                0x00850aa8                alt_max_fd
 .sdata         0x00850aac        0x4 ../G4Capstone_bsp//libucosii_bsp.a(alt_errno.o)
                0x00850aac                alt_errno
 .sdata         0x00850ab0       0x10 ../G4Capstone_bsp//libucosii_bsp.a(allports.o)
                0x00850ab0                name
                0x00850ab4                prompt
                0x00850ab8                pingdelay
                0x00850abc                deflength
 .sdata         0x00850ac0        0x4 ../G4Capstone_bsp//libucosii_bsp.a(et_arp.o)
                0x00850ac0                arp_ageout
 .sdata         0x00850ac4        0x8 ../G4Capstone_bsp//libucosii_bsp.a(ip.o)
                0x00850ac8                ipRoutes
 .sdata         0x00850acc        0x4 ../G4Capstone_bsp//libucosii_bsp.a(u_mctest.o)
 .sdata         0x00850ad0        0x4 ../G4Capstone_bsp//libucosii_bsp.a(memdev.o)
                0x00850ad0                mdlist_size
 .sdata         0x00850ad4        0x4 ../G4Capstone_bsp//libucosii_bsp.a(parseip.o)
                0x00850ad4                pton_error
 .sdata         0x00850ad8        0x4 ../G4Capstone_bsp//libucosii_bsp.a(vfsfiles.o)
                0x00850ad8                http_root_path
 *(.sdata2 .sdata2.* .gnu.linkonce.s2.*)
                0x00850adc                . = ALIGN (0x4)
                0x00850adc                _edata = ABSOLUTE (.)
                0x00850adc                PROVIDE (edata, ABSOLUTE (.))
                0x00850adc                PROVIDE (__ram_rwdata_end, ABSOLUTE (.))
                0x0084ec5c                PROVIDE (__flash_rwdata_start, LOADADDR (.rwdata))

.bss            0x00850adc   0x5e7eb4
                0x00850adc                __bss_start = ABSOLUTE (.)
                0x00850adc                PROVIDE (__sbss_start, ABSOLUTE (.))
                0x00850adc                PROVIDE (___sbss_start, ABSOLUTE (.))
 *(.dynsbss)
 *(.sbss .sbss.* .gnu.linkonce.sb.*)
 .sbss          0x00850adc        0x8 obj/default/dm9000a.o
                0x00850adc                autoReset
                0x00850ae0                netisrs
 .sbss          0x00850ae4        0x8 obj/default/network_utilities.o
                0x00850ae4                last_flash_sector_offset
                0x00850ae8                last_flash_sector
 .sbss          0x00850aec        0x8 obj/default/srec_flash.o
                0x00850aec                line_count
                0x00850af0                current_flash_block
 .sbss          0x00850af4        0x9 obj/default/web_server.o
                0x00850af4                QUEUE
                0x00850af8                board_control_mbox
                0x00850afc                to_wstask
 *fill*         0x00850afd        0x3 00
 .sbss          0x00850b00        0x4 /OPT/altera/12.1/tools/nios2eds/bin/gnu/H-i686-pc-linux-gnu/bin/../lib/gcc/nios2-elf/4.1.2/../../../../nios2-elf/lib/libc.a(lib_a-int_errno.o)
                0x00850b00                errno
 .sbss          0x00850b04        0xc /OPT/altera/12.1/tools/nios2eds/bin/gnu/H-i686-pc-linux-gnu/bin/../lib/gcc/nios2-elf/4.1.2/../../../../nios2-elf/lib/libc.a(lib_a-mallocr.o)
                0x00850b04                __malloc_top_pad
                0x00850b08                __malloc_max_sbrked_mem
                0x00850b0c                __malloc_max_total_mem
 .sbss          0x00850b10        0xc /OPT/altera/12.1/tools/nios2eds/bin/gnu/H-i686-pc-linux-gnu/bin/../lib/gcc/nios2-elf/4.1.2/../../../../nios2-elf/lib/libc.a(lib_a-locale.o)
                0x00850b10                __nlocale_changed
                0x00850b14                __mlocale_changed
                0x00850b18                _PathLocale
 .sbss          0x00850b1c        0x4 ../G4Capstone_bsp//libucosii_bsp.a(alt_irq_vars.o)
                0x00850b1c                alt_irq_active
 .sbss          0x00850b20        0xc ../G4Capstone_bsp//libucosii_bsp.a(alt_main.o)
                0x00850b20                alt_argc
                0x00850b24                alt_argv
                0x00850b28                alt_envp
 .sbss          0x00850b2c        0x8 ../G4Capstone_bsp//libucosii_bsp.a(alt_tick.o)
                0x00850b2c                _alt_tick_rate
                0x00850b30                _alt_nticks
 .sbss          0x00850b34        0x8 ../G4Capstone_bsp//libucosii_bsp.a(alt_env_lock.o)
                0x00850b38                alt_envsem
 .sbss          0x00850b3c        0x8 ../G4Capstone_bsp//libucosii_bsp.a(alt_malloc_lock.o)
                0x00850b40                alt_heapsem
 .sbss          0x00850b44       0x50 ../G4Capstone_bsp//libucosii_bsp.a(os_core.o)
                0x00850b44                OSLockNesting
                0x00850b45                OSRunning
                0x00850b48                OSIdleCtr
                0x00850b4c                OSPrioHighRdy
                0x00850b4d                OSPrioCur
                0x00850b50                OSTCBList
                0x00850b54                OSTickStepState
                0x00850b58                OSCtxSwCtr
                0x00850b5c                OSIdleCtrMax
                0x00850b60                OSTCBFreeList
                0x00850b64                OSCPUUsage
                0x00850b65                OSTaskCtr
                0x00850b68                OSMemFreeList
                0x00850b6c                OSTCBHighRdy
                0x00850b70                OSQFreeList
                0x00850b74                OSRdyGrp
                0x00850b75                OSRdyTbl
                0x00850b78                OSEventFreeList
                0x00850b7c                OSIntNesting
                0x00850b80                OSTCBCur
                0x00850b84                OSTime
                0x00850b88                OSFlagFreeList
                0x00850b8c                OSStatRdy
                0x00850b90                OSIdleCtrRun
 .sbss          0x00850b94        0xc ../G4Capstone_bsp//libucosii_bsp.a(ipnet.o)
                0x00850b94                MaxLnh
                0x00850b98                MaxMtu
                0x00850b9c                NDEBUG
 .sbss          0x00850ba0        0x8 ../G4Capstone_bsp//libucosii_bsp.a(ipstart.o)
                0x00850ba0                ifNumber
 .sbss          0x00850ba8       0x10 ../G4Capstone_bsp//libucosii_bsp.a(igmp_cmn.o)
                0x00850ba8                igmp_timers_are_running
                0x00850bac                igmp_cticks
                0x00850bb0                igmp_all_hosts_group
                0x00850bb4                igmp_all_rtrs_group
 .sbss          0x00850bb8        0xe ../G4Capstone_bsp//libucosii_bsp.a(netmain.o)
                0x00850bb8                netmain_wakes
                0x00850bbc                nettick_wakes
                0x00850bc0                iniche_net_ready
                0x00850bc4                to_netmain
                0x00850bc5                to_nettick
 *fill*         0x00850bc6        0x2 00
 .sbss          0x00850bc8        0x4 ../G4Capstone_bsp//libucosii_bsp.a(tk_crnos.o)
                0x00850bc8                tcp_sleep_timeout
 .sbss          0x00850bcc       0x34 ../G4Capstone_bsp//libucosii_bsp.a(dhcpclnt.o)
                0x00850bcc                dhc_conn
                0x00850bd0                dsc_errors
                0x00850bd4                dsc_discovers
                0x00850bd8                dsc_offers
                0x00850bdc                dsc_requests
                0x00850be0                dsc_acks
                0x00850be4                dsc_bpreplys
                0x00850be8                dsc_declines
                0x00850bec                dsc_releases
                0x00850bf0                dsc_naks
                0x00850bf4                dsc_renew
                0x00850bf8                dsc_rebind
                0x00850bfc                dsc_rlyerrs
 .sbss          0x00850c00        0x4 ../G4Capstone_bsp//libucosii_bsp.a(udp_open.o)
                0x00850c00                firstudp
 .sbss          0x00850c04       0x18 ../G4Capstone_bsp//libucosii_bsp.a(brdutils.o)
                0x00850c08                cticks_initialized
                0x00850c0c                irq_level
                0x00850c14                cticks_factor
                0x00850c18                OS_TPS
 .sbss          0x00850c1c       0x18 ../G4Capstone_bsp//libucosii_bsp.a(osportco.o)
                0x00850c1c                tcp_sleep_count
                0x00850c20                tcp_wakeup_count
                0x00850c24                netq_intmask
                0x00850c28                old_mode
                0x00850c2c                global_TCPwakeup_setIndx
                0x00850c30                cticks
 .sbss          0x00850c34        0xc ../G4Capstone_bsp//libucosii_bsp.a(targnios.o)
                0x00850c34                memtrapsize
                0x00850c38                mheap_sem_ptr
                0x00850c3c                rcvdq_sem_ptr
 .sbss          0x00850c40       0x12 ../G4Capstone_bsp//libucosii_bsp.a(nptcp.o)
                0x00850c40                nextslow
                0x00850c48                mbstat
                0x00850c50                select_wait
 *fill*         0x00850c52        0x2 00
 .sbss          0x00850c54        0x8 ../G4Capstone_bsp//libucosii_bsp.a(tcp_in.o)
                0x00850c54                tcpprintfs
                0x00850c58                dropline
 .sbss          0x00850c5c        0x4 ../G4Capstone_bsp//libucosii_bsp.a(tcp_out.o)
                0x00850c5c                tcp_optionbuf
 .sbss          0x00850c60        0x8 ../G4Capstone_bsp//libucosii_bsp.a(tcp_timr.o)
                0x00850c60                tcp_maxidle
                0x00850c64                tcp_iss
 .sbss          0x00850c68        0x4 ../G4Capstone_bsp//libucosii_bsp.a(alt_dev.o)
                0x00850c68                alt_fd_list_lock
 .sbss          0x00850c6c        0x8 ../G4Capstone_bsp//libucosii_bsp.a(allports.o)
                0x00850c6c                activehost
 .sbss          0x00850c74        0xc ../G4Capstone_bsp//libucosii_bsp.a(timeouts.o)
                0x00850c74                nextppp
                0x00850c78                port_1s_callout
 .sbss          0x00850c80       0x1c ../G4Capstone_bsp//libucosii_bsp.a(et_arp.o)
                0x00850c84                arpcache
                0x00850c88                arpReqsIn
                0x00850c8c                arpReqsOut
                0x00850c90                arpRepsIn
                0x00850c94                arpRepsOut
 .sbss          0x00850c9c        0x4 ../G4Capstone_bsp//libucosii_bsp.a(ip.o)
                0x00850c9c                rt_mib
 .sbss          0x00850ca0        0xc ../G4Capstone_bsp//libucosii_bsp.a(ip_reasm.o)
                0x00850ca0                ipr_curr_mem
                0x00850ca4                h_ireq
                0x00850ca8                ire_cticks
 .sbss          0x00850cac       0x11 ../G4Capstone_bsp//libucosii_bsp.a(ipport.o)
                0x00850cac                port_prep
                0x00850cb0                net_system_exit
                0x00850cb4                so_evtmap_create
                0x00850cb8                so_evtmap_delete
                0x00850cbc                so_evtmap
 *fill*         0x00850cbd        0x3 00
 .sbss          0x00850cc0        0x4 ../G4Capstone_bsp//libucosii_bsp.a(ipraw.o)
                0x00850cc0                ipraw_eps
 .sbss          0x00850cc4        0x4 ../G4Capstone_bsp//libucosii_bsp.a(iproute.o)
                0x00850cc4                cachedRoute
 .sbss          0x00850cc8        0x2 ../G4Capstone_bsp//libucosii_bsp.a(udp.o)
 *fill*         0x00850cca        0x2 00
 .sbss          0x00850ccc        0x8 ../G4Capstone_bsp//libucosii_bsp.a(in_pcb.o)
                0x00850ccc                inpcb_cachehits
                0x00850cd0                inpcb_cachemiss
 .sbss          0x00850cd4       0x20 ../G4Capstone_bsp//libucosii_bsp.a(vfsfiles.o)
                0x00850cd4                vfsystems
                0x00850cd8                vfiles
                0x00850cdc                vfsfiles
                0x00850ce0                vfopen_error
                0x00850ce4                vfs_dir_stale
                0x00850ce8                vfs_open_files
                0x00850cec                vfs_total_rw_space
                0x00850cf0                vfs_total_dyna_files
 .sbss          0x00850cf4        0x4 ../G4Capstone_bsp//libucosii_bsp.a(icmp.o)
                0x00850cf4                icmpdu_hook
 *(.sbss2 .sbss2.* .gnu.linkonce.sb2.*)
 *(.scommon)
                0x00850cf8                PROVIDE (__sbss_end, ABSOLUTE (.))
                0x00850cf8                PROVIDE (___sbss_end, ABSOLUTE (.))
 *(.dynbss)
 *(.bss .bss.* .gnu.linkonce.b.*)
 .bss           0x00850cf8        0x0 ../G4Capstone_bsp//obj/HAL/src/crt0.o
 .bss           0x00850cf8        0x0 obj/default/alt_error_handler.o
 .bss           0x00850cf8        0x0 obj/default/dm9000a.o
 .bss           0x00850cf8     0xcb10 obj/default/http.o
 .bss           0x0085d808        0x0 obj/default/network_utilities.o
 .bss           0x0085d808        0x0 obj/default/srec_flash.o
 .bss           0x0085d808        0x0 obj/default/web_server.o
 .bss           0x0085d808        0x0 /OPT/altera/12.1/tools/nios2eds/bin/gnu/H-i686-pc-linux-gnu/bin/../lib/gcc/nios2-elf/4.1.2/libgcc.a(lib2-divmod.o)
 .bss           0x0085d808        0x0 /OPT/altera/12.1/tools/nios2eds/bin/gnu/H-i686-pc-linux-gnu/bin/../lib/gcc/nios2-elf/4.1.2/../../../../nios2-elf/lib/libc.a(lib_a-atoi.o)
 .bss           0x0085d808        0x0 /OPT/altera/12.1/tools/nios2eds/bin/gnu/H-i686-pc-linux-gnu/bin/../lib/gcc/nios2-elf/4.1.2/../../../../nios2-elf/lib/libc.a(lib_a-ctype_.o)
 .bss           0x0085d808        0x0 /OPT/altera/12.1/tools/nios2eds/bin/gnu/H-i686-pc-linux-gnu/bin/../lib/gcc/nios2-elf/4.1.2/../../../../nios2-elf/lib/libc.a(lib_a-fclose.o)
 .bss           0x0085d808        0x0 /OPT/altera/12.1/tools/nios2eds/bin/gnu/H-i686-pc-linux-gnu/bin/../lib/gcc/nios2-elf/4.1.2/../../../../nios2-elf/lib/libc.a(lib_a-fflush.o)
 .bss           0x0085d808        0x0 /OPT/altera/12.1/tools/nios2eds/bin/gnu/H-i686-pc-linux-gnu/bin/../lib/gcc/nios2-elf/4.1.2/../../../../nios2-elf/lib/libc.a(lib_a-fgetpos.o)
 .bss           0x0085d808        0x0 /OPT/altera/12.1/tools/nios2eds/bin/gnu/H-i686-pc-linux-gnu/bin/../lib/gcc/nios2-elf/4.1.2/../../../../nios2-elf/lib/libc.a(lib_a-findfp.o)
 .bss           0x0085d808        0x0 /OPT/altera/12.1/tools/nios2eds/bin/gnu/H-i686-pc-linux-gnu/bin/../lib/gcc/nios2-elf/4.1.2/../../../../nios2-elf/lib/libc.a(lib_a-fopen.o)
 .bss           0x0085d808        0x0 /OPT/altera/12.1/tools/nios2eds/bin/gnu/H-i686-pc-linux-gnu/bin/../lib/gcc/nios2-elf/4.1.2/../../../../nios2-elf/lib/libc.a(lib_a-fprintf.o)
 .bss           0x0085d808        0x0 /OPT/altera/12.1/tools/nios2eds/bin/gnu/H-i686-pc-linux-gnu/bin/../lib/gcc/nios2-elf/4.1.2/../../../../nios2-elf/lib/libc.a(lib_a-fread.o)
 .bss           0x0085d808        0x0 /OPT/altera/12.1/tools/nios2eds/bin/gnu/H-i686-pc-linux-gnu/bin/../lib/gcc/nios2-elf/4.1.2/../../../../nios2-elf/lib/libc.a(lib_a-freer.o)
 .bss           0x0085d808        0x0 /OPT/altera/12.1/tools/nios2eds/bin/gnu/H-i686-pc-linux-gnu/bin/../lib/gcc/nios2-elf/4.1.2/../../../../nios2-elf/lib/libc.a(lib_a-fseek.o)
 .bss           0x0085d808        0x0 /OPT/altera/12.1/tools/nios2eds/bin/gnu/H-i686-pc-linux-gnu/bin/../lib/gcc/nios2-elf/4.1.2/../../../../nios2-elf/lib/libc.a(lib_a-fstatr.o)
 .bss           0x0085d808        0x0 /OPT/altera/12.1/tools/nios2eds/bin/gnu/H-i686-pc-linux-gnu/bin/../lib/gcc/nios2-elf/4.1.2/../../../../nios2-elf/lib/libc.a(lib_a-ftell.o)
 .bss           0x0085d808        0x0 /OPT/altera/12.1/tools/nios2eds/bin/gnu/H-i686-pc-linux-gnu/bin/../lib/gcc/nios2-elf/4.1.2/../../../../nios2-elf/lib/libc.a(lib_a-fwalk.o)
 .bss           0x0085d808        0x0 /OPT/altera/12.1/tools/nios2eds/bin/gnu/H-i686-pc-linux-gnu/bin/../lib/gcc/nios2-elf/4.1.2/../../../../nios2-elf/lib/libc.a(lib_a-fwrite.o)
 .bss           0x0085d808        0x0 /OPT/altera/12.1/tools/nios2eds/bin/gnu/H-i686-pc-linux-gnu/bin/../lib/gcc/nios2-elf/4.1.2/../../../../nios2-elf/lib/libc.a(lib_a-impure.o)
 .bss           0x0085d808        0x0 /OPT/altera/12.1/tools/nios2eds/bin/gnu/H-i686-pc-linux-gnu/bin/../lib/gcc/nios2-elf/4.1.2/../../../../nios2-elf/lib/libc.a(lib_a-int_errno.o)
 .bss           0x0085d808        0x0 /OPT/altera/12.1/tools/nios2eds/bin/gnu/H-i686-pc-linux-gnu/bin/../lib/gcc/nios2-elf/4.1.2/../../../../nios2-elf/lib/libc.a(lib_a-makebuf.o)
 .bss           0x0085d808       0x28 /OPT/altera/12.1/tools/nios2eds/bin/gnu/H-i686-pc-linux-gnu/bin/../lib/gcc/nios2-elf/4.1.2/../../../../nios2-elf/lib/libc.a(lib_a-mallocr.o)
                0x0085d808                __malloc_current_mallinfo
 .bss           0x0085d830        0x0 /OPT/altera/12.1/tools/nios2eds/bin/gnu/H-i686-pc-linux-gnu/bin/../lib/gcc/nios2-elf/4.1.2/../../../../nios2-elf/lib/libc.a(lib_a-memcpy.o)
 .bss           0x0085d830        0x0 /OPT/altera/12.1/tools/nios2eds/bin/gnu/H-i686-pc-linux-gnu/bin/../lib/gcc/nios2-elf/4.1.2/../../../../nios2-elf/lib/libc.a(lib_a-memmove.o)
 .bss           0x0085d830        0x0 /OPT/altera/12.1/tools/nios2eds/bin/gnu/H-i686-pc-linux-gnu/bin/../lib/gcc/nios2-elf/4.1.2/../../../../nios2-elf/lib/libc.a(lib_a-memset.o)
 .bss           0x0085d830        0x0 /OPT/altera/12.1/tools/nios2eds/bin/gnu/H-i686-pc-linux-gnu/bin/../lib/gcc/nios2-elf/4.1.2/../../../../nios2-elf/lib/libc.a(lib_a-openr.o)
 .bss           0x0085d830        0x0 /OPT/altera/12.1/tools/nios2eds/bin/gnu/H-i686-pc-linux-gnu/bin/../lib/gcc/nios2-elf/4.1.2/../../../../nios2-elf/lib/libc.a(lib_a-perror.o)
 .bss           0x0085d830        0x0 /OPT/altera/12.1/tools/nios2eds/bin/gnu/H-i686-pc-linux-gnu/bin/../lib/gcc/nios2-elf/4.1.2/../../../../nios2-elf/lib/libc.a(lib_a-printf.o)
 .bss           0x0085d830        0x0 /OPT/altera/12.1/tools/nios2eds/bin/gnu/H-i686-pc-linux-gnu/bin/../lib/gcc/nios2-elf/4.1.2/../../../../nios2-elf/lib/libc.a(lib_a-puts.o)
 .bss           0x0085d830        0x0 /OPT/altera/12.1/tools/nios2eds/bin/gnu/H-i686-pc-linux-gnu/bin/../lib/gcc/nios2-elf/4.1.2/../../../../nios2-elf/lib/libc.a(lib_a-refill.o)
 .bss           0x0085d830        0x0 /OPT/altera/12.1/tools/nios2eds/bin/gnu/H-i686-pc-linux-gnu/bin/../lib/gcc/nios2-elf/4.1.2/../../../../nios2-elf/lib/libc.a(lib_a-sbrkr.o)
 .bss           0x0085d830        0x0 /OPT/altera/12.1/tools/nios2eds/bin/gnu/H-i686-pc-linux-gnu/bin/../lib/gcc/nios2-elf/4.1.2/../../../../nios2-elf/lib/libc.a(lib_a-sprintf.o)
 .bss           0x0085d830        0x0 /OPT/altera/12.1/tools/nios2eds/bin/gnu/H-i686-pc-linux-gnu/bin/../lib/gcc/nios2-elf/4.1.2/../../../../nios2-elf/lib/libc.a(lib_a-sscanf.o)
 .bss           0x0085d830        0x0 /OPT/altera/12.1/tools/nios2eds/bin/gnu/H-i686-pc-linux-gnu/bin/../lib/gcc/nios2-elf/4.1.2/../../../../nios2-elf/lib/libc.a(lib_a-stdio.o)
 .bss           0x0085d830        0x0 /OPT/altera/12.1/tools/nios2eds/bin/gnu/H-i686-pc-linux-gnu/bin/../lib/gcc/nios2-elf/4.1.2/../../../../nios2-elf/lib/libc.a(lib_a-strcasecmp.o)
 .bss           0x0085d830        0x0 /OPT/altera/12.1/tools/nios2eds/bin/gnu/H-i686-pc-linux-gnu/bin/../lib/gcc/nios2-elf/4.1.2/../../../../nios2-elf/lib/libc.a(lib_a-strcat.o)
 .bss           0x0085d830        0x0 /OPT/altera/12.1/tools/nios2eds/bin/gnu/H-i686-pc-linux-gnu/bin/../lib/gcc/nios2-elf/4.1.2/../../../../nios2-elf/lib/libc.a(lib_a-strchr.o)
 .bss           0x0085d830        0x0 /OPT/altera/12.1/tools/nios2eds/bin/gnu/H-i686-pc-linux-gnu/bin/../lib/gcc/nios2-elf/4.1.2/../../../../nios2-elf/lib/libc.a(lib_a-strcmp.o)
 .bss           0x0085d830        0x0 /OPT/altera/12.1/tools/nios2eds/bin/gnu/H-i686-pc-linux-gnu/bin/../lib/gcc/nios2-elf/4.1.2/../../../../nios2-elf/lib/libc.a(lib_a-strcpy.o)
 .bss           0x0085d830        0x0 /OPT/altera/12.1/tools/nios2eds/bin/gnu/H-i686-pc-linux-gnu/bin/../lib/gcc/nios2-elf/4.1.2/../../../../nios2-elf/lib/libc.a(lib_a-strerror.o)
 .bss           0x0085d830        0x0 /OPT/altera/12.1/tools/nios2eds/bin/gnu/H-i686-pc-linux-gnu/bin/../lib/gcc/nios2-elf/4.1.2/../../../../nios2-elf/lib/libc.a(lib_a-strlen.o)
 .bss           0x0085d830        0x0 /OPT/altera/12.1/tools/nios2eds/bin/gnu/H-i686-pc-linux-gnu/bin/../lib/gcc/nios2-elf/4.1.2/../../../../nios2-elf/lib/libc.a(lib_a-strncmp.o)
 .bss           0x0085d830        0x0 /OPT/altera/12.1/tools/nios2eds/bin/gnu/H-i686-pc-linux-gnu/bin/../lib/gcc/nios2-elf/4.1.2/../../../../nios2-elf/lib/libc.a(lib_a-strncpy.o)
 .bss           0x0085d830        0x0 /OPT/altera/12.1/tools/nios2eds/bin/gnu/H-i686-pc-linux-gnu/bin/../lib/gcc/nios2-elf/4.1.2/../../../../nios2-elf/lib/libc.a(lib_a-strstr.o)
 .bss           0x0085d830        0x0 /OPT/altera/12.1/tools/nios2eds/bin/gnu/H-i686-pc-linux-gnu/bin/../lib/gcc/nios2-elf/4.1.2/../../../../nios2-elf/lib/libc.a(lib_a-strtok.o)
 .bss           0x0085d830        0x0 /OPT/altera/12.1/tools/nios2eds/bin/gnu/H-i686-pc-linux-gnu/bin/../lib/gcc/nios2-elf/4.1.2/../../../../nios2-elf/lib/libc.a(lib_a-strtok_r.o)
 .bss           0x0085d830        0x0 /OPT/altera/12.1/tools/nios2eds/bin/gnu/H-i686-pc-linux-gnu/bin/../lib/gcc/nios2-elf/4.1.2/../../../../nios2-elf/lib/libc.a(lib_a-strtol.o)
 .bss           0x0085d830        0x0 /OPT/altera/12.1/tools/nios2eds/bin/gnu/H-i686-pc-linux-gnu/bin/../lib/gcc/nios2-elf/4.1.2/../../../../nios2-elf/lib/libc.a(lib_a-u_strerr.o)
 .bss           0x0085d830        0x0 /OPT/altera/12.1/tools/nios2eds/bin/gnu/H-i686-pc-linux-gnu/bin/../lib/gcc/nios2-elf/4.1.2/../../../../nios2-elf/lib/libc.a(lib_a-vfprintf.o)
 .bss           0x0085d830        0x0 /OPT/altera/12.1/tools/nios2eds/bin/gnu/H-i686-pc-linux-gnu/bin/../lib/gcc/nios2-elf/4.1.2/../../../../nios2-elf/lib/libc.a(lib_a-vfscanf.o)
 .bss           0x0085d830        0x0 /OPT/altera/12.1/tools/nios2eds/bin/gnu/H-i686-pc-linux-gnu/bin/../lib/gcc/nios2-elf/4.1.2/../../../../nios2-elf/lib/libc.a(lib_a-writer.o)
 .bss           0x0085d830        0x0 /OPT/altera/12.1/tools/nios2eds/bin/gnu/H-i686-pc-linux-gnu/bin/../lib/gcc/nios2-elf/4.1.2/../../../../nios2-elf/lib/libc.a(lib_a-wsetup.o)
 .bss           0x0085d830        0x0 /OPT/altera/12.1/tools/nios2eds/bin/gnu/H-i686-pc-linux-gnu/bin/../lib/gcc/nios2-elf/4.1.2/../../../../nios2-elf/lib/libc.a(lib_a-closer.o)
 .bss           0x0085d830        0x0 /OPT/altera/12.1/tools/nios2eds/bin/gnu/H-i686-pc-linux-gnu/bin/../lib/gcc/nios2-elf/4.1.2/../../../../nios2-elf/lib/libc.a(lib_a-dtoa.o)
 .bss           0x0085d830        0x0 /OPT/altera/12.1/tools/nios2eds/bin/gnu/H-i686-pc-linux-gnu/bin/../lib/gcc/nios2-elf/4.1.2/../../../../nios2-elf/lib/libc.a(lib_a-flags.o)
 .bss           0x0085d830        0x0 /OPT/altera/12.1/tools/nios2eds/bin/gnu/H-i686-pc-linux-gnu/bin/../lib/gcc/nios2-elf/4.1.2/../../../../nios2-elf/lib/libc.a(lib_a-fputc.o)
 .bss           0x0085d830        0x0 /OPT/altera/12.1/tools/nios2eds/bin/gnu/H-i686-pc-linux-gnu/bin/../lib/gcc/nios2-elf/4.1.2/../../../../nios2-elf/lib/libc.a(lib_a-fputs.o)
 .bss           0x0085d830        0x0 /OPT/altera/12.1/tools/nios2eds/bin/gnu/H-i686-pc-linux-gnu/bin/../lib/gcc/nios2-elf/4.1.2/../../../../nios2-elf/lib/libc.a(lib_a-fvwrite.o)
 .bss           0x0085d830        0x0 /OPT/altera/12.1/tools/nios2eds/bin/gnu/H-i686-pc-linux-gnu/bin/../lib/gcc/nios2-elf/4.1.2/../../../../nios2-elf/lib/libc.a(lib_a-isattyr.o)
 .bss           0x0085d830        0x0 /OPT/altera/12.1/tools/nios2eds/bin/gnu/H-i686-pc-linux-gnu/bin/../lib/gcc/nios2-elf/4.1.2/../../../../nios2-elf/lib/libc.a(lib_a-iswspace.o)
 .bss           0x0085d830        0x0 /OPT/altera/12.1/tools/nios2eds/bin/gnu/H-i686-pc-linux-gnu/bin/../lib/gcc/nios2-elf/4.1.2/../../../../nios2-elf/lib/libc.a(lib_a-locale.o)
 .bss           0x0085d830        0x0 /OPT/altera/12.1/tools/nios2eds/bin/gnu/H-i686-pc-linux-gnu/bin/../lib/gcc/nios2-elf/4.1.2/../../../../nios2-elf/lib/libc.a(lib_a-lseekr.o)
 .bss           0x0085d830        0x0 /OPT/altera/12.1/tools/nios2eds/bin/gnu/H-i686-pc-linux-gnu/bin/../lib/gcc/nios2-elf/4.1.2/../../../../nios2-elf/lib/libc.a(lib_a-mbrtowc.o)
 .bss           0x0085d830        0x0 /OPT/altera/12.1/tools/nios2eds/bin/gnu/H-i686-pc-linux-gnu/bin/../lib/gcc/nios2-elf/4.1.2/../../../../nios2-elf/lib/libc.a(lib_a-mbtowc_r.o)
 .bss           0x0085d830        0x0 /OPT/altera/12.1/tools/nios2eds/bin/gnu/H-i686-pc-linux-gnu/bin/../lib/gcc/nios2-elf/4.1.2/../../../../nios2-elf/lib/libc.a(lib_a-memchr.o)
 .bss           0x0085d830        0x0 /OPT/altera/12.1/tools/nios2eds/bin/gnu/H-i686-pc-linux-gnu/bin/../lib/gcc/nios2-elf/4.1.2/../../../../nios2-elf/lib/libc.a(lib_a-memcmp.o)
 .bss           0x0085d830        0x0 /OPT/altera/12.1/tools/nios2eds/bin/gnu/H-i686-pc-linux-gnu/bin/../lib/gcc/nios2-elf/4.1.2/../../../../nios2-elf/lib/libc.a(lib_a-mprec.o)
 .bss           0x0085d830        0x0 /OPT/altera/12.1/tools/nios2eds/bin/gnu/H-i686-pc-linux-gnu/bin/../lib/gcc/nios2-elf/4.1.2/../../../../nios2-elf/lib/libc.a(lib_a-putc.o)
 .bss           0x0085d830        0x0 /OPT/altera/12.1/tools/nios2eds/bin/gnu/H-i686-pc-linux-gnu/bin/../lib/gcc/nios2-elf/4.1.2/../../../../nios2-elf/lib/libc.a(lib_a-readr.o)
 .bss           0x0085d830        0x0 /OPT/altera/12.1/tools/nios2eds/bin/gnu/H-i686-pc-linux-gnu/bin/../lib/gcc/nios2-elf/4.1.2/../../../../nios2-elf/lib/libc.a(lib_a-reallocr.o)
 .bss           0x0085d830        0x0 /OPT/altera/12.1/tools/nios2eds/bin/gnu/H-i686-pc-linux-gnu/bin/../lib/gcc/nios2-elf/4.1.2/../../../../nios2-elf/lib/libc.a(lib_a-s_isinfd.o)
 .bss           0x0085d830        0x0 /OPT/altera/12.1/tools/nios2eds/bin/gnu/H-i686-pc-linux-gnu/bin/../lib/gcc/nios2-elf/4.1.2/../../../../nios2-elf/lib/libc.a(lib_a-s_isnand.o)
 .bss           0x0085d830        0x0 /OPT/altera/12.1/tools/nios2eds/bin/gnu/H-i686-pc-linux-gnu/bin/../lib/gcc/nios2-elf/4.1.2/../../../../nios2-elf/lib/libc.a(lib_a-sccl.o)
 .bss           0x0085d830        0x0 /OPT/altera/12.1/tools/nios2eds/bin/gnu/H-i686-pc-linux-gnu/bin/../lib/gcc/nios2-elf/4.1.2/../../../../nios2-elf/lib/libc.a(lib_a-sf_nan.o)
 .bss           0x0085d830        0x0 /OPT/altera/12.1/tools/nios2eds/bin/gnu/H-i686-pc-linux-gnu/bin/../lib/gcc/nios2-elf/4.1.2/../../../../nios2-elf/lib/libc.a(lib_a-strtod.o)
 .bss           0x0085d830        0x0 /OPT/altera/12.1/tools/nios2eds/bin/gnu/H-i686-pc-linux-gnu/bin/../lib/gcc/nios2-elf/4.1.2/../../../../nios2-elf/lib/libc.a(lib_a-strtoll_r.o)
 .bss           0x0085d830        0x0 /OPT/altera/12.1/tools/nios2eds/bin/gnu/H-i686-pc-linux-gnu/bin/../lib/gcc/nios2-elf/4.1.2/../../../../nios2-elf/lib/libc.a(lib_a-strtoul.o)
 .bss           0x0085d830        0x0 /OPT/altera/12.1/tools/nios2eds/bin/gnu/H-i686-pc-linux-gnu/bin/../lib/gcc/nios2-elf/4.1.2/../../../../nios2-elf/lib/libc.a(lib_a-strtoull_r.o)
 .bss           0x0085d830        0x0 /OPT/altera/12.1/tools/nios2eds/bin/gnu/H-i686-pc-linux-gnu/bin/../lib/gcc/nios2-elf/4.1.2/../../../../nios2-elf/lib/libc.a(lib_a-ungetc.o)
 .bss           0x0085d830        0x0 /OPT/altera/12.1/tools/nios2eds/bin/gnu/H-i686-pc-linux-gnu/bin/../lib/gcc/nios2-elf/4.1.2/../../../../nios2-elf/lib/libc.a(lib_a-wbuf.o)
 .bss           0x0085d830        0x0 /OPT/altera/12.1/tools/nios2eds/bin/gnu/H-i686-pc-linux-gnu/bin/../lib/gcc/nios2-elf/4.1.2/../../../../nios2-elf/lib/libc.a(lib_a-callocr.o)
 .bss           0x0085d830        0x0 /OPT/altera/12.1/tools/nios2eds/bin/gnu/H-i686-pc-linux-gnu/bin/../lib/gcc/nios2-elf/4.1.2/../../../../nios2-elf/lib/libc.a(lib_a-gdtoa-gethex.o)
 .bss           0x0085d830        0x0 /OPT/altera/12.1/tools/nios2eds/bin/gnu/H-i686-pc-linux-gnu/bin/../lib/gcc/nios2-elf/4.1.2/../../../../nios2-elf/lib/libc.a(lib_a-gdtoa-hexnan.o)
 .bss           0x0085d830        0x0 /OPT/altera/12.1/tools/nios2eds/bin/gnu/H-i686-pc-linux-gnu/bin/../lib/gcc/nios2-elf/4.1.2/libgcc.a(_muldi3.o)
 .bss           0x0085d830        0x0 /OPT/altera/12.1/tools/nios2eds/bin/gnu/H-i686-pc-linux-gnu/bin/../lib/gcc/nios2-elf/4.1.2/libgcc.a(_fixunsdfsi.o)
 .bss           0x0085d830        0x0 /OPT/altera/12.1/tools/nios2eds/bin/gnu/H-i686-pc-linux-gnu/bin/../lib/gcc/nios2-elf/4.1.2/libgcc.a(_udivdi3.o)
 .bss           0x0085d830        0x0 /OPT/altera/12.1/tools/nios2eds/bin/gnu/H-i686-pc-linux-gnu/bin/../lib/gcc/nios2-elf/4.1.2/libgcc.a(_umoddi3.o)
 .bss           0x0085d830        0x0 /OPT/altera/12.1/tools/nios2eds/bin/gnu/H-i686-pc-linux-gnu/bin/../lib/gcc/nios2-elf/4.1.2/libgcc.a(_ne_sf.o)
 .bss           0x0085d830        0x0 /OPT/altera/12.1/tools/nios2eds/bin/gnu/H-i686-pc-linux-gnu/bin/../lib/gcc/nios2-elf/4.1.2/libgcc.a(_gt_sf.o)
 .bss           0x0085d830        0x0 /OPT/altera/12.1/tools/nios2eds/bin/gnu/H-i686-pc-linux-gnu/bin/../lib/gcc/nios2-elf/4.1.2/libgcc.a(_lt_sf.o)
 .bss           0x0085d830        0x0 /OPT/altera/12.1/tools/nios2eds/bin/gnu/H-i686-pc-linux-gnu/bin/../lib/gcc/nios2-elf/4.1.2/libgcc.a(_addsub_df.o)
 .bss           0x0085d830        0x0 /OPT/altera/12.1/tools/nios2eds/bin/gnu/H-i686-pc-linux-gnu/bin/../lib/gcc/nios2-elf/4.1.2/libgcc.a(_mul_df.o)
 .bss           0x0085d830        0x0 /OPT/altera/12.1/tools/nios2eds/bin/gnu/H-i686-pc-linux-gnu/bin/../lib/gcc/nios2-elf/4.1.2/libgcc.a(_div_df.o)
 .bss           0x0085d830        0x0 /OPT/altera/12.1/tools/nios2eds/bin/gnu/H-i686-pc-linux-gnu/bin/../lib/gcc/nios2-elf/4.1.2/libgcc.a(_eq_df.o)
 .bss           0x0085d830        0x0 /OPT/altera/12.1/tools/nios2eds/bin/gnu/H-i686-pc-linux-gnu/bin/../lib/gcc/nios2-elf/4.1.2/libgcc.a(_ne_df.o)
 .bss           0x0085d830        0x0 /OPT/altera/12.1/tools/nios2eds/bin/gnu/H-i686-pc-linux-gnu/bin/../lib/gcc/nios2-elf/4.1.2/libgcc.a(_gt_df.o)
 .bss           0x0085d830        0x0 /OPT/altera/12.1/tools/nios2eds/bin/gnu/H-i686-pc-linux-gnu/bin/../lib/gcc/nios2-elf/4.1.2/libgcc.a(_ge_df.o)
 .bss           0x0085d830        0x0 /OPT/altera/12.1/tools/nios2eds/bin/gnu/H-i686-pc-linux-gnu/bin/../lib/gcc/nios2-elf/4.1.2/libgcc.a(_lt_df.o)
 .bss           0x0085d830        0x0 /OPT/altera/12.1/tools/nios2eds/bin/gnu/H-i686-pc-linux-gnu/bin/../lib/gcc/nios2-elf/4.1.2/libgcc.a(_le_df.o)
 .bss           0x0085d830        0x0 /OPT/altera/12.1/tools/nios2eds/bin/gnu/H-i686-pc-linux-gnu/bin/../lib/gcc/nios2-elf/4.1.2/libgcc.a(_si_to_df.o)
 .bss           0x0085d830        0x0 /OPT/altera/12.1/tools/nios2eds/bin/gnu/H-i686-pc-linux-gnu/bin/../lib/gcc/nios2-elf/4.1.2/libgcc.a(_df_to_si.o)
 .bss           0x0085d830        0x0 /OPT/altera/12.1/tools/nios2eds/bin/gnu/H-i686-pc-linux-gnu/bin/../lib/gcc/nios2-elf/4.1.2/libgcc.a(_df_to_sf.o)
 .bss           0x0085d830        0x0 /OPT/altera/12.1/tools/nios2eds/bin/gnu/H-i686-pc-linux-gnu/bin/../lib/gcc/nios2-elf/4.1.2/libgcc.a(_thenan_df.o)
 .bss           0x0085d830        0x0 /OPT/altera/12.1/tools/nios2eds/bin/gnu/H-i686-pc-linux-gnu/bin/../lib/gcc/nios2-elf/4.1.2/libgcc.a(_usi_to_df.o)
 .bss           0x0085d830        0x0 /OPT/altera/12.1/tools/nios2eds/bin/gnu/H-i686-pc-linux-gnu/bin/../lib/gcc/nios2-elf/4.1.2/libgcc.a(_clz.o)
 .bss           0x0085d830        0x0 /OPT/altera/12.1/tools/nios2eds/bin/gnu/H-i686-pc-linux-gnu/bin/../lib/gcc/nios2-elf/4.1.2/libgcc.a(_clzsi2.o)
 .bss           0x0085d830        0x0 /OPT/altera/12.1/tools/nios2eds/bin/gnu/H-i686-pc-linux-gnu/bin/../lib/gcc/nios2-elf/4.1.2/libgcc.a(_unpack_sf.o)
 .bss           0x0085d830        0x0 /OPT/altera/12.1/tools/nios2eds/bin/gnu/H-i686-pc-linux-gnu/bin/../lib/gcc/nios2-elf/4.1.2/libgcc.a(_fpcmp_parts_sf.o)
 .bss           0x0085d830        0x0 /OPT/altera/12.1/tools/nios2eds/bin/gnu/H-i686-pc-linux-gnu/bin/../lib/gcc/nios2-elf/4.1.2/libgcc.a(_make_sf.o)
 .bss           0x0085d830        0x0 /OPT/altera/12.1/tools/nios2eds/bin/gnu/H-i686-pc-linux-gnu/bin/../lib/gcc/nios2-elf/4.1.2/libgcc.a(_pack_df.o)
 .bss           0x0085d830        0x0 /OPT/altera/12.1/tools/nios2eds/bin/gnu/H-i686-pc-linux-gnu/bin/../lib/gcc/nios2-elf/4.1.2/libgcc.a(_unpack_df.o)
 .bss           0x0085d830        0x0 /OPT/altera/12.1/tools/nios2eds/bin/gnu/H-i686-pc-linux-gnu/bin/../lib/gcc/nios2-elf/4.1.2/libgcc.a(_fpcmp_parts_df.o)
 .bss           0x0085d830        0x0 /OPT/altera/12.1/tools/nios2eds/bin/gnu/H-i686-pc-linux-gnu/bin/../lib/gcc/nios2-elf/4.1.2/libgcc.a(_pack_sf.o)
 .bss           0x0085d830        0x0 ../G4Capstone_bsp//libucosii_bsp.a(alt_dcache_flush.o)
 .bss           0x0085d830        0x0 ../G4Capstone_bsp//libucosii_bsp.a(alt_flash_dev.o)
 .bss           0x0085d830        0x0 ../G4Capstone_bsp//libucosii_bsp.a(alt_fstat.o)
 .bss           0x0085d830        0x0 ../G4Capstone_bsp//libucosii_bsp.a(alt_irq_register.o)
 .bss           0x0085d830        0x0 ../G4Capstone_bsp//libucosii_bsp.a(alt_irq_vars.o)
 .bss           0x0085d830        0x0 ../G4Capstone_bsp//libucosii_bsp.a(alt_isatty.o)
 .bss           0x0085d830        0x0 ../G4Capstone_bsp//libucosii_bsp.a(alt_lseek.o)
 .bss           0x0085d830        0x0 ../G4Capstone_bsp//libucosii_bsp.a(alt_main.o)
 .bss           0x0085d830        0x0 ../G4Capstone_bsp//libucosii_bsp.a(alt_open.o)
 .bss           0x0085d830        0x0 ../G4Capstone_bsp//libucosii_bsp.a(alt_release_fd.o)
 .bss           0x0085d830        0x0 ../G4Capstone_bsp//libucosii_bsp.a(alt_sbrk.o)
 .bss           0x0085d830        0x0 ../G4Capstone_bsp//libucosii_bsp.a(alt_tick.o)
 .bss           0x0085d830        0x0 ../G4Capstone_bsp//libucosii_bsp.a(alt_usleep.o)
 .bss           0x0085d830        0x0 ../G4Capstone_bsp//libucosii_bsp.a(alt_env_lock.o)
 .bss           0x0085d830        0x0 ../G4Capstone_bsp//libucosii_bsp.a(alt_malloc_lock.o)
 .bss           0x0085d830        0x0 ../G4Capstone_bsp//libucosii_bsp.a(os_core.o)
 .bss           0x0085d830        0x0 ../G4Capstone_bsp//libucosii_bsp.a(os_dbg.o)
 .bss           0x0085d830        0x0 ../G4Capstone_bsp//libucosii_bsp.a(os_flag.o)
 .bss           0x0085d830        0x0 ../G4Capstone_bsp//libucosii_bsp.a(os_mbox.o)
 .bss           0x0085d830        0x0 ../G4Capstone_bsp//libucosii_bsp.a(os_mem.o)
 .bss           0x0085d830        0x0 ../G4Capstone_bsp//libucosii_bsp.a(os_q.o)
 .bss           0x0085d830        0x0 ../G4Capstone_bsp//libucosii_bsp.a(os_sem.o)
 .bss           0x0085d830        0x0 ../G4Capstone_bsp//libucosii_bsp.a(os_task.o)
 .bss           0x0085d830        0x0 ../G4Capstone_bsp//libucosii_bsp.a(os_time.o)
 .bss           0x0085d830        0x0 ../G4Capstone_bsp//libucosii_bsp.a(alt_sys_init.o)
 .bss           0x0085d830        0x0 ../G4Capstone_bsp//libucosii_bsp.a(altera_avalon_jtag_uart_fd.o)
 .bss           0x0085d830        0x0 ../G4Capstone_bsp//libucosii_bsp.a(altera_avalon_jtag_uart_init.o)
 .bss           0x0085d830        0x0 ../G4Capstone_bsp//libucosii_bsp.a(altera_avalon_jtag_uart_ioctl.o)
 .bss           0x0085d830        0x0 ../G4Capstone_bsp//libucosii_bsp.a(altera_avalon_jtag_uart_read.o)
 .bss           0x0085d830        0x0 ../G4Capstone_bsp//libucosii_bsp.a(altera_avalon_jtag_uart_write.o)
 .bss           0x0085d830        0x0 ../G4Capstone_bsp//libucosii_bsp.a(altera_avalon_timer_sc.o)
 .bss           0x0085d830        0x0 ../G4Capstone_bsp//libucosii_bsp.a(altera_ro_zipfs.o)
 .bss           0x0085d830        0x0 ../G4Capstone_bsp//libucosii_bsp.a(altera_up_avalon_audio_and_video_config.o)
 .bss           0x0085d830        0x0 ../G4Capstone_bsp//libucosii_bsp.a(altera_up_avalon_character_lcd.o)
 .bss           0x0085d830        0x0 ../G4Capstone_bsp//libucosii_bsp.a(alt_iniche_close.o)
 .bss           0x0085d830        0x0 ../G4Capstone_bsp//libucosii_bsp.a(alt_iniche_dev.o)
 .bss           0x0085d830        0x0 ../G4Capstone_bsp//libucosii_bsp.a(alt_iniche_read.o)
 .bss           0x0085d830        0x0 ../G4Capstone_bsp//libucosii_bsp.a(alt_iniche_write.o)
 .bss           0x0085d830        0x0 ../G4Capstone_bsp//libucosii_bsp.a(ipnet.o)
 .bss           0x0085d830       0x3c ../G4Capstone_bsp//libucosii_bsp.a(ipstart.o)
 .bss           0x0085d86c        0x0 ../G4Capstone_bsp//libucosii_bsp.a(igmp_cmn.o)
 .bss           0x0085d86c        0x0 ../G4Capstone_bsp//libucosii_bsp.a(bsdsock.o)
 .bss           0x0085d86c        0x0 ../G4Capstone_bsp//libucosii_bsp.a(cksum.o)
 .bss           0x0085d86c       0x18 ../G4Capstone_bsp//libucosii_bsp.a(in_utils.o)
 .bss           0x0085d884        0x0 ../G4Capstone_bsp//libucosii_bsp.a(netmain.o)
 .bss           0x0085d884        0x0 ../G4Capstone_bsp//libucosii_bsp.a(tk_crnos.o)
 .bss           0x0085d884        0x0 ../G4Capstone_bsp//libucosii_bsp.a(dhcpclnt.o)
 .bss           0x0085d884        0x0 ../G4Capstone_bsp//libucosii_bsp.a(dhcputil.o)
 .bss           0x0085d884        0x0 ../G4Capstone_bsp//libucosii_bsp.a(pktalloc.o)
 .bss           0x0085d884        0x0 ../G4Capstone_bsp//libucosii_bsp.a(q.o)
 .bss           0x0085d884        0x0 ../G4Capstone_bsp//libucosii_bsp.a(udp_open.o)
 .bss           0x0085d884        0x0 ../G4Capstone_bsp//libucosii_bsp.a(asm_cksum.o)
 .bss           0x0085d884        0x0 ../G4Capstone_bsp//libucosii_bsp.a(brdutils.o)
 .bss           0x0085d884        0x0 ../G4Capstone_bsp//libucosii_bsp.a(osportco.o)
 .bss           0x0085d884        0x0 ../G4Capstone_bsp//libucosii_bsp.a(targnios.o)
 .bss           0x0085d884        0x0 ../G4Capstone_bsp//libucosii_bsp.a(nptcp.o)
 .bss           0x0085d884        0x0 ../G4Capstone_bsp//libucosii_bsp.a(rawsock.o)
 .bss           0x0085d884        0x0 ../G4Capstone_bsp//libucosii_bsp.a(sockcall.o)
 .bss           0x0085d884        0x0 ../G4Capstone_bsp//libucosii_bsp.a(socket.o)
 .bss           0x0085d884        0x0 ../G4Capstone_bsp//libucosii_bsp.a(socket2.o)
 .bss           0x0085d884        0x0 ../G4Capstone_bsp//libucosii_bsp.a(soselect.o)
 .bss           0x0085d884        0x0 ../G4Capstone_bsp//libucosii_bsp.a(tcp_in.o)
 .bss           0x0085d884        0x0 ../G4Capstone_bsp//libucosii_bsp.a(tcp_out.o)
 .bss           0x0085d884        0x0 ../G4Capstone_bsp//libucosii_bsp.a(tcp_subr.o)
 .bss           0x0085d884        0x0 ../G4Capstone_bsp//libucosii_bsp.a(tcp_timr.o)
 .bss           0x0085d884        0x0 ../G4Capstone_bsp//libucosii_bsp.a(tcp_usr.o)
 .bss           0x0085d884        0x0 ../G4Capstone_bsp//libucosii_bsp.a(tcpport.o)
 .bss           0x0085d884        0x0 ../G4Capstone_bsp//libucosii_bsp.a(udpsock.o)
 .bss           0x0085d884        0x0 ../G4Capstone_bsp//libucosii_bsp.a(alt_alarm_start.o)
 .bss           0x0085d884        0x0 ../G4Capstone_bsp//libucosii_bsp.a(alt_busy_sleep.o)
 .bss           0x0085d884        0x0 ../G4Capstone_bsp//libucosii_bsp.a(alt_close.o)
 .bss           0x0085d884        0x0 ../G4Capstone_bsp//libucosii_bsp.a(alt_dev.o)
 .bss           0x0085d884        0x0 ../G4Capstone_bsp//libucosii_bsp.a(alt_dev_llist_insert.o)
 .bss           0x0085d884        0x0 ../G4Capstone_bsp//libucosii_bsp.a(alt_do_ctors.o)
 .bss           0x0085d884        0x0 ../G4Capstone_bsp//libucosii_bsp.a(alt_do_dtors.o)
 .bss           0x0085d884        0x0 ../G4Capstone_bsp//libucosii_bsp.a(alt_errno.o)
 .bss           0x0085d884        0x0 ../G4Capstone_bsp//libucosii_bsp.a(alt_find_dev.o)
 .bss           0x0085d884        0x0 ../G4Capstone_bsp//libucosii_bsp.a(alt_find_file.o)
 .bss           0x0085d884        0x0 ../G4Capstone_bsp//libucosii_bsp.a(alt_fs_reg.o)
 .bss           0x0085d884        0x0 ../G4Capstone_bsp//libucosii_bsp.a(alt_get_fd.o)
 .bss           0x0085d884        0x0 ../G4Capstone_bsp//libucosii_bsp.a(alt_iic.o)
 .bss           0x0085d884        0x0 ../G4Capstone_bsp//libucosii_bsp.a(alt_iic_isr_register.o)
 .bss           0x0085d884        0x0 ../G4Capstone_bsp//libucosii_bsp.a(alt_io_redirect.o)
 .bss           0x0085d884        0x0 ../G4Capstone_bsp//libucosii_bsp.a(alt_irq_entry.o)
 .bss           0x0085d884        0x0 ../G4Capstone_bsp//libucosii_bsp.a(alt_irq_handler.o)
 .bss           0x0085d884        0x0 ../G4Capstone_bsp//libucosii_bsp.a(alt_read.o)
 .bss           0x0085d884        0x0 ../G4Capstone_bsp//libucosii_bsp.a(alt_remap_cached.o)
 .bss           0x0085d884        0x0 ../G4Capstone_bsp//libucosii_bsp.a(alt_remap_uncached.o)
 .bss           0x0085d884        0x0 ../G4Capstone_bsp//libucosii_bsp.a(alt_write.o)
 .bss           0x0085d884        0x0 ../G4Capstone_bsp//libucosii_bsp.a(altera_nios2_qsys_irq.o)
 .bss           0x0085d884        0x0 ../G4Capstone_bsp//libucosii_bsp.a(os_cpu_a.o)
 .bss           0x0085d884        0x0 ../G4Capstone_bsp//libucosii_bsp.a(os_cpu_c.o)
 .bss           0x0085d884        0x0 ../G4Capstone_bsp//libucosii_bsp.a(allports.o)
 .bss           0x0085d884        0x0 ../G4Capstone_bsp//libucosii_bsp.a(timeouts.o)
 .bss           0x0085d884        0x0 ../G4Capstone_bsp//libucosii_bsp.a(tk_misc.o)
 .bss           0x0085d884        0x0 ../G4Capstone_bsp//libucosii_bsp.a(alt_iniche_fcntl.o)
 .bss           0x0085d884        0x0 ../G4Capstone_bsp//libucosii_bsp.a(et_arp.o)
 .bss           0x0085d884        0x0 ../G4Capstone_bsp//libucosii_bsp.a(iface.o)
 .bss           0x0085d884        0x0 ../G4Capstone_bsp//libucosii_bsp.a(ip.o)
 .bss           0x0085d884        0x0 ../G4Capstone_bsp//libucosii_bsp.a(ip_reasm.o)
 .bss           0x0085d884        0x0 ../G4Capstone_bsp//libucosii_bsp.a(ipdemux.o)
 .bss           0x0085d884        0x0 ../G4Capstone_bsp//libucosii_bsp.a(ipmc.o)
 .bss           0x0085d884        0x0 ../G4Capstone_bsp//libucosii_bsp.a(ipport.o)
 .bss           0x0085d884        0x0 ../G4Capstone_bsp//libucosii_bsp.a(ipraw.o)
 .bss           0x0085d884        0x0 ../G4Capstone_bsp//libucosii_bsp.a(iproute.o)
 .bss           0x0085d884        0x0 ../G4Capstone_bsp//libucosii_bsp.a(udp.o)
 .bss           0x0085d884        0x0 ../G4Capstone_bsp//libucosii_bsp.a(igmp.o)
 .bss           0x0085d884        0x0 ../G4Capstone_bsp//libucosii_bsp.a(igmp2.o)
 .bss           0x0085d884        0x0 ../G4Capstone_bsp//libucosii_bsp.a(ipopt.o)
 .bss           0x0085d884        0x0 ../G4Capstone_bsp//libucosii_bsp.a(u_mctest.o)
 .bss           0x0085d884        0x0 ../G4Capstone_bsp//libucosii_bsp.a(dhcsetup.o)
 .bss           0x0085d884        0x0 ../G4Capstone_bsp//libucosii_bsp.a(memdev.o)
 .bss           0x0085d884       0x1e ../G4Capstone_bsp//libucosii_bsp.a(parseip.o)
 .bss           0x0085d8a2        0x0 ../G4Capstone_bsp//libucosii_bsp.a(tcpcksum.o)
 .bss           0x0085d8a2        0x0 ../G4Capstone_bsp//libucosii_bsp.a(in_pcb.o)
 .bss           0x0085d8a2        0x0 ../G4Capstone_bsp//libucosii_bsp.a(vfsfiles.o)
 .bss           0x0085d8a2        0x0 ../G4Capstone_bsp//libucosii_bsp.a(vfsport.o)
 .bss           0x0085d8a2        0x0 ../G4Capstone_bsp//libucosii_bsp.a(alt_exception_entry.o)
 .bss           0x0085d8a2        0x0 ../G4Capstone_bsp//libucosii_bsp.a(alt_fcntl.o)
 .bss           0x0085d8a2        0x0 ../G4Capstone_bsp//libucosii_bsp.a(icmp.o)
 .bss           0x0085d8a2        0x0 /OPT/altera/12.1/tools/nios2eds/bin/gnu/H-i686-pc-linux-gnu/bin/../lib/gcc/nios2-elf/4.1.2/../../../../nios2-elf/lib/libc.a(lib_a-atexit.o)
 .bss           0x0085d8a2        0x0 /OPT/altera/12.1/tools/nios2eds/bin/gnu/H-i686-pc-linux-gnu/bin/../lib/gcc/nios2-elf/4.1.2/../../../../nios2-elf/lib/libc.a(lib_a-calloc.o)
 .bss           0x0085d8a2        0x0 /OPT/altera/12.1/tools/nios2eds/bin/gnu/H-i686-pc-linux-gnu/bin/../lib/gcc/nios2-elf/4.1.2/../../../../nios2-elf/lib/libc.a(lib_a-exit.o)
 .bss           0x0085d8a2        0x0 /OPT/altera/12.1/tools/nios2eds/bin/gnu/H-i686-pc-linux-gnu/bin/../lib/gcc/nios2-elf/4.1.2/../../../../nios2-elf/lib/libc.a(lib_a-getc.o)
 .bss           0x0085d8a2        0x0 /OPT/altera/12.1/tools/nios2eds/bin/gnu/H-i686-pc-linux-gnu/bin/../lib/gcc/nios2-elf/4.1.2/../../../../nios2-elf/lib/libc.a(lib_a-malloc.o)
 .bss           0x0085d8a2        0x0 /OPT/altera/12.1/tools/nios2eds/bin/gnu/H-i686-pc-linux-gnu/bin/../lib/gcc/nios2-elf/4.1.2/../../../../nios2-elf/lib/libc.a(lib_a-rget.o)
 .bss           0x0085d8a2        0x0 /OPT/altera/12.1/tools/nios2eds/bin/gnu/H-i686-pc-linux-gnu/bin/../lib/gcc/nios2-elf/4.1.2/../../../../nios2-elf/lib/libc.a(lib_a-vprintf.o)
 .bss           0x0085d8a2        0x0 /OPT/altera/12.1/tools/nios2eds/bin/gnu/H-i686-pc-linux-gnu/bin/../lib/gcc/nios2-elf/4.1.2/../../../../nios2-elf/lib/libc.a(lib_a-vsprintf.o)
 .bss           0x0085d8a2        0x0 /OPT/altera/12.1/tools/nios2eds/bin/gnu/H-i686-pc-linux-gnu/bin/../lib/gcc/nios2-elf/4.1.2/../../../../nios2-elf/lib/libc.a(lib_a-__atexit.o)
 .bss           0x0085d8a2        0x0 /OPT/altera/12.1/tools/nios2eds/bin/gnu/H-i686-pc-linux-gnu/bin/../lib/gcc/nios2-elf/4.1.2/../../../../nios2-elf/lib/libc.a(lib_a-__call_atexit.o)
 .bss           0x0085d8a2        0x0 ../G4Capstone_bsp//libucosii_bsp.a(alt_exit.o)
 *(COMMON)
 *fill*         0x0085d8a2        0x2 00
 COMMON         0x0085d8a4       0x44 obj/default/dm9000a.o
                0x0085d8a4                g_dm9ka
 COMMON         0x0085d8e8   0x5d0de4 obj/default/http.o
                0x0085d8e8                upload_buf
                0x00e16670                board_funcs
                0x00e1669a                http_rx_buffer
                0x00e2269c                flash_inf
                0x00e226cc                http_tx_buffer
 COMMON         0x00e2e6cc      0x104 obj/default/srec_flash.o
                0x00e2e6cc                frag
 COMMON         0x00e2e7d0     0x6000 obj/default/web_server.o
                0x00e2e7d0                AudioTask_stk
                0x00e307d0                WSInitialTaskStk
                0x00e327d0                LCDTask_stk
 COMMON         0x00e347d0      0x100 /OPT/altera/12.1/tools/nios2eds/bin/gnu/H-i686-pc-linux-gnu/bin/../lib/gcc/nios2-elf/4.1.2/../../../../nios2-elf/lib/libc.a(lib_a-gdtoa-gethex.o)
                0x00e347d0                __hexdig
 COMMON         0x00e348d0     0x3224 ../G4Capstone_bsp//libucosii_bsp.a(os_core.o)
                0x00e348d0                OSFlagTbl
                0x00e34c40                OSMemTbl
                0x00e35870                OSTaskStatStk
                0x00e36070                OSQTbl
                0x00e36250                OSTaskIdleStk
                0x00e36a50                OSEventTbl
                0x00e37590                OSTCBTbl
                0x00e37aa0                OSTCBPrioTbl
 COMMON         0x00e37af4       0x14 ../G4Capstone_bsp//libucosii_bsp.a(ipnet.o)
                0x00e37af4                rcvdq
 COMMON         0x00e37b08      0x310 ../G4Capstone_bsp//libucosii_bsp.a(ipstart.o)
                0x00e37b08                netstatic
                0x00e37e08                nets
 COMMON         0x00e37e18       0x64 ../G4Capstone_bsp//libucosii_bsp.a(igmp_cmn.o)
                0x00e37e18                igmpstats
 COMMON         0x00e37e7c       0x24 ../G4Capstone_bsp//libucosii_bsp.a(in_utils.o)
                0x00e37e7c                eth_prt_buf
                0x00e37e8e                ipreturn
 COMMON         0x00e37ea0       0xf0 ../G4Capstone_bsp//libucosii_bsp.a(dhcpclnt.o)
                0x00e37ea0                dhc_states
 COMMON         0x00e37f90      0x128 ../G4Capstone_bsp//libucosii_bsp.a(pktalloc.o)
                0x00e37f90                lilfreeq
                0x00e37fa4                memestats
                0x00e37fb4                pktlog
                0x00e380a4                bigfreeq
 COMMON         0x00e380b8      0x1ec ../G4Capstone_bsp//libucosii_bsp.a(osportco.o)
                0x00e380b8                global_tcb_ext
                0x00e381b4                global_TCPwakeup_set
 COMMON         0x00e382a4       0x58 ../G4Capstone_bsp//libucosii_bsp.a(targnios.o)
                0x00e382a4                resid_semaphore
                0x00e382e4                app_semaphore
 COMMON         0x00e382fc       0x78 ../G4Capstone_bsp//libucosii_bsp.a(nptcp.o)
                0x00e382fc                soq
                0x00e38310                tcpmib
                0x00e3834c                mbufq
                0x00e38360                mfreeq
 COMMON         0x00e38374       0x28 ../G4Capstone_bsp//libucosii_bsp.a(tcp_in.o)
                0x00e38374                tcp_saveti
 COMMON         0x00e3839c      0x10c ../G4Capstone_bsp//libucosii_bsp.a(tcp_subr.o)
                0x00e3839c                tcb
                0x00e383c8                tcpstat
 COMMON         0x00e384a8      0x100 ../G4Capstone_bsp//libucosii_bsp.a(alt_irq_handler.o)
                0x00e384a8                alt_irq
 COMMON         0x00e385a8       0x64 ../G4Capstone_bsp//libucosii_bsp.a(timeouts.o)
                0x00e385a8                intimers
 COMMON         0x00e3860c      0x100 ../G4Capstone_bsp//libucosii_bsp.a(et_arp.o)
                0x00e3860c                arp_table
 COMMON         0x00e3870c       0x14 ../G4Capstone_bsp//libucosii_bsp.a(iface.o)
                0x00e3870c                netlist
 COMMON         0x00e38720       0x50 ../G4Capstone_bsp//libucosii_bsp.a(ip.o)
                0x00e38720                ip_mib
 COMMON         0x00e38770       0x18 ../G4Capstone_bsp//libucosii_bsp.a(ip_reasm.o)
                0x00e38770                ire_stats
 COMMON         0x00e38788       0x10 ../G4Capstone_bsp//libucosii_bsp.a(udp.o)
                0x00e38788                udp_mib
 COMMON         0x00e38798       0x68 ../G4Capstone_bsp//libucosii_bsp.a(icmp.o)
                0x00e38798                icmp_mib
 COMMON         0x00e38800      0x190 /OPT/altera/12.1/tools/nios2eds/bin/gnu/H-i686-pc-linux-gnu/bin/../lib/gcc/nios2-elf/4.1.2/../../../../nios2-elf/lib/libc.a(lib_a-atexit.o)
                0x00e38800                _atexit0
                0x00e38990                . = ALIGN (0x4)
                0x00e38990                __bss_end = ABSOLUTE (.)

.sdram_0        0x00e38990        0x0
                0x00e38990                PROVIDE (_alt_partition_sdram_0_start, ABSOLUTE (.))
 *(.sdram_0. sdram_0.*)
                0x00e38990                . = ALIGN (0x4)
                0x00e38990                PROVIDE (_alt_partition_sdram_0_end, ABSOLUTE (.))
                0x00e38990                _end = ABSOLUTE (.)
                0x00e38990                end = ABSOLUTE (.)
                0x00e38990                __alt_stack_base = ABSOLUTE (.)
                0x00e38990                PROVIDE (_alt_partition_sdram_0_load_addr, LOADADDR (.sdram_0))

.generic_tristate_controller_0
                0x01400020        0x0
                0x01400020                PROVIDE (_alt_partition_generic_tristate_controller_0_start, ABSOLUTE (.))
 *(.generic_tristate_controller_0. generic_tristate_controller_0.*)
                0x01400020                . = ALIGN (0x4)
                0x01400020                PROVIDE (_alt_partition_generic_tristate_controller_0_end, ABSOLUTE (.))
                0x01400020                PROVIDE (_alt_partition_generic_tristate_controller_0_load_addr, LOADADDR (.generic_tristate_controller_0))

.sram_0         0x01880000        0x0
                0x01880000                PROVIDE (_alt_partition_sram_0_start, ABSOLUTE (.))
 *(.sram_0. sram_0.*)
                0x01880000                . = ALIGN (0x4)
                0x01880000                PROVIDE (_alt_partition_sram_0_end, ABSOLUTE (.))
                0x01880000                PROVIDE (_alt_partition_sram_0_load_addr, LOADADDR (.sram_0))

.onchip_memory2_0
                0x019041bc        0x0
                0x019041bc                PROVIDE (_alt_partition_onchip_memory2_0_start, ABSOLUTE (.))
 *(.onchip_memory2_0. onchip_memory2_0.*)
                0x019041bc                . = ALIGN (0x4)
                0x019041bc                PROVIDE (_alt_partition_onchip_memory2_0_end, ABSOLUTE (.))
                0x019041bc                PROVIDE (_alt_partition_onchip_memory2_0_load_addr, LOADADDR (.onchip_memory2_0))

.stab
 *(.stab)

.stabstr
 *(.stabstr)

.stab.excl
 *(.stab.excl)

.stab.exclstr
 *(.stab.exclstr)

.stab.index
 *(.stab.index)

.stab.indexstr
 *(.stab.indexstr)

.comment        0x00000000       0x26
 *(.comment)
 .comment       0x00000000       0x26 obj/default/alt_error_handler.o
                                 0x27 (size before relaxing)
 .comment       0x00000000       0x27 obj/default/dm9000a.o
 .comment       0x00000000       0x27 obj/default/http.o
 .comment       0x00000000       0x27 obj/default/network_utilities.o
 .comment       0x00000000       0x27 obj/default/srec_flash.o
 .comment       0x00000000       0x27 obj/default/web_server.o
 .comment       0x00000000       0x27 /OPT/altera/12.1/tools/nios2eds/bin/gnu/H-i686-pc-linux-gnu/bin/../lib/gcc/nios2-elf/4.1.2/libgcc.a(lib2-divmod.o)
 .comment       0x00000000       0x27 /OPT/altera/12.1/tools/nios2eds/bin/gnu/H-i686-pc-linux-gnu/bin/../lib/gcc/nios2-elf/4.1.2/../../../../nios2-elf/lib/libc.a(lib_a-atoi.o)
 .comment       0x00000000       0x27 /OPT/altera/12.1/tools/nios2eds/bin/gnu/H-i686-pc-linux-gnu/bin/../lib/gcc/nios2-elf/4.1.2/../../../../nios2-elf/lib/libc.a(lib_a-ctype_.o)
 .comment       0x00000000       0x27 /OPT/altera/12.1/tools/nios2eds/bin/gnu/H-i686-pc-linux-gnu/bin/../lib/gcc/nios2-elf/4.1.2/../../../../nios2-elf/lib/libc.a(lib_a-fclose.o)
 .comment       0x00000000       0x27 /OPT/altera/12.1/tools/nios2eds/bin/gnu/H-i686-pc-linux-gnu/bin/../lib/gcc/nios2-elf/4.1.2/../../../../nios2-elf/lib/libc.a(lib_a-fflush.o)
 .comment       0x00000000       0x27 /OPT/altera/12.1/tools/nios2eds/bin/gnu/H-i686-pc-linux-gnu/bin/../lib/gcc/nios2-elf/4.1.2/../../../../nios2-elf/lib/libc.a(lib_a-fgetpos.o)
 .comment       0x00000000       0x27 /OPT/altera/12.1/tools/nios2eds/bin/gnu/H-i686-pc-linux-gnu/bin/../lib/gcc/nios2-elf/4.1.2/../../../../nios2-elf/lib/libc.a(lib_a-findfp.o)
 .comment       0x00000000       0x27 /OPT/altera/12.1/tools/nios2eds/bin/gnu/H-i686-pc-linux-gnu/bin/../lib/gcc/nios2-elf/4.1.2/../../../../nios2-elf/lib/libc.a(lib_a-fopen.o)
 .comment       0x00000000       0x27 /OPT/altera/12.1/tools/nios2eds/bin/gnu/H-i686-pc-linux-gnu/bin/../lib/gcc/nios2-elf/4.1.2/../../../../nios2-elf/lib/libc.a(lib_a-fprintf.o)
 .comment       0x00000000       0x27 /OPT/altera/12.1/tools/nios2eds/bin/gnu/H-i686-pc-linux-gnu/bin/../lib/gcc/nios2-elf/4.1.2/../../../../nios2-elf/lib/libc.a(lib_a-fread.o)
 .comment       0x00000000       0x27 /OPT/altera/12.1/tools/nios2eds/bin/gnu/H-i686-pc-linux-gnu/bin/../lib/gcc/nios2-elf/4.1.2/../../../../nios2-elf/lib/libc.a(lib_a-freer.o)
 .comment       0x00000000       0x27 /OPT/altera/12.1/tools/nios2eds/bin/gnu/H-i686-pc-linux-gnu/bin/../lib/gcc/nios2-elf/4.1.2/../../../../nios2-elf/lib/libc.a(lib_a-fseek.o)
 .comment       0x00000000       0x27 /OPT/altera/12.1/tools/nios2eds/bin/gnu/H-i686-pc-linux-gnu/bin/../lib/gcc/nios2-elf/4.1.2/../../../../nios2-elf/lib/libc.a(lib_a-fstatr.o)
 .comment       0x00000000       0x27 /OPT/altera/12.1/tools/nios2eds/bin/gnu/H-i686-pc-linux-gnu/bin/../lib/gcc/nios2-elf/4.1.2/../../../../nios2-elf/lib/libc.a(lib_a-ftell.o)
 .comment       0x00000000       0x27 /OPT/altera/12.1/tools/nios2eds/bin/gnu/H-i686-pc-linux-gnu/bin/../lib/gcc/nios2-elf/4.1.2/../../../../nios2-elf/lib/libc.a(lib_a-fwalk.o)
 .comment       0x00000000       0x27 /OPT/altera/12.1/tools/nios2eds/bin/gnu/H-i686-pc-linux-gnu/bin/../lib/gcc/nios2-elf/4.1.2/../../../../nios2-elf/lib/libc.a(lib_a-fwrite.o)
 .comment       0x00000000       0x27 /OPT/altera/12.1/tools/nios2eds/bin/gnu/H-i686-pc-linux-gnu/bin/../lib/gcc/nios2-elf/4.1.2/../../../../nios2-elf/lib/libc.a(lib_a-impure.o)
 .comment       0x00000000       0x27 /OPT/altera/12.1/tools/nios2eds/bin/gnu/H-i686-pc-linux-gnu/bin/../lib/gcc/nios2-elf/4.1.2/../../../../nios2-elf/lib/libc.a(lib_a-int_errno.o)
 .comment       0x00000000       0x27 /OPT/altera/12.1/tools/nios2eds/bin/gnu/H-i686-pc-linux-gnu/bin/../lib/gcc/nios2-elf/4.1.2/../../../../nios2-elf/lib/libc.a(lib_a-makebuf.o)
 .comment       0x00000000       0x27 /OPT/altera/12.1/tools/nios2eds/bin/gnu/H-i686-pc-linux-gnu/bin/../lib/gcc/nios2-elf/4.1.2/../../../../nios2-elf/lib/libc.a(lib_a-mallocr.o)
 .comment       0x00000000       0x27 /OPT/altera/12.1/tools/nios2eds/bin/gnu/H-i686-pc-linux-gnu/bin/../lib/gcc/nios2-elf/4.1.2/../../../../nios2-elf/lib/libc.a(lib_a-memcpy.o)
 .comment       0x00000000       0x27 /OPT/altera/12.1/tools/nios2eds/bin/gnu/H-i686-pc-linux-gnu/bin/../lib/gcc/nios2-elf/4.1.2/../../../../nios2-elf/lib/libc.a(lib_a-memmove.o)
 .comment       0x00000000       0x27 /OPT/altera/12.1/tools/nios2eds/bin/gnu/H-i686-pc-linux-gnu/bin/../lib/gcc/nios2-elf/4.1.2/../../../../nios2-elf/lib/libc.a(lib_a-memset.o)
 .comment       0x00000000       0x27 /OPT/altera/12.1/tools/nios2eds/bin/gnu/H-i686-pc-linux-gnu/bin/../lib/gcc/nios2-elf/4.1.2/../../../../nios2-elf/lib/libc.a(lib_a-openr.o)
 .comment       0x00000000       0x27 /OPT/altera/12.1/tools/nios2eds/bin/gnu/H-i686-pc-linux-gnu/bin/../lib/gcc/nios2-elf/4.1.2/../../../../nios2-elf/lib/libc.a(lib_a-perror.o)
 .comment       0x00000000       0x27 /OPT/altera/12.1/tools/nios2eds/bin/gnu/H-i686-pc-linux-gnu/bin/../lib/gcc/nios2-elf/4.1.2/../../../../nios2-elf/lib/libc.a(lib_a-printf.o)
 .comment       0x00000000       0x27 /OPT/altera/12.1/tools/nios2eds/bin/gnu/H-i686-pc-linux-gnu/bin/../lib/gcc/nios2-elf/4.1.2/../../../../nios2-elf/lib/libc.a(lib_a-puts.o)
 .comment       0x00000000       0x27 /OPT/altera/12.1/tools/nios2eds/bin/gnu/H-i686-pc-linux-gnu/bin/../lib/gcc/nios2-elf/4.1.2/../../../../nios2-elf/lib/libc.a(lib_a-refill.o)
 .comment       0x00000000       0x27 /OPT/altera/12.1/tools/nios2eds/bin/gnu/H-i686-pc-linux-gnu/bin/../lib/gcc/nios2-elf/4.1.2/../../../../nios2-elf/lib/libc.a(lib_a-sbrkr.o)
 .comment       0x00000000       0x27 /OPT/altera/12.1/tools/nios2eds/bin/gnu/H-i686-pc-linux-gnu/bin/../lib/gcc/nios2-elf/4.1.2/../../../../nios2-elf/lib/libc.a(lib_a-sprintf.o)
 .comment       0x00000000       0x27 /OPT/altera/12.1/tools/nios2eds/bin/gnu/H-i686-pc-linux-gnu/bin/../lib/gcc/nios2-elf/4.1.2/../../../../nios2-elf/lib/libc.a(lib_a-sscanf.o)
 .comment       0x00000000       0x27 /OPT/altera/12.1/tools/nios2eds/bin/gnu/H-i686-pc-linux-gnu/bin/../lib/gcc/nios2-elf/4.1.2/../../../../nios2-elf/lib/libc.a(lib_a-stdio.o)
 .comment       0x00000000       0x27 /OPT/altera/12.1/tools/nios2eds/bin/gnu/H-i686-pc-linux-gnu/bin/../lib/gcc/nios2-elf/4.1.2/../../../../nios2-elf/lib/libc.a(lib_a-strcasecmp.o)
 .comment       0x00000000       0x27 /OPT/altera/12.1/tools/nios2eds/bin/gnu/H-i686-pc-linux-gnu/bin/../lib/gcc/nios2-elf/4.1.2/../../../../nios2-elf/lib/libc.a(lib_a-strcat.o)
 .comment       0x00000000       0x27 /OPT/altera/12.1/tools/nios2eds/bin/gnu/H-i686-pc-linux-gnu/bin/../lib/gcc/nios2-elf/4.1.2/../../../../nios2-elf/lib/libc.a(lib_a-strchr.o)
 .comment       0x00000000       0x27 /OPT/altera/12.1/tools/nios2eds/bin/gnu/H-i686-pc-linux-gnu/bin/../lib/gcc/nios2-elf/4.1.2/../../../../nios2-elf/lib/libc.a(lib_a-strcmp.o)
 .comment       0x00000000       0x27 /OPT/altera/12.1/tools/nios2eds/bin/gnu/H-i686-pc-linux-gnu/bin/../lib/gcc/nios2-elf/4.1.2/../../../../nios2-elf/lib/libc.a(lib_a-strcpy.o)
 .comment       0x00000000       0x27 /OPT/altera/12.1/tools/nios2eds/bin/gnu/H-i686-pc-linux-gnu/bin/../lib/gcc/nios2-elf/4.1.2/../../../../nios2-elf/lib/libc.a(lib_a-strerror.o)
 .comment       0x00000000       0x27 /OPT/altera/12.1/tools/nios2eds/bin/gnu/H-i686-pc-linux-gnu/bin/../lib/gcc/nios2-elf/4.1.2/../../../../nios2-elf/lib/libc.a(lib_a-strlen.o)
 .comment       0x00000000       0x27 /OPT/altera/12.1/tools/nios2eds/bin/gnu/H-i686-pc-linux-gnu/bin/../lib/gcc/nios2-elf/4.1.2/../../../../nios2-elf/lib/libc.a(lib_a-strncmp.o)
 .comment       0x00000000       0x27 /OPT/altera/12.1/tools/nios2eds/bin/gnu/H-i686-pc-linux-gnu/bin/../lib/gcc/nios2-elf/4.1.2/../../../../nios2-elf/lib/libc.a(lib_a-strncpy.o)
 .comment       0x00000000       0x27 /OPT/altera/12.1/tools/nios2eds/bin/gnu/H-i686-pc-linux-gnu/bin/../lib/gcc/nios2-elf/4.1.2/../../../../nios2-elf/lib/libc.a(lib_a-strstr.o)
 .comment       0x00000000       0x27 /OPT/altera/12.1/tools/nios2eds/bin/gnu/H-i686-pc-linux-gnu/bin/../lib/gcc/nios2-elf/4.1.2/../../../../nios2-elf/lib/libc.a(lib_a-strtok.o)
 .comment       0x00000000       0x27 /OPT/altera/12.1/tools/nios2eds/bin/gnu/H-i686-pc-linux-gnu/bin/../lib/gcc/nios2-elf/4.1.2/../../../../nios2-elf/lib/libc.a(lib_a-strtok_r.o)
 .comment       0x00000000       0x27 /OPT/altera/12.1/tools/nios2eds/bin/gnu/H-i686-pc-linux-gnu/bin/../lib/gcc/nios2-elf/4.1.2/../../../../nios2-elf/lib/libc.a(lib_a-strtol.o)
 .comment       0x00000000       0x27 /OPT/altera/12.1/tools/nios2eds/bin/gnu/H-i686-pc-linux-gnu/bin/../lib/gcc/nios2-elf/4.1.2/../../../../nios2-elf/lib/libc.a(lib_a-u_strerr.o)
 .comment       0x00000000       0x27 /OPT/altera/12.1/tools/nios2eds/bin/gnu/H-i686-pc-linux-gnu/bin/../lib/gcc/nios2-elf/4.1.2/../../../../nios2-elf/lib/libc.a(lib_a-vfprintf.o)
 .comment       0x00000000       0x27 /OPT/altera/12.1/tools/nios2eds/bin/gnu/H-i686-pc-linux-gnu/bin/../lib/gcc/nios2-elf/4.1.2/../../../../nios2-elf/lib/libc.a(lib_a-vfscanf.o)
 .comment       0x00000000       0x27 /OPT/altera/12.1/tools/nios2eds/bin/gnu/H-i686-pc-linux-gnu/bin/../lib/gcc/nios2-elf/4.1.2/../../../../nios2-elf/lib/libc.a(lib_a-writer.o)
 .comment       0x00000000       0x27 /OPT/altera/12.1/tools/nios2eds/bin/gnu/H-i686-pc-linux-gnu/bin/../lib/gcc/nios2-elf/4.1.2/../../../../nios2-elf/lib/libc.a(lib_a-wsetup.o)
 .comment       0x00000000       0x27 /OPT/altera/12.1/tools/nios2eds/bin/gnu/H-i686-pc-linux-gnu/bin/../lib/gcc/nios2-elf/4.1.2/../../../../nios2-elf/lib/libc.a(lib_a-closer.o)
 .comment       0x00000000       0x27 /OPT/altera/12.1/tools/nios2eds/bin/gnu/H-i686-pc-linux-gnu/bin/../lib/gcc/nios2-elf/4.1.2/../../../../nios2-elf/lib/libc.a(lib_a-dtoa.o)
 .comment       0x00000000       0x27 /OPT/altera/12.1/tools/nios2eds/bin/gnu/H-i686-pc-linux-gnu/bin/../lib/gcc/nios2-elf/4.1.2/../../../../nios2-elf/lib/libc.a(lib_a-flags.o)
 .comment       0x00000000       0x27 /OPT/altera/12.1/tools/nios2eds/bin/gnu/H-i686-pc-linux-gnu/bin/../lib/gcc/nios2-elf/4.1.2/../../../../nios2-elf/lib/libc.a(lib_a-fputc.o)
 .comment       0x00000000       0x27 /OPT/altera/12.1/tools/nios2eds/bin/gnu/H-i686-pc-linux-gnu/bin/../lib/gcc/nios2-elf/4.1.2/../../../../nios2-elf/lib/libc.a(lib_a-fputs.o)
 .comment       0x00000000       0x27 /OPT/altera/12.1/tools/nios2eds/bin/gnu/H-i686-pc-linux-gnu/bin/../lib/gcc/nios2-elf/4.1.2/../../../../nios2-elf/lib/libc.a(lib_a-fvwrite.o)
 .comment       0x00000000       0x27 /OPT/altera/12.1/tools/nios2eds/bin/gnu/H-i686-pc-linux-gnu/bin/../lib/gcc/nios2-elf/4.1.2/../../../../nios2-elf/lib/libc.a(lib_a-isattyr.o)
 .comment       0x00000000       0x27 /OPT/altera/12.1/tools/nios2eds/bin/gnu/H-i686-pc-linux-gnu/bin/../lib/gcc/nios2-elf/4.1.2/../../../../nios2-elf/lib/libc.a(lib_a-iswspace.o)
 .comment       0x00000000       0x27 /OPT/altera/12.1/tools/nios2eds/bin/gnu/H-i686-pc-linux-gnu/bin/../lib/gcc/nios2-elf/4.1.2/../../../../nios2-elf/lib/libc.a(lib_a-locale.o)
 .comment       0x00000000       0x27 /OPT/altera/12.1/tools/nios2eds/bin/gnu/H-i686-pc-linux-gnu/bin/../lib/gcc/nios2-elf/4.1.2/../../../../nios2-elf/lib/libc.a(lib_a-lseekr.o)
 .comment       0x00000000       0x27 /OPT/altera/12.1/tools/nios2eds/bin/gnu/H-i686-pc-linux-gnu/bin/../lib/gcc/nios2-elf/4.1.2/../../../../nios2-elf/lib/libc.a(lib_a-mbrtowc.o)
 .comment       0x00000000       0x27 /OPT/altera/12.1/tools/nios2eds/bin/gnu/H-i686-pc-linux-gnu/bin/../lib/gcc/nios2-elf/4.1.2/../../../../nios2-elf/lib/libc.a(lib_a-mbtowc_r.o)
 .comment       0x00000000       0x27 /OPT/altera/12.1/tools/nios2eds/bin/gnu/H-i686-pc-linux-gnu/bin/../lib/gcc/nios2-elf/4.1.2/../../../../nios2-elf/lib/libc.a(lib_a-memchr.o)
 .comment       0x00000000       0x27 /OPT/altera/12.1/tools/nios2eds/bin/gnu/H-i686-pc-linux-gnu/bin/../lib/gcc/nios2-elf/4.1.2/../../../../nios2-elf/lib/libc.a(lib_a-memcmp.o)
 .comment       0x00000000       0x27 /OPT/altera/12.1/tools/nios2eds/bin/gnu/H-i686-pc-linux-gnu/bin/../lib/gcc/nios2-elf/4.1.2/../../../../nios2-elf/lib/libc.a(lib_a-mprec.o)
 .comment       0x00000000       0x27 /OPT/altera/12.1/tools/nios2eds/bin/gnu/H-i686-pc-linux-gnu/bin/../lib/gcc/nios2-elf/4.1.2/../../../../nios2-elf/lib/libc.a(lib_a-putc.o)
 .comment       0x00000000       0x27 /OPT/altera/12.1/tools/nios2eds/bin/gnu/H-i686-pc-linux-gnu/bin/../lib/gcc/nios2-elf/4.1.2/../../../../nios2-elf/lib/libc.a(lib_a-readr.o)
 .comment       0x00000000       0x27 /OPT/altera/12.1/tools/nios2eds/bin/gnu/H-i686-pc-linux-gnu/bin/../lib/gcc/nios2-elf/4.1.2/../../../../nios2-elf/lib/libc.a(lib_a-reallocr.o)
 .comment       0x00000000       0x27 /OPT/altera/12.1/tools/nios2eds/bin/gnu/H-i686-pc-linux-gnu/bin/../lib/gcc/nios2-elf/4.1.2/../../../../nios2-elf/lib/libc.a(lib_a-s_isinfd.o)
 .comment       0x00000000       0x27 /OPT/altera/12.1/tools/nios2eds/bin/gnu/H-i686-pc-linux-gnu/bin/../lib/gcc/nios2-elf/4.1.2/../../../../nios2-elf/lib/libc.a(lib_a-s_isnand.o)
 .comment       0x00000000       0x27 /OPT/altera/12.1/tools/nios2eds/bin/gnu/H-i686-pc-linux-gnu/bin/../lib/gcc/nios2-elf/4.1.2/../../../../nios2-elf/lib/libc.a(lib_a-sccl.o)
 .comment       0x00000000       0x27 /OPT/altera/12.1/tools/nios2eds/bin/gnu/H-i686-pc-linux-gnu/bin/../lib/gcc/nios2-elf/4.1.2/../../../../nios2-elf/lib/libc.a(lib_a-sf_nan.o)
 .comment       0x00000000       0x27 /OPT/altera/12.1/tools/nios2eds/bin/gnu/H-i686-pc-linux-gnu/bin/../lib/gcc/nios2-elf/4.1.2/../../../../nios2-elf/lib/libc.a(lib_a-strtod.o)
 .comment       0x00000000       0x27 /OPT/altera/12.1/tools/nios2eds/bin/gnu/H-i686-pc-linux-gnu/bin/../lib/gcc/nios2-elf/4.1.2/../../../../nios2-elf/lib/libc.a(lib_a-strtoll_r.o)
 .comment       0x00000000       0x27 /OPT/altera/12.1/tools/nios2eds/bin/gnu/H-i686-pc-linux-gnu/bin/../lib/gcc/nios2-elf/4.1.2/../../../../nios2-elf/lib/libc.a(lib_a-strtoul.o)
 .comment       0x00000000       0x27 /OPT/altera/12.1/tools/nios2eds/bin/gnu/H-i686-pc-linux-gnu/bin/../lib/gcc/nios2-elf/4.1.2/../../../../nios2-elf/lib/libc.a(lib_a-strtoull_r.o)
 .comment       0x00000000       0x27 /OPT/altera/12.1/tools/nios2eds/bin/gnu/H-i686-pc-linux-gnu/bin/../lib/gcc/nios2-elf/4.1.2/../../../../nios2-elf/lib/libc.a(lib_a-ungetc.o)
 .comment       0x00000000       0x27 /OPT/altera/12.1/tools/nios2eds/bin/gnu/H-i686-pc-linux-gnu/bin/../lib/gcc/nios2-elf/4.1.2/../../../../nios2-elf/lib/libc.a(lib_a-wbuf.o)
 .comment       0x00000000       0x27 /OPT/altera/12.1/tools/nios2eds/bin/gnu/H-i686-pc-linux-gnu/bin/../lib/gcc/nios2-elf/4.1.2/../../../../nios2-elf/lib/libc.a(lib_a-callocr.o)
 .comment       0x00000000       0x27 /OPT/altera/12.1/tools/nios2eds/bin/gnu/H-i686-pc-linux-gnu/bin/../lib/gcc/nios2-elf/4.1.2/../../../../nios2-elf/lib/libc.a(lib_a-gdtoa-gethex.o)
 .comment       0x00000000       0x27 /OPT/altera/12.1/tools/nios2eds/bin/gnu/H-i686-pc-linux-gnu/bin/../lib/gcc/nios2-elf/4.1.2/../../../../nios2-elf/lib/libc.a(lib_a-gdtoa-hexnan.o)
 .comment       0x00000000       0x27 /OPT/altera/12.1/tools/nios2eds/bin/gnu/H-i686-pc-linux-gnu/bin/../lib/gcc/nios2-elf/4.1.2/libgcc.a(_muldi3.o)
 .comment       0x00000000       0x27 /OPT/altera/12.1/tools/nios2eds/bin/gnu/H-i686-pc-linux-gnu/bin/../lib/gcc/nios2-elf/4.1.2/libgcc.a(_fixunsdfsi.o)
 .comment       0x00000000       0x27 /OPT/altera/12.1/tools/nios2eds/bin/gnu/H-i686-pc-linux-gnu/bin/../lib/gcc/nios2-elf/4.1.2/libgcc.a(_udivdi3.o)
 .comment       0x00000000       0x27 /OPT/altera/12.1/tools/nios2eds/bin/gnu/H-i686-pc-linux-gnu/bin/../lib/gcc/nios2-elf/4.1.2/libgcc.a(_umoddi3.o)
 .comment       0x00000000       0x27 /OPT/altera/12.1/tools/nios2eds/bin/gnu/H-i686-pc-linux-gnu/bin/../lib/gcc/nios2-elf/4.1.2/libgcc.a(_ne_sf.o)
 .comment       0x00000000       0x27 /OPT/altera/12.1/tools/nios2eds/bin/gnu/H-i686-pc-linux-gnu/bin/../lib/gcc/nios2-elf/4.1.2/libgcc.a(_gt_sf.o)
 .comment       0x00000000       0x27 /OPT/altera/12.1/tools/nios2eds/bin/gnu/H-i686-pc-linux-gnu/bin/../lib/gcc/nios2-elf/4.1.2/libgcc.a(_lt_sf.o)
 .comment       0x00000000       0x27 /OPT/altera/12.1/tools/nios2eds/bin/gnu/H-i686-pc-linux-gnu/bin/../lib/gcc/nios2-elf/4.1.2/libgcc.a(_addsub_df.o)
 .comment       0x00000000       0x27 /OPT/altera/12.1/tools/nios2eds/bin/gnu/H-i686-pc-linux-gnu/bin/../lib/gcc/nios2-elf/4.1.2/libgcc.a(_mul_df.o)
 .comment       0x00000000       0x27 /OPT/altera/12.1/tools/nios2eds/bin/gnu/H-i686-pc-linux-gnu/bin/../lib/gcc/nios2-elf/4.1.2/libgcc.a(_div_df.o)
 .comment       0x00000000       0x27 /OPT/altera/12.1/tools/nios2eds/bin/gnu/H-i686-pc-linux-gnu/bin/../lib/gcc/nios2-elf/4.1.2/libgcc.a(_eq_df.o)
 .comment       0x00000000       0x27 /OPT/altera/12.1/tools/nios2eds/bin/gnu/H-i686-pc-linux-gnu/bin/../lib/gcc/nios2-elf/4.1.2/libgcc.a(_ne_df.o)
 .comment       0x00000000       0x27 /OPT/altera/12.1/tools/nios2eds/bin/gnu/H-i686-pc-linux-gnu/bin/../lib/gcc/nios2-elf/4.1.2/libgcc.a(_gt_df.o)
 .comment       0x00000000       0x27 /OPT/altera/12.1/tools/nios2eds/bin/gnu/H-i686-pc-linux-gnu/bin/../lib/gcc/nios2-elf/4.1.2/libgcc.a(_ge_df.o)
 .comment       0x00000000       0x27 /OPT/altera/12.1/tools/nios2eds/bin/gnu/H-i686-pc-linux-gnu/bin/../lib/gcc/nios2-elf/4.1.2/libgcc.a(_lt_df.o)
 .comment       0x00000000       0x27 /OPT/altera/12.1/tools/nios2eds/bin/gnu/H-i686-pc-linux-gnu/bin/../lib/gcc/nios2-elf/4.1.2/libgcc.a(_le_df.o)
 .comment       0x00000000       0x27 /OPT/altera/12.1/tools/nios2eds/bin/gnu/H-i686-pc-linux-gnu/bin/../lib/gcc/nios2-elf/4.1.2/libgcc.a(_si_to_df.o)
 .comment       0x00000000       0x27 /OPT/altera/12.1/tools/nios2eds/bin/gnu/H-i686-pc-linux-gnu/bin/../lib/gcc/nios2-elf/4.1.2/libgcc.a(_df_to_si.o)
 .comment       0x00000000       0x27 /OPT/altera/12.1/tools/nios2eds/bin/gnu/H-i686-pc-linux-gnu/bin/../lib/gcc/nios2-elf/4.1.2/libgcc.a(_df_to_sf.o)
 .comment       0x00000000       0x27 /OPT/altera/12.1/tools/nios2eds/bin/gnu/H-i686-pc-linux-gnu/bin/../lib/gcc/nios2-elf/4.1.2/libgcc.a(_thenan_df.o)
 .comment       0x00000000       0x27 /OPT/altera/12.1/tools/nios2eds/bin/gnu/H-i686-pc-linux-gnu/bin/../lib/gcc/nios2-elf/4.1.2/libgcc.a(_usi_to_df.o)
 .comment       0x00000000       0x27 /OPT/altera/12.1/tools/nios2eds/bin/gnu/H-i686-pc-linux-gnu/bin/../lib/gcc/nios2-elf/4.1.2/libgcc.a(_clz.o)
 .comment       0x00000000       0x27 /OPT/altera/12.1/tools/nios2eds/bin/gnu/H-i686-pc-linux-gnu/bin/../lib/gcc/nios2-elf/4.1.2/libgcc.a(_clzsi2.o)
 .comment       0x00000000       0x27 /OPT/altera/12.1/tools/nios2eds/bin/gnu/H-i686-pc-linux-gnu/bin/../lib/gcc/nios2-elf/4.1.2/libgcc.a(_unpack_sf.o)
 .comment       0x00000000       0x27 /OPT/altera/12.1/tools/nios2eds/bin/gnu/H-i686-pc-linux-gnu/bin/../lib/gcc/nios2-elf/4.1.2/libgcc.a(_fpcmp_parts_sf.o)
 .comment       0x00000000       0x27 /OPT/altera/12.1/tools/nios2eds/bin/gnu/H-i686-pc-linux-gnu/bin/../lib/gcc/nios2-elf/4.1.2/libgcc.a(_make_sf.o)
 .comment       0x00000000       0x27 /OPT/altera/12.1/tools/nios2eds/bin/gnu/H-i686-pc-linux-gnu/bin/../lib/gcc/nios2-elf/4.1.2/libgcc.a(_pack_df.o)
 .comment       0x00000000       0x27 /OPT/altera/12.1/tools/nios2eds/bin/gnu/H-i686-pc-linux-gnu/bin/../lib/gcc/nios2-elf/4.1.2/libgcc.a(_unpack_df.o)
 .comment       0x00000000       0x27 /OPT/altera/12.1/tools/nios2eds/bin/gnu/H-i686-pc-linux-gnu/bin/../lib/gcc/nios2-elf/4.1.2/libgcc.a(_fpcmp_parts_df.o)
 .comment       0x00000000       0x27 /OPT/altera/12.1/tools/nios2eds/bin/gnu/H-i686-pc-linux-gnu/bin/../lib/gcc/nios2-elf/4.1.2/libgcc.a(_pack_sf.o)
 .comment       0x00000000       0x27 ../G4Capstone_bsp//libucosii_bsp.a(alt_dcache_flush.o)
 .comment       0x00000000       0x27 ../G4Capstone_bsp//libucosii_bsp.a(alt_flash_dev.o)
 .comment       0x00000000       0x27 ../G4Capstone_bsp//libucosii_bsp.a(alt_fstat.o)
 .comment       0x00000000       0x27 ../G4Capstone_bsp//libucosii_bsp.a(alt_irq_register.o)
 .comment       0x00000000       0x27 ../G4Capstone_bsp//libucosii_bsp.a(alt_irq_vars.o)
 .comment       0x00000000       0x27 ../G4Capstone_bsp//libucosii_bsp.a(alt_isatty.o)
 .comment       0x00000000       0x27 ../G4Capstone_bsp//libucosii_bsp.a(alt_lseek.o)
 .comment       0x00000000       0x27 ../G4Capstone_bsp//libucosii_bsp.a(alt_main.o)
 .comment       0x00000000       0x27 ../G4Capstone_bsp//libucosii_bsp.a(alt_open.o)
 .comment       0x00000000       0x27 ../G4Capstone_bsp//libucosii_bsp.a(alt_release_fd.o)
 .comment       0x00000000       0x27 ../G4Capstone_bsp//libucosii_bsp.a(alt_sbrk.o)
 .comment       0x00000000       0x27 ../G4Capstone_bsp//libucosii_bsp.a(alt_tick.o)
 .comment       0x00000000       0x27 ../G4Capstone_bsp//libucosii_bsp.a(alt_usleep.o)
 .comment       0x00000000       0x27 ../G4Capstone_bsp//libucosii_bsp.a(alt_env_lock.o)
 .comment       0x00000000       0x27 ../G4Capstone_bsp//libucosii_bsp.a(alt_malloc_lock.o)
 .comment       0x00000000       0x27 ../G4Capstone_bsp//libucosii_bsp.a(os_core.o)
 .comment       0x00000000       0x27 ../G4Capstone_bsp//libucosii_bsp.a(os_dbg.o)
 .comment       0x00000000       0x27 ../G4Capstone_bsp//libucosii_bsp.a(os_flag.o)
 .comment       0x00000000       0x27 ../G4Capstone_bsp//libucosii_bsp.a(os_mbox.o)
 .comment       0x00000000       0x27 ../G4Capstone_bsp//libucosii_bsp.a(os_mem.o)
 .comment       0x00000000       0x27 ../G4Capstone_bsp//libucosii_bsp.a(os_q.o)
 .comment       0x00000000       0x27 ../G4Capstone_bsp//libucosii_bsp.a(os_sem.o)
 .comment       0x00000000       0x27 ../G4Capstone_bsp//libucosii_bsp.a(os_task.o)
 .comment       0x00000000       0x27 ../G4Capstone_bsp//libucosii_bsp.a(os_time.o)
 .comment       0x00000000       0x27 ../G4Capstone_bsp//libucosii_bsp.a(alt_sys_init.o)
 .comment       0x00000000       0x27 ../G4Capstone_bsp//libucosii_bsp.a(altera_avalon_jtag_uart_fd.o)
 .comment       0x00000000       0x27 ../G4Capstone_bsp//libucosii_bsp.a(altera_avalon_jtag_uart_init.o)
 .comment       0x00000000       0x27 ../G4Capstone_bsp//libucosii_bsp.a(altera_avalon_jtag_uart_ioctl.o)
 .comment       0x00000000       0x27 ../G4Capstone_bsp//libucosii_bsp.a(altera_avalon_jtag_uart_read.o)
 .comment       0x00000000       0x27 ../G4Capstone_bsp//libucosii_bsp.a(altera_avalon_jtag_uart_write.o)
 .comment       0x00000000       0x27 ../G4Capstone_bsp//libucosii_bsp.a(altera_avalon_timer_sc.o)
 .comment       0x00000000       0x27 ../G4Capstone_bsp//libucosii_bsp.a(altera_ro_zipfs.o)
 .comment       0x00000000       0x27 ../G4Capstone_bsp//libucosii_bsp.a(altera_up_avalon_audio_and_video_config.o)
 .comment       0x00000000       0x27 ../G4Capstone_bsp//libucosii_bsp.a(altera_up_avalon_character_lcd.o)
 .comment       0x00000000       0x27 ../G4Capstone_bsp//libucosii_bsp.a(alt_iniche_close.o)
 .comment       0x00000000       0x27 ../G4Capstone_bsp//libucosii_bsp.a(alt_iniche_dev.o)
 .comment       0x00000000       0x27 ../G4Capstone_bsp//libucosii_bsp.a(alt_iniche_read.o)
 .comment       0x00000000       0x27 ../G4Capstone_bsp//libucosii_bsp.a(alt_iniche_write.o)
 .comment       0x00000000       0x27 ../G4Capstone_bsp//libucosii_bsp.a(ipnet.o)
 .comment       0x00000000       0x27 ../G4Capstone_bsp//libucosii_bsp.a(ipstart.o)
 .comment       0x00000000       0x27 ../G4Capstone_bsp//libucosii_bsp.a(igmp_cmn.o)
 .comment       0x00000000       0x27 ../G4Capstone_bsp//libucosii_bsp.a(bsdsock.o)
 .comment       0x00000000       0x27 ../G4Capstone_bsp//libucosii_bsp.a(cksum.o)
 .comment       0x00000000       0x27 ../G4Capstone_bsp//libucosii_bsp.a(in_utils.o)
 .comment       0x00000000       0x27 ../G4Capstone_bsp//libucosii_bsp.a(netmain.o)
 .comment       0x00000000       0x27 ../G4Capstone_bsp//libucosii_bsp.a(tk_crnos.o)
 .comment       0x00000000       0x27 ../G4Capstone_bsp//libucosii_bsp.a(dhcpclnt.o)
 .comment       0x00000000       0x27 ../G4Capstone_bsp//libucosii_bsp.a(dhcputil.o)
 .comment       0x00000000       0x27 ../G4Capstone_bsp//libucosii_bsp.a(pktalloc.o)
 .comment       0x00000000       0x27 ../G4Capstone_bsp//libucosii_bsp.a(q.o)
 .comment       0x00000000       0x27 ../G4Capstone_bsp//libucosii_bsp.a(udp_open.o)
 .comment       0x00000000       0x27 ../G4Capstone_bsp//libucosii_bsp.a(brdutils.o)
 .comment       0x00000000       0x27 ../G4Capstone_bsp//libucosii_bsp.a(osportco.o)
 .comment       0x00000000       0x27 ../G4Capstone_bsp//libucosii_bsp.a(targnios.o)
 .comment       0x00000000       0x27 ../G4Capstone_bsp//libucosii_bsp.a(nptcp.o)
 .comment       0x00000000       0x27 ../G4Capstone_bsp//libucosii_bsp.a(rawsock.o)
 .comment       0x00000000       0x27 ../G4Capstone_bsp//libucosii_bsp.a(sockcall.o)
 .comment       0x00000000       0x27 ../G4Capstone_bsp//libucosii_bsp.a(socket.o)
 .comment       0x00000000       0x27 ../G4Capstone_bsp//libucosii_bsp.a(socket2.o)
 .comment       0x00000000       0x27 ../G4Capstone_bsp//libucosii_bsp.a(soselect.o)
 .comment       0x00000000       0x27 ../G4Capstone_bsp//libucosii_bsp.a(tcp_in.o)
 .comment       0x00000000       0x27 ../G4Capstone_bsp//libucosii_bsp.a(tcp_out.o)
 .comment       0x00000000       0x27 ../G4Capstone_bsp//libucosii_bsp.a(tcp_subr.o)
 .comment       0x00000000       0x27 ../G4Capstone_bsp//libucosii_bsp.a(tcp_timr.o)
 .comment       0x00000000       0x27 ../G4Capstone_bsp//libucosii_bsp.a(tcp_usr.o)
 .comment       0x00000000       0x27 ../G4Capstone_bsp//libucosii_bsp.a(tcpport.o)
 .comment       0x00000000       0x27 ../G4Capstone_bsp//libucosii_bsp.a(udpsock.o)
 .comment       0x00000000       0x27 ../G4Capstone_bsp//libucosii_bsp.a(alt_alarm_start.o)
 .comment       0x00000000       0x27 ../G4Capstone_bsp//libucosii_bsp.a(alt_busy_sleep.o)
 .comment       0x00000000       0x27 ../G4Capstone_bsp//libucosii_bsp.a(alt_close.o)
 .comment       0x00000000       0x27 ../G4Capstone_bsp//libucosii_bsp.a(alt_dev.o)
 .comment       0x00000000       0x27 ../G4Capstone_bsp//libucosii_bsp.a(alt_dev_llist_insert.o)
 .comment       0x00000000       0x27 ../G4Capstone_bsp//libucosii_bsp.a(alt_do_ctors.o)
 .comment       0x00000000       0x27 ../G4Capstone_bsp//libucosii_bsp.a(alt_do_dtors.o)
 .comment       0x00000000       0x27 ../G4Capstone_bsp//libucosii_bsp.a(alt_errno.o)
 .comment       0x00000000       0x27 ../G4Capstone_bsp//libucosii_bsp.a(alt_find_dev.o)
 .comment       0x00000000       0x27 ../G4Capstone_bsp//libucosii_bsp.a(alt_find_file.o)
 .comment       0x00000000       0x27 ../G4Capstone_bsp//libucosii_bsp.a(alt_fs_reg.o)
 .comment       0x00000000       0x27 ../G4Capstone_bsp//libucosii_bsp.a(alt_get_fd.o)
 .comment       0x00000000       0x27 ../G4Capstone_bsp//libucosii_bsp.a(alt_iic.o)
 .comment       0x00000000       0x27 ../G4Capstone_bsp//libucosii_bsp.a(alt_iic_isr_register.o)
 .comment       0x00000000       0x27 ../G4Capstone_bsp//libucosii_bsp.a(alt_io_redirect.o)
 .comment       0x00000000       0x27 ../G4Capstone_bsp//libucosii_bsp.a(alt_irq_handler.o)
 .comment       0x00000000       0x27 ../G4Capstone_bsp//libucosii_bsp.a(alt_read.o)
 .comment       0x00000000       0x27 ../G4Capstone_bsp//libucosii_bsp.a(alt_remap_cached.o)
 .comment       0x00000000       0x27 ../G4Capstone_bsp//libucosii_bsp.a(alt_remap_uncached.o)
 .comment       0x00000000       0x27 ../G4Capstone_bsp//libucosii_bsp.a(alt_write.o)
 .comment       0x00000000       0x27 ../G4Capstone_bsp//libucosii_bsp.a(altera_nios2_qsys_irq.o)
 .comment       0x00000000       0x27 ../G4Capstone_bsp//libucosii_bsp.a(os_cpu_c.o)
 .comment       0x00000000       0x27 ../G4Capstone_bsp//libucosii_bsp.a(allports.o)
 .comment       0x00000000       0x27 ../G4Capstone_bsp//libucosii_bsp.a(timeouts.o)
 .comment       0x00000000       0x27 ../G4Capstone_bsp//libucosii_bsp.a(tk_misc.o)
 .comment       0x00000000       0x27 ../G4Capstone_bsp//libucosii_bsp.a(alt_iniche_fcntl.o)
 .comment       0x00000000       0x27 ../G4Capstone_bsp//libucosii_bsp.a(et_arp.o)
 .comment       0x00000000       0x27 ../G4Capstone_bsp//libucosii_bsp.a(iface.o)
 .comment       0x00000000       0x27 ../G4Capstone_bsp//libucosii_bsp.a(ip.o)
 .comment       0x00000000       0x27 ../G4Capstone_bsp//libucosii_bsp.a(ip_reasm.o)
 .comment       0x00000000       0x27 ../G4Capstone_bsp//libucosii_bsp.a(ipdemux.o)
 .comment       0x00000000       0x27 ../G4Capstone_bsp//libucosii_bsp.a(ipmc.o)
 .comment       0x00000000       0x27 ../G4Capstone_bsp//libucosii_bsp.a(ipport.o)
 .comment       0x00000000       0x27 ../G4Capstone_bsp//libucosii_bsp.a(ipraw.o)
 .comment       0x00000000       0x27 ../G4Capstone_bsp//libucosii_bsp.a(iproute.o)
 .comment       0x00000000       0x27 ../G4Capstone_bsp//libucosii_bsp.a(udp.o)
 .comment       0x00000000       0x27 ../G4Capstone_bsp//libucosii_bsp.a(igmp.o)
 .comment       0x00000000       0x27 ../G4Capstone_bsp//libucosii_bsp.a(igmp2.o)
 .comment       0x00000000       0x27 ../G4Capstone_bsp//libucosii_bsp.a(ipopt.o)
 .comment       0x00000000       0x27 ../G4Capstone_bsp//libucosii_bsp.a(u_mctest.o)
 .comment       0x00000000       0x27 ../G4Capstone_bsp//libucosii_bsp.a(dhcsetup.o)
 .comment       0x00000000       0x27 ../G4Capstone_bsp//libucosii_bsp.a(memdev.o)
 .comment       0x00000000       0x27 ../G4Capstone_bsp//libucosii_bsp.a(parseip.o)
 .comment       0x00000000       0x27 ../G4Capstone_bsp//libucosii_bsp.a(tcpcksum.o)
 .comment       0x00000000       0x27 ../G4Capstone_bsp//libucosii_bsp.a(in_pcb.o)
 .comment       0x00000000       0x27 ../G4Capstone_bsp//libucosii_bsp.a(vfsfiles.o)
 .comment       0x00000000       0x27 ../G4Capstone_bsp//libucosii_bsp.a(vfsport.o)
 .comment       0x00000000       0x27 ../G4Capstone_bsp//libucosii_bsp.a(alt_fcntl.o)
 .comment       0x00000000       0x27 ../G4Capstone_bsp//libucosii_bsp.a(icmp.o)
 .comment       0x00000000       0x27 /OPT/altera/12.1/tools/nios2eds/bin/gnu/H-i686-pc-linux-gnu/bin/../lib/gcc/nios2-elf/4.1.2/../../../../nios2-elf/lib/libc.a(lib_a-atexit.o)
 .comment       0x00000000       0x27 /OPT/altera/12.1/tools/nios2eds/bin/gnu/H-i686-pc-linux-gnu/bin/../lib/gcc/nios2-elf/4.1.2/../../../../nios2-elf/lib/libc.a(lib_a-calloc.o)
 .comment       0x00000000       0x27 /OPT/altera/12.1/tools/nios2eds/bin/gnu/H-i686-pc-linux-gnu/bin/../lib/gcc/nios2-elf/4.1.2/../../../../nios2-elf/lib/libc.a(lib_a-exit.o)
 .comment       0x00000000       0x27 /OPT/altera/12.1/tools/nios2eds/bin/gnu/H-i686-pc-linux-gnu/bin/../lib/gcc/nios2-elf/4.1.2/../../../../nios2-elf/lib/libc.a(lib_a-getc.o)
 .comment       0x00000000       0x27 /OPT/altera/12.1/tools/nios2eds/bin/gnu/H-i686-pc-linux-gnu/bin/../lib/gcc/nios2-elf/4.1.2/../../../../nios2-elf/lib/libc.a(lib_a-malloc.o)
 .comment       0x00000000       0x27 /OPT/altera/12.1/tools/nios2eds/bin/gnu/H-i686-pc-linux-gnu/bin/../lib/gcc/nios2-elf/4.1.2/../../../../nios2-elf/lib/libc.a(lib_a-rget.o)
 .comment       0x00000000       0x27 /OPT/altera/12.1/tools/nios2eds/bin/gnu/H-i686-pc-linux-gnu/bin/../lib/gcc/nios2-elf/4.1.2/../../../../nios2-elf/lib/libc.a(lib_a-vprintf.o)
 .comment       0x00000000       0x27 /OPT/altera/12.1/tools/nios2eds/bin/gnu/H-i686-pc-linux-gnu/bin/../lib/gcc/nios2-elf/4.1.2/../../../../nios2-elf/lib/libc.a(lib_a-vsprintf.o)
 .comment       0x00000000       0x27 /OPT/altera/12.1/tools/nios2eds/bin/gnu/H-i686-pc-linux-gnu/bin/../lib/gcc/nios2-elf/4.1.2/../../../../nios2-elf/lib/libc.a(lib_a-__atexit.o)
 .comment       0x00000000       0x27 /OPT/altera/12.1/tools/nios2eds/bin/gnu/H-i686-pc-linux-gnu/bin/../lib/gcc/nios2-elf/4.1.2/../../../../nios2-elf/lib/libc.a(lib_a-__call_atexit.o)
 .comment       0x00000000       0x27 ../G4Capstone_bsp//libucosii_bsp.a(alt_exit.o)

.debug
 *(.debug)

.line
 *(.line)

.debug_srcinfo
 *(.debug_srcinfo)

.debug_sfnames
 *(.debug_sfnames)

.debug_aranges  0x00000000     0x1e70
 *(.debug_aranges)
 .debug_aranges
                0x00000000       0x20 ../G4Capstone_bsp//obj/HAL/src/crt0.o
 .debug_aranges
                0x00000020       0x20 obj/default/alt_error_handler.o
 .debug_aranges
                0x00000040       0x20 obj/default/dm9000a.o
 .debug_aranges
                0x00000060       0x20 obj/default/http.o
 .debug_aranges
                0x00000080       0x20 obj/default/network_utilities.o
 .debug_aranges
                0x000000a0       0x20 obj/default/srec_flash.o
 .debug_aranges
                0x000000c0       0x20 obj/default/web_server.o
 .debug_aranges
                0x000000e0       0x20 /OPT/altera/12.1/tools/nios2eds/bin/gnu/H-i686-pc-linux-gnu/bin/../lib/gcc/nios2-elf/4.1.2/libgcc.a(lib2-divmod.o)
 .debug_aranges
                0x00000100       0x20 /OPT/altera/12.1/tools/nios2eds/bin/gnu/H-i686-pc-linux-gnu/bin/../lib/gcc/nios2-elf/4.1.2/../../../../nios2-elf/lib/libc.a(lib_a-atoi.o)
 .debug_aranges
                0x00000120       0x20 /OPT/altera/12.1/tools/nios2eds/bin/gnu/H-i686-pc-linux-gnu/bin/../lib/gcc/nios2-elf/4.1.2/../../../../nios2-elf/lib/libc.a(lib_a-fclose.o)
 .debug_aranges
                0x00000140       0x20 /OPT/altera/12.1/tools/nios2eds/bin/gnu/H-i686-pc-linux-gnu/bin/../lib/gcc/nios2-elf/4.1.2/../../../../nios2-elf/lib/libc.a(lib_a-fflush.o)
 .debug_aranges
                0x00000160       0x20 /OPT/altera/12.1/tools/nios2eds/bin/gnu/H-i686-pc-linux-gnu/bin/../lib/gcc/nios2-elf/4.1.2/../../../../nios2-elf/lib/libc.a(lib_a-fgetpos.o)
 .debug_aranges
                0x00000180       0x20 /OPT/altera/12.1/tools/nios2eds/bin/gnu/H-i686-pc-linux-gnu/bin/../lib/gcc/nios2-elf/4.1.2/../../../../nios2-elf/lib/libc.a(lib_a-findfp.o)
 .debug_aranges
                0x000001a0       0x20 /OPT/altera/12.1/tools/nios2eds/bin/gnu/H-i686-pc-linux-gnu/bin/../lib/gcc/nios2-elf/4.1.2/../../../../nios2-elf/lib/libc.a(lib_a-fopen.o)
 .debug_aranges
                0x000001c0       0x20 /OPT/altera/12.1/tools/nios2eds/bin/gnu/H-i686-pc-linux-gnu/bin/../lib/gcc/nios2-elf/4.1.2/../../../../nios2-elf/lib/libc.a(lib_a-fprintf.o)
 .debug_aranges
                0x000001e0       0x20 /OPT/altera/12.1/tools/nios2eds/bin/gnu/H-i686-pc-linux-gnu/bin/../lib/gcc/nios2-elf/4.1.2/../../../../nios2-elf/lib/libc.a(lib_a-fread.o)
 .debug_aranges
                0x00000200       0x20 /OPT/altera/12.1/tools/nios2eds/bin/gnu/H-i686-pc-linux-gnu/bin/../lib/gcc/nios2-elf/4.1.2/../../../../nios2-elf/lib/libc.a(lib_a-freer.o)
 .debug_aranges
                0x00000220       0x20 /OPT/altera/12.1/tools/nios2eds/bin/gnu/H-i686-pc-linux-gnu/bin/../lib/gcc/nios2-elf/4.1.2/../../../../nios2-elf/lib/libc.a(lib_a-fseek.o)
 .debug_aranges
                0x00000240       0x20 /OPT/altera/12.1/tools/nios2eds/bin/gnu/H-i686-pc-linux-gnu/bin/../lib/gcc/nios2-elf/4.1.2/../../../../nios2-elf/lib/libc.a(lib_a-fstatr.o)
 .debug_aranges
                0x00000260       0x20 /OPT/altera/12.1/tools/nios2eds/bin/gnu/H-i686-pc-linux-gnu/bin/../lib/gcc/nios2-elf/4.1.2/../../../../nios2-elf/lib/libc.a(lib_a-ftell.o)
 .debug_aranges
                0x00000280       0x20 /OPT/altera/12.1/tools/nios2eds/bin/gnu/H-i686-pc-linux-gnu/bin/../lib/gcc/nios2-elf/4.1.2/../../../../nios2-elf/lib/libc.a(lib_a-fwalk.o)
 .debug_aranges
                0x000002a0       0x20 /OPT/altera/12.1/tools/nios2eds/bin/gnu/H-i686-pc-linux-gnu/bin/../lib/gcc/nios2-elf/4.1.2/../../../../nios2-elf/lib/libc.a(lib_a-fwrite.o)
 .debug_aranges
                0x000002c0       0x20 /OPT/altera/12.1/tools/nios2eds/bin/gnu/H-i686-pc-linux-gnu/bin/../lib/gcc/nios2-elf/4.1.2/../../../../nios2-elf/lib/libc.a(lib_a-makebuf.o)
 .debug_aranges
                0x000002e0       0x20 /OPT/altera/12.1/tools/nios2eds/bin/gnu/H-i686-pc-linux-gnu/bin/../lib/gcc/nios2-elf/4.1.2/../../../../nios2-elf/lib/libc.a(lib_a-mallocr.o)
 .debug_aranges
                0x00000300       0x20 /OPT/altera/12.1/tools/nios2eds/bin/gnu/H-i686-pc-linux-gnu/bin/../lib/gcc/nios2-elf/4.1.2/../../../../nios2-elf/lib/libc.a(lib_a-memcpy.o)
 .debug_aranges
                0x00000320       0x20 /OPT/altera/12.1/tools/nios2eds/bin/gnu/H-i686-pc-linux-gnu/bin/../lib/gcc/nios2-elf/4.1.2/../../../../nios2-elf/lib/libc.a(lib_a-memmove.o)
 .debug_aranges
                0x00000340       0x20 /OPT/altera/12.1/tools/nios2eds/bin/gnu/H-i686-pc-linux-gnu/bin/../lib/gcc/nios2-elf/4.1.2/../../../../nios2-elf/lib/libc.a(lib_a-memset.o)
 .debug_aranges
                0x00000360       0x20 /OPT/altera/12.1/tools/nios2eds/bin/gnu/H-i686-pc-linux-gnu/bin/../lib/gcc/nios2-elf/4.1.2/../../../../nios2-elf/lib/libc.a(lib_a-openr.o)
 .debug_aranges
                0x00000380       0x20 /OPT/altera/12.1/tools/nios2eds/bin/gnu/H-i686-pc-linux-gnu/bin/../lib/gcc/nios2-elf/4.1.2/../../../../nios2-elf/lib/libc.a(lib_a-perror.o)
 .debug_aranges
                0x000003a0       0x20 /OPT/altera/12.1/tools/nios2eds/bin/gnu/H-i686-pc-linux-gnu/bin/../lib/gcc/nios2-elf/4.1.2/../../../../nios2-elf/lib/libc.a(lib_a-printf.o)
 .debug_aranges
                0x000003c0       0x20 /OPT/altera/12.1/tools/nios2eds/bin/gnu/H-i686-pc-linux-gnu/bin/../lib/gcc/nios2-elf/4.1.2/../../../../nios2-elf/lib/libc.a(lib_a-puts.o)
 .debug_aranges
                0x000003e0       0x20 /OPT/altera/12.1/tools/nios2eds/bin/gnu/H-i686-pc-linux-gnu/bin/../lib/gcc/nios2-elf/4.1.2/../../../../nios2-elf/lib/libc.a(lib_a-refill.o)
 .debug_aranges
                0x00000400       0x20 /OPT/altera/12.1/tools/nios2eds/bin/gnu/H-i686-pc-linux-gnu/bin/../lib/gcc/nios2-elf/4.1.2/../../../../nios2-elf/lib/libc.a(lib_a-sbrkr.o)
 .debug_aranges
                0x00000420       0x20 /OPT/altera/12.1/tools/nios2eds/bin/gnu/H-i686-pc-linux-gnu/bin/../lib/gcc/nios2-elf/4.1.2/../../../../nios2-elf/lib/libc.a(lib_a-sprintf.o)
 .debug_aranges
                0x00000440       0x20 /OPT/altera/12.1/tools/nios2eds/bin/gnu/H-i686-pc-linux-gnu/bin/../lib/gcc/nios2-elf/4.1.2/../../../../nios2-elf/lib/libc.a(lib_a-sscanf.o)
 .debug_aranges
                0x00000460       0x20 /OPT/altera/12.1/tools/nios2eds/bin/gnu/H-i686-pc-linux-gnu/bin/../lib/gcc/nios2-elf/4.1.2/../../../../nios2-elf/lib/libc.a(lib_a-stdio.o)
 .debug_aranges
                0x00000480       0x20 /OPT/altera/12.1/tools/nios2eds/bin/gnu/H-i686-pc-linux-gnu/bin/../lib/gcc/nios2-elf/4.1.2/../../../../nios2-elf/lib/libc.a(lib_a-strcasecmp.o)
 .debug_aranges
                0x000004a0       0x20 /OPT/altera/12.1/tools/nios2eds/bin/gnu/H-i686-pc-linux-gnu/bin/../lib/gcc/nios2-elf/4.1.2/../../../../nios2-elf/lib/libc.a(lib_a-strcat.o)
 .debug_aranges
                0x000004c0       0x20 /OPT/altera/12.1/tools/nios2eds/bin/gnu/H-i686-pc-linux-gnu/bin/../lib/gcc/nios2-elf/4.1.2/../../../../nios2-elf/lib/libc.a(lib_a-strchr.o)
 .debug_aranges
                0x000004e0       0x20 /OPT/altera/12.1/tools/nios2eds/bin/gnu/H-i686-pc-linux-gnu/bin/../lib/gcc/nios2-elf/4.1.2/../../../../nios2-elf/lib/libc.a(lib_a-strcmp.o)
 .debug_aranges
                0x00000500       0x20 /OPT/altera/12.1/tools/nios2eds/bin/gnu/H-i686-pc-linux-gnu/bin/../lib/gcc/nios2-elf/4.1.2/../../../../nios2-elf/lib/libc.a(lib_a-strcpy.o)
 .debug_aranges
                0x00000520       0x20 /OPT/altera/12.1/tools/nios2eds/bin/gnu/H-i686-pc-linux-gnu/bin/../lib/gcc/nios2-elf/4.1.2/../../../../nios2-elf/lib/libc.a(lib_a-strerror.o)
 .debug_aranges
                0x00000540       0x20 /OPT/altera/12.1/tools/nios2eds/bin/gnu/H-i686-pc-linux-gnu/bin/../lib/gcc/nios2-elf/4.1.2/../../../../nios2-elf/lib/libc.a(lib_a-strlen.o)
 .debug_aranges
                0x00000560       0x20 /OPT/altera/12.1/tools/nios2eds/bin/gnu/H-i686-pc-linux-gnu/bin/../lib/gcc/nios2-elf/4.1.2/../../../../nios2-elf/lib/libc.a(lib_a-strncmp.o)
 .debug_aranges
                0x00000580       0x20 /OPT/altera/12.1/tools/nios2eds/bin/gnu/H-i686-pc-linux-gnu/bin/../lib/gcc/nios2-elf/4.1.2/../../../../nios2-elf/lib/libc.a(lib_a-strncpy.o)
 .debug_aranges
                0x000005a0       0x20 /OPT/altera/12.1/tools/nios2eds/bin/gnu/H-i686-pc-linux-gnu/bin/../lib/gcc/nios2-elf/4.1.2/../../../../nios2-elf/lib/libc.a(lib_a-strstr.o)
 .debug_aranges
                0x000005c0       0x20 /OPT/altera/12.1/tools/nios2eds/bin/gnu/H-i686-pc-linux-gnu/bin/../lib/gcc/nios2-elf/4.1.2/../../../../nios2-elf/lib/libc.a(lib_a-strtok.o)
 .debug_aranges
                0x000005e0       0x20 /OPT/altera/12.1/tools/nios2eds/bin/gnu/H-i686-pc-linux-gnu/bin/../lib/gcc/nios2-elf/4.1.2/../../../../nios2-elf/lib/libc.a(lib_a-strtok_r.o)
 .debug_aranges
                0x00000600       0x20 /OPT/altera/12.1/tools/nios2eds/bin/gnu/H-i686-pc-linux-gnu/bin/../lib/gcc/nios2-elf/4.1.2/../../../../nios2-elf/lib/libc.a(lib_a-strtol.o)
 .debug_aranges
                0x00000620       0x20 /OPT/altera/12.1/tools/nios2eds/bin/gnu/H-i686-pc-linux-gnu/bin/../lib/gcc/nios2-elf/4.1.2/../../../../nios2-elf/lib/libc.a(lib_a-u_strerr.o)
 .debug_aranges
                0x00000640       0x20 /OPT/altera/12.1/tools/nios2eds/bin/gnu/H-i686-pc-linux-gnu/bin/../lib/gcc/nios2-elf/4.1.2/../../../../nios2-elf/lib/libc.a(lib_a-vfprintf.o)
 .debug_aranges
                0x00000660       0x20 /OPT/altera/12.1/tools/nios2eds/bin/gnu/H-i686-pc-linux-gnu/bin/../lib/gcc/nios2-elf/4.1.2/../../../../nios2-elf/lib/libc.a(lib_a-vfscanf.o)
 .debug_aranges
                0x00000680       0x20 /OPT/altera/12.1/tools/nios2eds/bin/gnu/H-i686-pc-linux-gnu/bin/../lib/gcc/nios2-elf/4.1.2/../../../../nios2-elf/lib/libc.a(lib_a-writer.o)
 .debug_aranges
                0x000006a0       0x20 /OPT/altera/12.1/tools/nios2eds/bin/gnu/H-i686-pc-linux-gnu/bin/../lib/gcc/nios2-elf/4.1.2/../../../../nios2-elf/lib/libc.a(lib_a-wsetup.o)
 .debug_aranges
                0x000006c0       0x20 /OPT/altera/12.1/tools/nios2eds/bin/gnu/H-i686-pc-linux-gnu/bin/../lib/gcc/nios2-elf/4.1.2/../../../../nios2-elf/lib/libc.a(lib_a-closer.o)
 .debug_aranges
                0x000006e0       0x20 /OPT/altera/12.1/tools/nios2eds/bin/gnu/H-i686-pc-linux-gnu/bin/../lib/gcc/nios2-elf/4.1.2/../../../../nios2-elf/lib/libc.a(lib_a-dtoa.o)
 .debug_aranges
                0x00000700       0x20 /OPT/altera/12.1/tools/nios2eds/bin/gnu/H-i686-pc-linux-gnu/bin/../lib/gcc/nios2-elf/4.1.2/../../../../nios2-elf/lib/libc.a(lib_a-flags.o)
 .debug_aranges
                0x00000720       0x20 /OPT/altera/12.1/tools/nios2eds/bin/gnu/H-i686-pc-linux-gnu/bin/../lib/gcc/nios2-elf/4.1.2/../../../../nios2-elf/lib/libc.a(lib_a-fputc.o)
 .debug_aranges
                0x00000740       0x20 /OPT/altera/12.1/tools/nios2eds/bin/gnu/H-i686-pc-linux-gnu/bin/../lib/gcc/nios2-elf/4.1.2/../../../../nios2-elf/lib/libc.a(lib_a-fputs.o)
 .debug_aranges
                0x00000760       0x20 /OPT/altera/12.1/tools/nios2eds/bin/gnu/H-i686-pc-linux-gnu/bin/../lib/gcc/nios2-elf/4.1.2/../../../../nios2-elf/lib/libc.a(lib_a-fvwrite.o)
 .debug_aranges
                0x00000780       0x20 /OPT/altera/12.1/tools/nios2eds/bin/gnu/H-i686-pc-linux-gnu/bin/../lib/gcc/nios2-elf/4.1.2/../../../../nios2-elf/lib/libc.a(lib_a-isattyr.o)
 .debug_aranges
                0x000007a0       0x20 /OPT/altera/12.1/tools/nios2eds/bin/gnu/H-i686-pc-linux-gnu/bin/../lib/gcc/nios2-elf/4.1.2/../../../../nios2-elf/lib/libc.a(lib_a-iswspace.o)
 .debug_aranges
                0x000007c0       0x20 /OPT/altera/12.1/tools/nios2eds/bin/gnu/H-i686-pc-linux-gnu/bin/../lib/gcc/nios2-elf/4.1.2/../../../../nios2-elf/lib/libc.a(lib_a-locale.o)
 .debug_aranges
                0x000007e0       0x20 /OPT/altera/12.1/tools/nios2eds/bin/gnu/H-i686-pc-linux-gnu/bin/../lib/gcc/nios2-elf/4.1.2/../../../../nios2-elf/lib/libc.a(lib_a-lseekr.o)
 .debug_aranges
                0x00000800       0x20 /OPT/altera/12.1/tools/nios2eds/bin/gnu/H-i686-pc-linux-gnu/bin/../lib/gcc/nios2-elf/4.1.2/../../../../nios2-elf/lib/libc.a(lib_a-mbrtowc.o)
 .debug_aranges
                0x00000820       0x20 /OPT/altera/12.1/tools/nios2eds/bin/gnu/H-i686-pc-linux-gnu/bin/../lib/gcc/nios2-elf/4.1.2/../../../../nios2-elf/lib/libc.a(lib_a-mbtowc_r.o)
 .debug_aranges
                0x00000840       0x20 /OPT/altera/12.1/tools/nios2eds/bin/gnu/H-i686-pc-linux-gnu/bin/../lib/gcc/nios2-elf/4.1.2/../../../../nios2-elf/lib/libc.a(lib_a-memchr.o)
 .debug_aranges
                0x00000860       0x20 /OPT/altera/12.1/tools/nios2eds/bin/gnu/H-i686-pc-linux-gnu/bin/../lib/gcc/nios2-elf/4.1.2/../../../../nios2-elf/lib/libc.a(lib_a-memcmp.o)
 .debug_aranges
                0x00000880       0x20 /OPT/altera/12.1/tools/nios2eds/bin/gnu/H-i686-pc-linux-gnu/bin/../lib/gcc/nios2-elf/4.1.2/../../../../nios2-elf/lib/libc.a(lib_a-mprec.o)
 .debug_aranges
                0x000008a0       0x20 /OPT/altera/12.1/tools/nios2eds/bin/gnu/H-i686-pc-linux-gnu/bin/../lib/gcc/nios2-elf/4.1.2/../../../../nios2-elf/lib/libc.a(lib_a-putc.o)
 .debug_aranges
                0x000008c0       0x20 /OPT/altera/12.1/tools/nios2eds/bin/gnu/H-i686-pc-linux-gnu/bin/../lib/gcc/nios2-elf/4.1.2/../../../../nios2-elf/lib/libc.a(lib_a-readr.o)
 .debug_aranges
                0x000008e0       0x20 /OPT/altera/12.1/tools/nios2eds/bin/gnu/H-i686-pc-linux-gnu/bin/../lib/gcc/nios2-elf/4.1.2/../../../../nios2-elf/lib/libc.a(lib_a-reallocr.o)
 .debug_aranges
                0x00000900       0x20 /OPT/altera/12.1/tools/nios2eds/bin/gnu/H-i686-pc-linux-gnu/bin/../lib/gcc/nios2-elf/4.1.2/../../../../nios2-elf/lib/libc.a(lib_a-s_isinfd.o)
 .debug_aranges
                0x00000920       0x20 /OPT/altera/12.1/tools/nios2eds/bin/gnu/H-i686-pc-linux-gnu/bin/../lib/gcc/nios2-elf/4.1.2/../../../../nios2-elf/lib/libc.a(lib_a-s_isnand.o)
 .debug_aranges
                0x00000940       0x20 /OPT/altera/12.1/tools/nios2eds/bin/gnu/H-i686-pc-linux-gnu/bin/../lib/gcc/nios2-elf/4.1.2/../../../../nios2-elf/lib/libc.a(lib_a-sccl.o)
 .debug_aranges
                0x00000960       0x20 /OPT/altera/12.1/tools/nios2eds/bin/gnu/H-i686-pc-linux-gnu/bin/../lib/gcc/nios2-elf/4.1.2/../../../../nios2-elf/lib/libc.a(lib_a-sf_nan.o)
 .debug_aranges
                0x00000980       0x20 /OPT/altera/12.1/tools/nios2eds/bin/gnu/H-i686-pc-linux-gnu/bin/../lib/gcc/nios2-elf/4.1.2/../../../../nios2-elf/lib/libc.a(lib_a-strtod.o)
 .debug_aranges
                0x000009a0       0x20 /OPT/altera/12.1/tools/nios2eds/bin/gnu/H-i686-pc-linux-gnu/bin/../lib/gcc/nios2-elf/4.1.2/../../../../nios2-elf/lib/libc.a(lib_a-strtoll_r.o)
 .debug_aranges
                0x000009c0       0x20 /OPT/altera/12.1/tools/nios2eds/bin/gnu/H-i686-pc-linux-gnu/bin/../lib/gcc/nios2-elf/4.1.2/../../../../nios2-elf/lib/libc.a(lib_a-strtoul.o)
 .debug_aranges
                0x000009e0       0x20 /OPT/altera/12.1/tools/nios2eds/bin/gnu/H-i686-pc-linux-gnu/bin/../lib/gcc/nios2-elf/4.1.2/../../../../nios2-elf/lib/libc.a(lib_a-strtoull_r.o)
 .debug_aranges
                0x00000a00       0x20 /OPT/altera/12.1/tools/nios2eds/bin/gnu/H-i686-pc-linux-gnu/bin/../lib/gcc/nios2-elf/4.1.2/../../../../nios2-elf/lib/libc.a(lib_a-ungetc.o)
 .debug_aranges
                0x00000a20       0x20 /OPT/altera/12.1/tools/nios2eds/bin/gnu/H-i686-pc-linux-gnu/bin/../lib/gcc/nios2-elf/4.1.2/../../../../nios2-elf/lib/libc.a(lib_a-wbuf.o)
 .debug_aranges
                0x00000a40       0x20 /OPT/altera/12.1/tools/nios2eds/bin/gnu/H-i686-pc-linux-gnu/bin/../lib/gcc/nios2-elf/4.1.2/../../../../nios2-elf/lib/libc.a(lib_a-callocr.o)
 .debug_aranges
                0x00000a60       0x20 /OPT/altera/12.1/tools/nios2eds/bin/gnu/H-i686-pc-linux-gnu/bin/../lib/gcc/nios2-elf/4.1.2/../../../../nios2-elf/lib/libc.a(lib_a-gdtoa-gethex.o)
 .debug_aranges
                0x00000a80       0x20 /OPT/altera/12.1/tools/nios2eds/bin/gnu/H-i686-pc-linux-gnu/bin/../lib/gcc/nios2-elf/4.1.2/../../../../nios2-elf/lib/libc.a(lib_a-gdtoa-hexnan.o)
 .debug_aranges
                0x00000aa0       0x20 /OPT/altera/12.1/tools/nios2eds/bin/gnu/H-i686-pc-linux-gnu/bin/../lib/gcc/nios2-elf/4.1.2/libgcc.a(_muldi3.o)
 .debug_aranges
                0x00000ac0       0x20 /OPT/altera/12.1/tools/nios2eds/bin/gnu/H-i686-pc-linux-gnu/bin/../lib/gcc/nios2-elf/4.1.2/libgcc.a(_fixunsdfsi.o)
 .debug_aranges
                0x00000ae0       0x20 /OPT/altera/12.1/tools/nios2eds/bin/gnu/H-i686-pc-linux-gnu/bin/../lib/gcc/nios2-elf/4.1.2/libgcc.a(_udivdi3.o)
 .debug_aranges
                0x00000b00       0x20 /OPT/altera/12.1/tools/nios2eds/bin/gnu/H-i686-pc-linux-gnu/bin/../lib/gcc/nios2-elf/4.1.2/libgcc.a(_umoddi3.o)
 .debug_aranges
                0x00000b20       0x20 /OPT/altera/12.1/tools/nios2eds/bin/gnu/H-i686-pc-linux-gnu/bin/../lib/gcc/nios2-elf/4.1.2/libgcc.a(_ne_sf.o)
 .debug_aranges
                0x00000b40       0x20 /OPT/altera/12.1/tools/nios2eds/bin/gnu/H-i686-pc-linux-gnu/bin/../lib/gcc/nios2-elf/4.1.2/libgcc.a(_gt_sf.o)
 .debug_aranges
                0x00000b60       0x20 /OPT/altera/12.1/tools/nios2eds/bin/gnu/H-i686-pc-linux-gnu/bin/../lib/gcc/nios2-elf/4.1.2/libgcc.a(_lt_sf.o)
 .debug_aranges
                0x00000b80       0x20 /OPT/altera/12.1/tools/nios2eds/bin/gnu/H-i686-pc-linux-gnu/bin/../lib/gcc/nios2-elf/4.1.2/libgcc.a(_addsub_df.o)
 .debug_aranges
                0x00000ba0       0x20 /OPT/altera/12.1/tools/nios2eds/bin/gnu/H-i686-pc-linux-gnu/bin/../lib/gcc/nios2-elf/4.1.2/libgcc.a(_mul_df.o)
 .debug_aranges
                0x00000bc0       0x20 /OPT/altera/12.1/tools/nios2eds/bin/gnu/H-i686-pc-linux-gnu/bin/../lib/gcc/nios2-elf/4.1.2/libgcc.a(_div_df.o)
 .debug_aranges
                0x00000be0       0x20 /OPT/altera/12.1/tools/nios2eds/bin/gnu/H-i686-pc-linux-gnu/bin/../lib/gcc/nios2-elf/4.1.2/libgcc.a(_eq_df.o)
 .debug_aranges
                0x00000c00       0x20 /OPT/altera/12.1/tools/nios2eds/bin/gnu/H-i686-pc-linux-gnu/bin/../lib/gcc/nios2-elf/4.1.2/libgcc.a(_ne_df.o)
 .debug_aranges
                0x00000c20       0x20 /OPT/altera/12.1/tools/nios2eds/bin/gnu/H-i686-pc-linux-gnu/bin/../lib/gcc/nios2-elf/4.1.2/libgcc.a(_gt_df.o)
 .debug_aranges
                0x00000c40       0x20 /OPT/altera/12.1/tools/nios2eds/bin/gnu/H-i686-pc-linux-gnu/bin/../lib/gcc/nios2-elf/4.1.2/libgcc.a(_ge_df.o)
 .debug_aranges
                0x00000c60       0x20 /OPT/altera/12.1/tools/nios2eds/bin/gnu/H-i686-pc-linux-gnu/bin/../lib/gcc/nios2-elf/4.1.2/libgcc.a(_lt_df.o)
 .debug_aranges
                0x00000c80       0x20 /OPT/altera/12.1/tools/nios2eds/bin/gnu/H-i686-pc-linux-gnu/bin/../lib/gcc/nios2-elf/4.1.2/libgcc.a(_le_df.o)
 .debug_aranges
                0x00000ca0       0x20 /OPT/altera/12.1/tools/nios2eds/bin/gnu/H-i686-pc-linux-gnu/bin/../lib/gcc/nios2-elf/4.1.2/libgcc.a(_si_to_df.o)
 .debug_aranges
                0x00000cc0       0x20 /OPT/altera/12.1/tools/nios2eds/bin/gnu/H-i686-pc-linux-gnu/bin/../lib/gcc/nios2-elf/4.1.2/libgcc.a(_df_to_si.o)
 .debug_aranges
                0x00000ce0       0x20 /OPT/altera/12.1/tools/nios2eds/bin/gnu/H-i686-pc-linux-gnu/bin/../lib/gcc/nios2-elf/4.1.2/libgcc.a(_df_to_sf.o)
 .debug_aranges
                0x00000d00       0x20 /OPT/altera/12.1/tools/nios2eds/bin/gnu/H-i686-pc-linux-gnu/bin/../lib/gcc/nios2-elf/4.1.2/libgcc.a(_usi_to_df.o)
 .debug_aranges
                0x00000d20       0x20 /OPT/altera/12.1/tools/nios2eds/bin/gnu/H-i686-pc-linux-gnu/bin/../lib/gcc/nios2-elf/4.1.2/libgcc.a(_clzsi2.o)
 .debug_aranges
                0x00000d40       0x20 /OPT/altera/12.1/tools/nios2eds/bin/gnu/H-i686-pc-linux-gnu/bin/../lib/gcc/nios2-elf/4.1.2/libgcc.a(_unpack_sf.o)
 .debug_aranges
                0x00000d60       0x20 /OPT/altera/12.1/tools/nios2eds/bin/gnu/H-i686-pc-linux-gnu/bin/../lib/gcc/nios2-elf/4.1.2/libgcc.a(_fpcmp_parts_sf.o)
 .debug_aranges
                0x00000d80       0x20 /OPT/altera/12.1/tools/nios2eds/bin/gnu/H-i686-pc-linux-gnu/bin/../lib/gcc/nios2-elf/4.1.2/libgcc.a(_make_sf.o)
 .debug_aranges
                0x00000da0       0x20 /OPT/altera/12.1/tools/nios2eds/bin/gnu/H-i686-pc-linux-gnu/bin/../lib/gcc/nios2-elf/4.1.2/libgcc.a(_pack_df.o)
 .debug_aranges
                0x00000dc0       0x20 /OPT/altera/12.1/tools/nios2eds/bin/gnu/H-i686-pc-linux-gnu/bin/../lib/gcc/nios2-elf/4.1.2/libgcc.a(_unpack_df.o)
 .debug_aranges
                0x00000de0       0x20 /OPT/altera/12.1/tools/nios2eds/bin/gnu/H-i686-pc-linux-gnu/bin/../lib/gcc/nios2-elf/4.1.2/libgcc.a(_fpcmp_parts_df.o)
 .debug_aranges
                0x00000e00       0x20 /OPT/altera/12.1/tools/nios2eds/bin/gnu/H-i686-pc-linux-gnu/bin/../lib/gcc/nios2-elf/4.1.2/libgcc.a(_pack_sf.o)
 .debug_aranges
                0x00000e20       0x20 ../G4Capstone_bsp//libucosii_bsp.a(alt_dcache_flush.o)
 .debug_aranges
                0x00000e40       0x20 ../G4Capstone_bsp//libucosii_bsp.a(alt_flash_dev.o)
 .debug_aranges
                0x00000e60       0x20 ../G4Capstone_bsp//libucosii_bsp.a(alt_fstat.o)
 .debug_aranges
                0x00000e80       0x20 ../G4Capstone_bsp//libucosii_bsp.a(alt_irq_register.o)
 .debug_aranges
                0x00000ea0       0x20 ../G4Capstone_bsp//libucosii_bsp.a(alt_isatty.o)
 .debug_aranges
                0x00000ec0       0x20 ../G4Capstone_bsp//libucosii_bsp.a(alt_lseek.o)
 .debug_aranges
                0x00000ee0       0x20 ../G4Capstone_bsp//libucosii_bsp.a(alt_main.o)
 .debug_aranges
                0x00000f00       0x20 ../G4Capstone_bsp//libucosii_bsp.a(alt_open.o)
 .debug_aranges
                0x00000f20       0x20 ../G4Capstone_bsp//libucosii_bsp.a(alt_release_fd.o)
 .debug_aranges
                0x00000f40       0x20 ../G4Capstone_bsp//libucosii_bsp.a(alt_sbrk.o)
 .debug_aranges
                0x00000f60       0x20 ../G4Capstone_bsp//libucosii_bsp.a(alt_tick.o)
 .debug_aranges
                0x00000f80       0x20 ../G4Capstone_bsp//libucosii_bsp.a(alt_usleep.o)
 .debug_aranges
                0x00000fa0       0x20 ../G4Capstone_bsp//libucosii_bsp.a(alt_env_lock.o)
 .debug_aranges
                0x00000fc0       0x20 ../G4Capstone_bsp//libucosii_bsp.a(alt_malloc_lock.o)
 .debug_aranges
                0x00000fe0       0x20 ../G4Capstone_bsp//libucosii_bsp.a(os_core.o)
 .debug_aranges
                0x00001000       0x20 ../G4Capstone_bsp//libucosii_bsp.a(os_dbg.o)
 .debug_aranges
                0x00001020       0x20 ../G4Capstone_bsp//libucosii_bsp.a(os_flag.o)
 .debug_aranges
                0x00001040       0x20 ../G4Capstone_bsp//libucosii_bsp.a(os_mbox.o)
 .debug_aranges
                0x00001060       0x20 ../G4Capstone_bsp//libucosii_bsp.a(os_mem.o)
 .debug_aranges
                0x00001080       0x20 ../G4Capstone_bsp//libucosii_bsp.a(os_q.o)
 .debug_aranges
                0x000010a0       0x20 ../G4Capstone_bsp//libucosii_bsp.a(os_sem.o)
 .debug_aranges
                0x000010c0       0x20 ../G4Capstone_bsp//libucosii_bsp.a(os_task.o)
 .debug_aranges
                0x000010e0       0x20 ../G4Capstone_bsp//libucosii_bsp.a(os_time.o)
 .debug_aranges
                0x00001100       0x20 ../G4Capstone_bsp//libucosii_bsp.a(alt_sys_init.o)
 .debug_aranges
                0x00001120       0x20 ../G4Capstone_bsp//libucosii_bsp.a(altera_avalon_jtag_uart_fd.o)
 .debug_aranges
                0x00001140       0x20 ../G4Capstone_bsp//libucosii_bsp.a(altera_avalon_jtag_uart_init.o)
 .debug_aranges
                0x00001160       0x20 ../G4Capstone_bsp//libucosii_bsp.a(altera_avalon_jtag_uart_ioctl.o)
 .debug_aranges
                0x00001180       0x20 ../G4Capstone_bsp//libucosii_bsp.a(altera_avalon_jtag_uart_read.o)
 .debug_aranges
                0x000011a0       0x20 ../G4Capstone_bsp//libucosii_bsp.a(altera_avalon_jtag_uart_write.o)
 .debug_aranges
                0x000011c0       0x20 ../G4Capstone_bsp//libucosii_bsp.a(altera_avalon_timer_sc.o)
 .debug_aranges
                0x000011e0       0x20 ../G4Capstone_bsp//libucosii_bsp.a(altera_ro_zipfs.o)
 .debug_aranges
                0x00001200       0x20 ../G4Capstone_bsp//libucosii_bsp.a(altera_up_avalon_audio_and_video_config.o)
 .debug_aranges
                0x00001220       0x20 ../G4Capstone_bsp//libucosii_bsp.a(altera_up_avalon_character_lcd.o)
 .debug_aranges
                0x00001240       0x20 ../G4Capstone_bsp//libucosii_bsp.a(alt_iniche_close.o)
 .debug_aranges
                0x00001260       0x20 ../G4Capstone_bsp//libucosii_bsp.a(alt_iniche_dev.o)
 .debug_aranges
                0x00001280       0x20 ../G4Capstone_bsp//libucosii_bsp.a(alt_iniche_read.o)
 .debug_aranges
                0x000012a0       0x20 ../G4Capstone_bsp//libucosii_bsp.a(alt_iniche_write.o)
 .debug_aranges
                0x000012c0       0x20 ../G4Capstone_bsp//libucosii_bsp.a(ipnet.o)
 .debug_aranges
                0x000012e0       0x20 ../G4Capstone_bsp//libucosii_bsp.a(ipstart.o)
 .debug_aranges
                0x00001300       0x20 ../G4Capstone_bsp//libucosii_bsp.a(igmp_cmn.o)
 .debug_aranges
                0x00001320       0x20 ../G4Capstone_bsp//libucosii_bsp.a(bsdsock.o)
 .debug_aranges
                0x00001340       0x20 ../G4Capstone_bsp//libucosii_bsp.a(cksum.o)
 .debug_aranges
                0x00001360       0x20 ../G4Capstone_bsp//libucosii_bsp.a(in_utils.o)
 .debug_aranges
                0x00001380       0x20 ../G4Capstone_bsp//libucosii_bsp.a(netmain.o)
 .debug_aranges
                0x000013a0       0x20 ../G4Capstone_bsp//libucosii_bsp.a(tk_crnos.o)
 .debug_aranges
                0x000013c0       0x20 ../G4Capstone_bsp//libucosii_bsp.a(dhcpclnt.o)
 .debug_aranges
                0x000013e0       0x20 ../G4Capstone_bsp//libucosii_bsp.a(dhcputil.o)
 .debug_aranges
                0x00001400       0x20 ../G4Capstone_bsp//libucosii_bsp.a(pktalloc.o)
 .debug_aranges
                0x00001420       0x20 ../G4Capstone_bsp//libucosii_bsp.a(q.o)
 .debug_aranges
                0x00001440       0x20 ../G4Capstone_bsp//libucosii_bsp.a(udp_open.o)
 .debug_aranges
                0x00001460       0x20 ../G4Capstone_bsp//libucosii_bsp.a(asm_cksum.o)
 .debug_aranges
                0x00001480       0x20 ../G4Capstone_bsp//libucosii_bsp.a(brdutils.o)
 .debug_aranges
                0x000014a0       0x20 ../G4Capstone_bsp//libucosii_bsp.a(osportco.o)
 .debug_aranges
                0x000014c0       0x20 ../G4Capstone_bsp//libucosii_bsp.a(targnios.o)
 .debug_aranges
                0x000014e0       0x20 ../G4Capstone_bsp//libucosii_bsp.a(nptcp.o)
 .debug_aranges
                0x00001500       0x20 ../G4Capstone_bsp//libucosii_bsp.a(rawsock.o)
 .debug_aranges
                0x00001520       0x20 ../G4Capstone_bsp//libucosii_bsp.a(sockcall.o)
 .debug_aranges
                0x00001540       0x20 ../G4Capstone_bsp//libucosii_bsp.a(socket.o)
 .debug_aranges
                0x00001560       0x20 ../G4Capstone_bsp//libucosii_bsp.a(socket2.o)
 .debug_aranges
                0x00001580       0x20 ../G4Capstone_bsp//libucosii_bsp.a(soselect.o)
 .debug_aranges
                0x000015a0       0x20 ../G4Capstone_bsp//libucosii_bsp.a(tcp_in.o)
 .debug_aranges
                0x000015c0       0x20 ../G4Capstone_bsp//libucosii_bsp.a(tcp_out.o)
 .debug_aranges
                0x000015e0       0x20 ../G4Capstone_bsp//libucosii_bsp.a(tcp_subr.o)
 .debug_aranges
                0x00001600       0x20 ../G4Capstone_bsp//libucosii_bsp.a(tcp_timr.o)
 .debug_aranges
                0x00001620       0x20 ../G4Capstone_bsp//libucosii_bsp.a(tcp_usr.o)
 .debug_aranges
                0x00001640       0x20 ../G4Capstone_bsp//libucosii_bsp.a(tcpport.o)
 .debug_aranges
                0x00001660       0x20 ../G4Capstone_bsp//libucosii_bsp.a(udpsock.o)
 .debug_aranges
                0x00001680       0x20 ../G4Capstone_bsp//libucosii_bsp.a(alt_alarm_start.o)
 .debug_aranges
                0x000016a0       0x20 ../G4Capstone_bsp//libucosii_bsp.a(alt_busy_sleep.o)
 .debug_aranges
                0x000016c0       0x20 ../G4Capstone_bsp//libucosii_bsp.a(alt_close.o)
 .debug_aranges
                0x000016e0       0x20 ../G4Capstone_bsp//libucosii_bsp.a(alt_dev.o)
 .debug_aranges
                0x00001700       0x20 ../G4Capstone_bsp//libucosii_bsp.a(alt_dev_llist_insert.o)
 .debug_aranges
                0x00001720       0x20 ../G4Capstone_bsp//libucosii_bsp.a(alt_do_ctors.o)
 .debug_aranges
                0x00001740       0x20 ../G4Capstone_bsp//libucosii_bsp.a(alt_do_dtors.o)
 .debug_aranges
                0x00001760       0x20 ../G4Capstone_bsp//libucosii_bsp.a(alt_find_dev.o)
 .debug_aranges
                0x00001780       0x20 ../G4Capstone_bsp//libucosii_bsp.a(alt_find_file.o)
 .debug_aranges
                0x000017a0       0x20 ../G4Capstone_bsp//libucosii_bsp.a(alt_fs_reg.o)
 .debug_aranges
                0x000017c0       0x20 ../G4Capstone_bsp//libucosii_bsp.a(alt_get_fd.o)
 .debug_aranges
                0x000017e0       0x20 ../G4Capstone_bsp//libucosii_bsp.a(alt_iic.o)
 .debug_aranges
                0x00001800       0x20 ../G4Capstone_bsp//libucosii_bsp.a(alt_iic_isr_register.o)
 .debug_aranges
                0x00001820       0x20 ../G4Capstone_bsp//libucosii_bsp.a(alt_io_redirect.o)
 .debug_aranges
                0x00001840       0x30 ../G4Capstone_bsp//libucosii_bsp.a(alt_irq_entry.o)
 .debug_aranges
                0x00001870       0x28 ../G4Capstone_bsp//libucosii_bsp.a(alt_irq_handler.o)
 .debug_aranges
                0x00001898       0x20 ../G4Capstone_bsp//libucosii_bsp.a(alt_read.o)
 .debug_aranges
                0x000018b8       0x20 ../G4Capstone_bsp//libucosii_bsp.a(alt_remap_cached.o)
 .debug_aranges
                0x000018d8       0x20 ../G4Capstone_bsp//libucosii_bsp.a(alt_remap_uncached.o)
 .debug_aranges
                0x000018f8       0x20 ../G4Capstone_bsp//libucosii_bsp.a(alt_write.o)
 .debug_aranges
                0x00001918       0x20 ../G4Capstone_bsp//libucosii_bsp.a(altera_nios2_qsys_irq.o)
 .debug_aranges
                0x00001938       0x20 ../G4Capstone_bsp//libucosii_bsp.a(os_cpu_a.o)
 .debug_aranges
                0x00001958       0x20 ../G4Capstone_bsp//libucosii_bsp.a(os_cpu_c.o)
 .debug_aranges
                0x00001978       0x20 ../G4Capstone_bsp//libucosii_bsp.a(allports.o)
 .debug_aranges
                0x00001998       0x20 ../G4Capstone_bsp//libucosii_bsp.a(timeouts.o)
 .debug_aranges
                0x000019b8       0x20 ../G4Capstone_bsp//libucosii_bsp.a(tk_misc.o)
 .debug_aranges
                0x000019d8       0x20 ../G4Capstone_bsp//libucosii_bsp.a(alt_iniche_fcntl.o)
 .debug_aranges
                0x000019f8       0x20 ../G4Capstone_bsp//libucosii_bsp.a(et_arp.o)
 .debug_aranges
                0x00001a18       0x20 ../G4Capstone_bsp//libucosii_bsp.a(iface.o)
 .debug_aranges
                0x00001a38       0x20 ../G4Capstone_bsp//libucosii_bsp.a(ip.o)
 .debug_aranges
                0x00001a58       0x20 ../G4Capstone_bsp//libucosii_bsp.a(ip_reasm.o)
 .debug_aranges
                0x00001a78       0x20 ../G4Capstone_bsp//libucosii_bsp.a(ipdemux.o)
 .debug_aranges
                0x00001a98       0x20 ../G4Capstone_bsp//libucosii_bsp.a(ipmc.o)
 .debug_aranges
                0x00001ab8       0x20 ../G4Capstone_bsp//libucosii_bsp.a(ipport.o)
 .debug_aranges
                0x00001ad8       0x20 ../G4Capstone_bsp//libucosii_bsp.a(ipraw.o)
 .debug_aranges
                0x00001af8       0x20 ../G4Capstone_bsp//libucosii_bsp.a(iproute.o)
 .debug_aranges
                0x00001b18       0x20 ../G4Capstone_bsp//libucosii_bsp.a(udp.o)
 .debug_aranges
                0x00001b38       0x20 ../G4Capstone_bsp//libucosii_bsp.a(igmp.o)
 .debug_aranges
                0x00001b58       0x20 ../G4Capstone_bsp//libucosii_bsp.a(igmp2.o)
 .debug_aranges
                0x00001b78       0x20 ../G4Capstone_bsp//libucosii_bsp.a(ipopt.o)
 .debug_aranges
                0x00001b98       0x20 ../G4Capstone_bsp//libucosii_bsp.a(u_mctest.o)
 .debug_aranges
                0x00001bb8       0x20 ../G4Capstone_bsp//libucosii_bsp.a(dhcsetup.o)
 .debug_aranges
                0x00001bd8       0x20 ../G4Capstone_bsp//libucosii_bsp.a(memdev.o)
 .debug_aranges
                0x00001bf8       0x20 ../G4Capstone_bsp//libucosii_bsp.a(parseip.o)
 .debug_aranges
                0x00001c18       0x20 ../G4Capstone_bsp//libucosii_bsp.a(tcpcksum.o)
 .debug_aranges
                0x00001c38       0x20 ../G4Capstone_bsp//libucosii_bsp.a(in_pcb.o)
 .debug_aranges
                0x00001c58       0x20 ../G4Capstone_bsp//libucosii_bsp.a(vfsfiles.o)
 .debug_aranges
                0x00001c78       0x20 ../G4Capstone_bsp//libucosii_bsp.a(vfsport.o)
 .debug_aranges
                0x00001c98       0x38 ../G4Capstone_bsp//libucosii_bsp.a(alt_exception_entry.o)
 .debug_aranges
                0x00001cd0       0x20 ../G4Capstone_bsp//libucosii_bsp.a(alt_fcntl.o)
 .debug_aranges
                0x00001cf0       0x20 ../G4Capstone_bsp//libucosii_bsp.a(icmp.o)
 .debug_aranges
                0x00001d10       0x20 /OPT/altera/12.1/tools/nios2eds/bin/gnu/H-i686-pc-linux-gnu/bin/../lib/gcc/nios2-elf/4.1.2/../../../../nios2-elf/lib/libc.a(lib_a-atexit.o)
 .debug_aranges
                0x00001d30       0x20 /OPT/altera/12.1/tools/nios2eds/bin/gnu/H-i686-pc-linux-gnu/bin/../lib/gcc/nios2-elf/4.1.2/../../../../nios2-elf/lib/libc.a(lib_a-calloc.o)
 .debug_aranges
                0x00001d50       0x20 /OPT/altera/12.1/tools/nios2eds/bin/gnu/H-i686-pc-linux-gnu/bin/../lib/gcc/nios2-elf/4.1.2/../../../../nios2-elf/lib/libc.a(lib_a-exit.o)
 .debug_aranges
                0x00001d70       0x20 /OPT/altera/12.1/tools/nios2eds/bin/gnu/H-i686-pc-linux-gnu/bin/../lib/gcc/nios2-elf/4.1.2/../../../../nios2-elf/lib/libc.a(lib_a-getc.o)
 .debug_aranges
                0x00001d90       0x20 /OPT/altera/12.1/tools/nios2eds/bin/gnu/H-i686-pc-linux-gnu/bin/../lib/gcc/nios2-elf/4.1.2/../../../../nios2-elf/lib/libc.a(lib_a-malloc.o)
 .debug_aranges
                0x00001db0       0x20 /OPT/altera/12.1/tools/nios2eds/bin/gnu/H-i686-pc-linux-gnu/bin/../lib/gcc/nios2-elf/4.1.2/../../../../nios2-elf/lib/libc.a(lib_a-rget.o)
 .debug_aranges
                0x00001dd0       0x20 /OPT/altera/12.1/tools/nios2eds/bin/gnu/H-i686-pc-linux-gnu/bin/../lib/gcc/nios2-elf/4.1.2/../../../../nios2-elf/lib/libc.a(lib_a-vprintf.o)
 .debug_aranges
                0x00001df0       0x20 /OPT/altera/12.1/tools/nios2eds/bin/gnu/H-i686-pc-linux-gnu/bin/../lib/gcc/nios2-elf/4.1.2/../../../../nios2-elf/lib/libc.a(lib_a-vsprintf.o)
 .debug_aranges
                0x00001e10       0x20 /OPT/altera/12.1/tools/nios2eds/bin/gnu/H-i686-pc-linux-gnu/bin/../lib/gcc/nios2-elf/4.1.2/../../../../nios2-elf/lib/libc.a(lib_a-__atexit.o)
 .debug_aranges
                0x00001e30       0x20 /OPT/altera/12.1/tools/nios2eds/bin/gnu/H-i686-pc-linux-gnu/bin/../lib/gcc/nios2-elf/4.1.2/../../../../nios2-elf/lib/libc.a(lib_a-__call_atexit.o)
 .debug_aranges
                0x00001e50       0x20 ../G4Capstone_bsp//libucosii_bsp.a(alt_exit.o)

.debug_pubnames
                0x00000000     0x5a3f
 *(.debug_pubnames)
 .debug_pubnames
                0x00000000       0x2d obj/default/alt_error_handler.o
 .debug_pubnames
                0x0000002d      0x102 obj/default/dm9000a.o
 .debug_pubnames
                0x0000012f      0x2a5 obj/default/http.o
 .debug_pubnames
                0x000003d4       0xfa obj/default/network_utilities.o
 .debug_pubnames
                0x000004ce       0x79 obj/default/srec_flash.o
 .debug_pubnames
                0x00000547       0xb8 obj/default/web_server.o
 .debug_pubnames
                0x000005ff       0x48 /OPT/altera/12.1/tools/nios2eds/bin/gnu/H-i686-pc-linux-gnu/bin/../lib/gcc/nios2-elf/4.1.2/libgcc.a(lib2-divmod.o)
 .debug_pubnames
                0x00000647       0x27 /OPT/altera/12.1/tools/nios2eds/bin/gnu/H-i686-pc-linux-gnu/bin/../lib/gcc/nios2-elf/4.1.2/../../../../nios2-elf/lib/libc.a(lib_a-atoi.o)
 .debug_pubnames
                0x0000066e       0x2e /OPT/altera/12.1/tools/nios2eds/bin/gnu/H-i686-pc-linux-gnu/bin/../lib/gcc/nios2-elf/4.1.2/../../../../nios2-elf/lib/libc.a(lib_a-ctype_.o)
 .debug_pubnames
                0x0000069c       0x2b /OPT/altera/12.1/tools/nios2eds/bin/gnu/H-i686-pc-linux-gnu/bin/../lib/gcc/nios2-elf/4.1.2/../../../../nios2-elf/lib/libc.a(lib_a-fclose.o)
 .debug_pubnames
                0x000006c7       0x2b /OPT/altera/12.1/tools/nios2eds/bin/gnu/H-i686-pc-linux-gnu/bin/../lib/gcc/nios2-elf/4.1.2/../../../../nios2-elf/lib/libc.a(lib_a-fflush.o)
 .debug_pubnames
                0x000006f2       0x2d /OPT/altera/12.1/tools/nios2eds/bin/gnu/H-i686-pc-linux-gnu/bin/../lib/gcc/nios2-elf/4.1.2/../../../../nios2-elf/lib/libc.a(lib_a-fgetpos.o)
 .debug_pubnames
                0x0000071f       0xdb /OPT/altera/12.1/tools/nios2eds/bin/gnu/H-i686-pc-linux-gnu/bin/../lib/gcc/nios2-elf/4.1.2/../../../../nios2-elf/lib/libc.a(lib_a-findfp.o)
 .debug_pubnames
                0x000007fa       0x29 /OPT/altera/12.1/tools/nios2eds/bin/gnu/H-i686-pc-linux-gnu/bin/../lib/gcc/nios2-elf/4.1.2/../../../../nios2-elf/lib/libc.a(lib_a-fopen.o)
 .debug_pubnames
                0x00000823       0x2d /OPT/altera/12.1/tools/nios2eds/bin/gnu/H-i686-pc-linux-gnu/bin/../lib/gcc/nios2-elf/4.1.2/../../../../nios2-elf/lib/libc.a(lib_a-fprintf.o)
 .debug_pubnames
                0x00000850       0x29 /OPT/altera/12.1/tools/nios2eds/bin/gnu/H-i686-pc-linux-gnu/bin/../lib/gcc/nios2-elf/4.1.2/../../../../nios2-elf/lib/libc.a(lib_a-fread.o)
 .debug_pubnames
                0x00000879       0x31 /OPT/altera/12.1/tools/nios2eds/bin/gnu/H-i686-pc-linux-gnu/bin/../lib/gcc/nios2-elf/4.1.2/../../../../nios2-elf/lib/libc.a(lib_a-freer.o)
 .debug_pubnames
                0x000008aa       0x29 /OPT/altera/12.1/tools/nios2eds/bin/gnu/H-i686-pc-linux-gnu/bin/../lib/gcc/nios2-elf/4.1.2/../../../../nios2-elf/lib/libc.a(lib_a-fseek.o)
 .debug_pubnames
                0x000008d3       0x1f /OPT/altera/12.1/tools/nios2eds/bin/gnu/H-i686-pc-linux-gnu/bin/../lib/gcc/nios2-elf/4.1.2/../../../../nios2-elf/lib/libc.a(lib_a-fstatr.o)
 .debug_pubnames
                0x000008f2       0x29 /OPT/altera/12.1/tools/nios2eds/bin/gnu/H-i686-pc-linux-gnu/bin/../lib/gcc/nios2-elf/4.1.2/../../../../nios2-elf/lib/libc.a(lib_a-ftell.o)
 .debug_pubnames
                0x0000091b       0x2e /OPT/altera/12.1/tools/nios2eds/bin/gnu/H-i686-pc-linux-gnu/bin/../lib/gcc/nios2-elf/4.1.2/../../../../nios2-elf/lib/libc.a(lib_a-fwalk.o)
 .debug_pubnames
                0x00000949       0x2b /OPT/altera/12.1/tools/nios2eds/bin/gnu/H-i686-pc-linux-gnu/bin/../lib/gcc/nios2-elf/4.1.2/../../../../nios2-elf/lib/libc.a(lib_a-fwrite.o)
 .debug_pubnames
                0x00000974       0x39 /OPT/altera/12.1/tools/nios2eds/bin/gnu/H-i686-pc-linux-gnu/bin/../lib/gcc/nios2-elf/4.1.2/../../../../nios2-elf/lib/libc.a(lib_a-impure.o)
 .debug_pubnames
                0x000009ad       0x1c /OPT/altera/12.1/tools/nios2eds/bin/gnu/H-i686-pc-linux-gnu/bin/../lib/gcc/nios2-elf/4.1.2/../../../../nios2-elf/lib/libc.a(lib_a-int_errno.o)
 .debug_pubnames
                0x000009c9       0x23 /OPT/altera/12.1/tools/nios2eds/bin/gnu/H-i686-pc-linux-gnu/bin/../lib/gcc/nios2-elf/4.1.2/../../../../nios2-elf/lib/libc.a(lib_a-makebuf.o)
 .debug_pubnames
                0x000009ec       0xce /OPT/altera/12.1/tools/nios2eds/bin/gnu/H-i686-pc-linux-gnu/bin/../lib/gcc/nios2-elf/4.1.2/../../../../nios2-elf/lib/libc.a(lib_a-mallocr.o)
 .debug_pubnames
                0x00000aba       0x1d /OPT/altera/12.1/tools/nios2eds/bin/gnu/H-i686-pc-linux-gnu/bin/../lib/gcc/nios2-elf/4.1.2/../../../../nios2-elf/lib/libc.a(lib_a-memcpy.o)
 .debug_pubnames
                0x00000ad7       0x1e /OPT/altera/12.1/tools/nios2eds/bin/gnu/H-i686-pc-linux-gnu/bin/../lib/gcc/nios2-elf/4.1.2/../../../../nios2-elf/lib/libc.a(lib_a-memmove.o)
 .debug_pubnames
                0x00000af5       0x1d /OPT/altera/12.1/tools/nios2eds/bin/gnu/H-i686-pc-linux-gnu/bin/../lib/gcc/nios2-elf/4.1.2/../../../../nios2-elf/lib/libc.a(lib_a-memset.o)
 .debug_pubnames
                0x00000b12       0x1e /OPT/altera/12.1/tools/nios2eds/bin/gnu/H-i686-pc-linux-gnu/bin/../lib/gcc/nios2-elf/4.1.2/../../../../nios2-elf/lib/libc.a(lib_a-openr.o)
 .debug_pubnames
                0x00000b30       0x2b /OPT/altera/12.1/tools/nios2eds/bin/gnu/H-i686-pc-linux-gnu/bin/../lib/gcc/nios2-elf/4.1.2/../../../../nios2-elf/lib/libc.a(lib_a-perror.o)
 .debug_pubnames
                0x00000b5b       0x2b /OPT/altera/12.1/tools/nios2eds/bin/gnu/H-i686-pc-linux-gnu/bin/../lib/gcc/nios2-elf/4.1.2/../../../../nios2-elf/lib/libc.a(lib_a-printf.o)
 .debug_pubnames
                0x00000b86       0x27 /OPT/altera/12.1/tools/nios2eds/bin/gnu/H-i686-pc-linux-gnu/bin/../lib/gcc/nios2-elf/4.1.2/../../../../nios2-elf/lib/libc.a(lib_a-puts.o)
 .debug_pubnames
                0x00000bad       0x22 /OPT/altera/12.1/tools/nios2eds/bin/gnu/H-i686-pc-linux-gnu/bin/../lib/gcc/nios2-elf/4.1.2/../../../../nios2-elf/lib/libc.a(lib_a-refill.o)
 .debug_pubnames
                0x00000bcf       0x1e /OPT/altera/12.1/tools/nios2eds/bin/gnu/H-i686-pc-linux-gnu/bin/../lib/gcc/nios2-elf/4.1.2/../../../../nios2-elf/lib/libc.a(lib_a-sbrkr.o)
 .debug_pubnames
                0x00000bed       0x2d /OPT/altera/12.1/tools/nios2eds/bin/gnu/H-i686-pc-linux-gnu/bin/../lib/gcc/nios2-elf/4.1.2/../../../../nios2-elf/lib/libc.a(lib_a-sprintf.o)
 .debug_pubnames
                0x00000c1a       0x2b /OPT/altera/12.1/tools/nios2eds/bin/gnu/H-i686-pc-linux-gnu/bin/../lib/gcc/nios2-elf/4.1.2/../../../../nios2-elf/lib/libc.a(lib_a-sscanf.o)
 .debug_pubnames
                0x00000c45       0x44 /OPT/altera/12.1/tools/nios2eds/bin/gnu/H-i686-pc-linux-gnu/bin/../lib/gcc/nios2-elf/4.1.2/../../../../nios2-elf/lib/libc.a(lib_a-stdio.o)
 .debug_pubnames
                0x00000c89       0x21 /OPT/altera/12.1/tools/nios2eds/bin/gnu/H-i686-pc-linux-gnu/bin/../lib/gcc/nios2-elf/4.1.2/../../../../nios2-elf/lib/libc.a(lib_a-strcasecmp.o)
 .debug_pubnames
                0x00000caa       0x1d /OPT/altera/12.1/tools/nios2eds/bin/gnu/H-i686-pc-linux-gnu/bin/../lib/gcc/nios2-elf/4.1.2/../../../../nios2-elf/lib/libc.a(lib_a-strcat.o)
 .debug_pubnames
                0x00000cc7       0x1d /OPT/altera/12.1/tools/nios2eds/bin/gnu/H-i686-pc-linux-gnu/bin/../lib/gcc/nios2-elf/4.1.2/../../../../nios2-elf/lib/libc.a(lib_a-strchr.o)
 .debug_pubnames
                0x00000ce4       0x1d /OPT/altera/12.1/tools/nios2eds/bin/gnu/H-i686-pc-linux-gnu/bin/../lib/gcc/nios2-elf/4.1.2/../../../../nios2-elf/lib/libc.a(lib_a-strcmp.o)
 .debug_pubnames
                0x00000d01       0x1d /OPT/altera/12.1/tools/nios2eds/bin/gnu/H-i686-pc-linux-gnu/bin/../lib/gcc/nios2-elf/4.1.2/../../../../nios2-elf/lib/libc.a(lib_a-strcpy.o)
 .debug_pubnames
                0x00000d1e       0x1f /OPT/altera/12.1/tools/nios2eds/bin/gnu/H-i686-pc-linux-gnu/bin/../lib/gcc/nios2-elf/4.1.2/../../../../nios2-elf/lib/libc.a(lib_a-strerror.o)
 .debug_pubnames
                0x00000d3d       0x1d /OPT/altera/12.1/tools/nios2eds/bin/gnu/H-i686-pc-linux-gnu/bin/../lib/gcc/nios2-elf/4.1.2/../../../../nios2-elf/lib/libc.a(lib_a-strlen.o)
 .debug_pubnames
                0x00000d5a       0x1e /OPT/altera/12.1/tools/nios2eds/bin/gnu/H-i686-pc-linux-gnu/bin/../lib/gcc/nios2-elf/4.1.2/../../../../nios2-elf/lib/libc.a(lib_a-strncmp.o)
 .debug_pubnames
                0x00000d78       0x1e /OPT/altera/12.1/tools/nios2eds/bin/gnu/H-i686-pc-linux-gnu/bin/../lib/gcc/nios2-elf/4.1.2/../../../../nios2-elf/lib/libc.a(lib_a-strncpy.o)
 .debug_pubnames
                0x00000d96       0x1d /OPT/altera/12.1/tools/nios2eds/bin/gnu/H-i686-pc-linux-gnu/bin/../lib/gcc/nios2-elf/4.1.2/../../../../nios2-elf/lib/libc.a(lib_a-strstr.o)
 .debug_pubnames
                0x00000db3       0x1d /OPT/altera/12.1/tools/nios2eds/bin/gnu/H-i686-pc-linux-gnu/bin/../lib/gcc/nios2-elf/4.1.2/../../../../nios2-elf/lib/libc.a(lib_a-strtok.o)
 .debug_pubnames
                0x00000dd0       0x2e /OPT/altera/12.1/tools/nios2eds/bin/gnu/H-i686-pc-linux-gnu/bin/../lib/gcc/nios2-elf/4.1.2/../../../../nios2-elf/lib/libc.a(lib_a-strtok_r.o)
 .debug_pubnames
                0x00000dfe       0x2b /OPT/altera/12.1/tools/nios2eds/bin/gnu/H-i686-pc-linux-gnu/bin/../lib/gcc/nios2-elf/4.1.2/../../../../nios2-elf/lib/libc.a(lib_a-strtol.o)
 .debug_pubnames
                0x00000e29       0x25 /OPT/altera/12.1/tools/nios2eds/bin/gnu/H-i686-pc-linux-gnu/bin/../lib/gcc/nios2-elf/4.1.2/../../../../nios2-elf/lib/libc.a(lib_a-u_strerr.o)
 .debug_pubnames
                0x00000e4e       0x45 /OPT/altera/12.1/tools/nios2eds/bin/gnu/H-i686-pc-linux-gnu/bin/../lib/gcc/nios2-elf/4.1.2/../../../../nios2-elf/lib/libc.a(lib_a-vfprintf.o)
 .debug_pubnames
                0x00000e93       0x4d /OPT/altera/12.1/tools/nios2eds/bin/gnu/H-i686-pc-linux-gnu/bin/../lib/gcc/nios2-elf/4.1.2/../../../../nios2-elf/lib/libc.a(lib_a-vfscanf.o)
 .debug_pubnames
                0x00000ee0       0x1f /OPT/altera/12.1/tools/nios2eds/bin/gnu/H-i686-pc-linux-gnu/bin/../lib/gcc/nios2-elf/4.1.2/../../../../nios2-elf/lib/libc.a(lib_a-writer.o)
 .debug_pubnames
                0x00000eff       0x22 /OPT/altera/12.1/tools/nios2eds/bin/gnu/H-i686-pc-linux-gnu/bin/../lib/gcc/nios2-elf/4.1.2/../../../../nios2-elf/lib/libc.a(lib_a-wsetup.o)
 .debug_pubnames
                0x00000f21       0x1f /OPT/altera/12.1/tools/nios2eds/bin/gnu/H-i686-pc-linux-gnu/bin/../lib/gcc/nios2-elf/4.1.2/../../../../nios2-elf/lib/libc.a(lib_a-closer.o)
 .debug_pubnames
                0x00000f40       0x1e /OPT/altera/12.1/tools/nios2eds/bin/gnu/H-i686-pc-linux-gnu/bin/../lib/gcc/nios2-elf/4.1.2/../../../../nios2-elf/lib/libc.a(lib_a-dtoa.o)
 .debug_pubnames
                0x00000f5e       0x1f /OPT/altera/12.1/tools/nios2eds/bin/gnu/H-i686-pc-linux-gnu/bin/../lib/gcc/nios2-elf/4.1.2/../../../../nios2-elf/lib/libc.a(lib_a-flags.o)
 .debug_pubnames
                0x00000f7d       0x29 /OPT/altera/12.1/tools/nios2eds/bin/gnu/H-i686-pc-linux-gnu/bin/../lib/gcc/nios2-elf/4.1.2/../../../../nios2-elf/lib/libc.a(lib_a-fputc.o)
 .debug_pubnames
                0x00000fa6       0x29 /OPT/altera/12.1/tools/nios2eds/bin/gnu/H-i686-pc-linux-gnu/bin/../lib/gcc/nios2-elf/4.1.2/../../../../nios2-elf/lib/libc.a(lib_a-fputs.o)
 .debug_pubnames
                0x00000fcf       0x23 /OPT/altera/12.1/tools/nios2eds/bin/gnu/H-i686-pc-linux-gnu/bin/../lib/gcc/nios2-elf/4.1.2/../../../../nios2-elf/lib/libc.a(lib_a-fvwrite.o)
 .debug_pubnames
                0x00000ff2       0x20 /OPT/altera/12.1/tools/nios2eds/bin/gnu/H-i686-pc-linux-gnu/bin/../lib/gcc/nios2-elf/4.1.2/../../../../nios2-elf/lib/libc.a(lib_a-isattyr.o)
 .debug_pubnames
                0x00001012       0x1f /OPT/altera/12.1/tools/nios2eds/bin/gnu/H-i686-pc-linux-gnu/bin/../lib/gcc/nios2-elf/4.1.2/../../../../nios2-elf/lib/libc.a(lib_a-iswspace.o)
 .debug_pubnames
                0x00001031       0xc3 /OPT/altera/12.1/tools/nios2eds/bin/gnu/H-i686-pc-linux-gnu/bin/../lib/gcc/nios2-elf/4.1.2/../../../../nios2-elf/lib/libc.a(lib_a-locale.o)
 .debug_pubnames
                0x000010f4       0x1f /OPT/altera/12.1/tools/nios2eds/bin/gnu/H-i686-pc-linux-gnu/bin/../lib/gcc/nios2-elf/4.1.2/../../../../nios2-elf/lib/libc.a(lib_a-lseekr.o)
 .debug_pubnames
                0x00001113       0x2d /OPT/altera/12.1/tools/nios2eds/bin/gnu/H-i686-pc-linux-gnu/bin/../lib/gcc/nios2-elf/4.1.2/../../../../nios2-elf/lib/libc.a(lib_a-mbrtowc.o)
 .debug_pubnames
                0x00001140       0x20 /OPT/altera/12.1/tools/nios2eds/bin/gnu/H-i686-pc-linux-gnu/bin/../lib/gcc/nios2-elf/4.1.2/../../../../nios2-elf/lib/libc.a(lib_a-mbtowc_r.o)
 .debug_pubnames
                0x00001160       0x1d /OPT/altera/12.1/tools/nios2eds/bin/gnu/H-i686-pc-linux-gnu/bin/../lib/gcc/nios2-elf/4.1.2/../../../../nios2-elf/lib/libc.a(lib_a-memchr.o)
 .debug_pubnames
                0x0000117d       0x1d /OPT/altera/12.1/tools/nios2eds/bin/gnu/H-i686-pc-linux-gnu/bin/../lib/gcc/nios2-elf/4.1.2/../../../../nios2-elf/lib/libc.a(lib_a-memcmp.o)
 .debug_pubnames
                0x0000119a      0x13a /OPT/altera/12.1/tools/nios2eds/bin/gnu/H-i686-pc-linux-gnu/bin/../lib/gcc/nios2-elf/4.1.2/../../../../nios2-elf/lib/libc.a(lib_a-mprec.o)
 .debug_pubnames
                0x000012d4       0x27 /OPT/altera/12.1/tools/nios2eds/bin/gnu/H-i686-pc-linux-gnu/bin/../lib/gcc/nios2-elf/4.1.2/../../../../nios2-elf/lib/libc.a(lib_a-putc.o)
 .debug_pubnames
                0x000012fb       0x1e /OPT/altera/12.1/tools/nios2eds/bin/gnu/H-i686-pc-linux-gnu/bin/../lib/gcc/nios2-elf/4.1.2/../../../../nios2-elf/lib/libc.a(lib_a-readr.o)
 .debug_pubnames
                0x00001319       0x21 /OPT/altera/12.1/tools/nios2eds/bin/gnu/H-i686-pc-linux-gnu/bin/../lib/gcc/nios2-elf/4.1.2/../../../../nios2-elf/lib/libc.a(lib_a-reallocr.o)
 .debug_pubnames
                0x0000133a       0x1f /OPT/altera/12.1/tools/nios2eds/bin/gnu/H-i686-pc-linux-gnu/bin/../lib/gcc/nios2-elf/4.1.2/../../../../nios2-elf/lib/libc.a(lib_a-s_isinfd.o)
 .debug_pubnames
                0x00001359       0x1f /OPT/altera/12.1/tools/nios2eds/bin/gnu/H-i686-pc-linux-gnu/bin/../lib/gcc/nios2-elf/4.1.2/../../../../nios2-elf/lib/libc.a(lib_a-s_isnand.o)
 .debug_pubnames
                0x00001378       0x1d /OPT/altera/12.1/tools/nios2eds/bin/gnu/H-i686-pc-linux-gnu/bin/../lib/gcc/nios2-elf/4.1.2/../../../../nios2-elf/lib/libc.a(lib_a-sccl.o)
 .debug_pubnames
                0x00001395       0x1b /OPT/altera/12.1/tools/nios2eds/bin/gnu/H-i686-pc-linux-gnu/bin/../lib/gcc/nios2-elf/4.1.2/../../../../nios2-elf/lib/libc.a(lib_a-sf_nan.o)
 .debug_pubnames
                0x000013b0       0x36 /OPT/altera/12.1/tools/nios2eds/bin/gnu/H-i686-pc-linux-gnu/bin/../lib/gcc/nios2-elf/4.1.2/../../../../nios2-elf/lib/libc.a(lib_a-strtod.o)
 .debug_pubnames
                0x000013e6       0x21 /OPT/altera/12.1/tools/nios2eds/bin/gnu/H-i686-pc-linux-gnu/bin/../lib/gcc/nios2-elf/4.1.2/../../../../nios2-elf/lib/libc.a(lib_a-strtoll_r.o)
 .debug_pubnames
                0x00001407       0x2d /OPT/altera/12.1/tools/nios2eds/bin/gnu/H-i686-pc-linux-gnu/bin/../lib/gcc/nios2-elf/4.1.2/../../../../nios2-elf/lib/libc.a(lib_a-strtoul.o)
 .debug_pubnames
                0x00001434       0x22 /OPT/altera/12.1/tools/nios2eds/bin/gnu/H-i686-pc-linux-gnu/bin/../lib/gcc/nios2-elf/4.1.2/../../../../nios2-elf/lib/libc.a(lib_a-strtoull_r.o)
 .debug_pubnames
                0x00001456       0x39 /OPT/altera/12.1/tools/nios2eds/bin/gnu/H-i686-pc-linux-gnu/bin/../lib/gcc/nios2-elf/4.1.2/../../../../nios2-elf/lib/libc.a(lib_a-ungetc.o)
 .debug_pubnames
                0x0000148f       0x2c /OPT/altera/12.1/tools/nios2eds/bin/gnu/H-i686-pc-linux-gnu/bin/../lib/gcc/nios2-elf/4.1.2/../../../../nios2-elf/lib/libc.a(lib_a-wbuf.o)
 .debug_pubnames
                0x000014bb       0x20 /OPT/altera/12.1/tools/nios2eds/bin/gnu/H-i686-pc-linux-gnu/bin/../lib/gcc/nios2-elf/4.1.2/../../../../nios2-elf/lib/libc.a(lib_a-callocr.o)
 .debug_pubnames
                0x000014db       0x3e /OPT/altera/12.1/tools/nios2eds/bin/gnu/H-i686-pc-linux-gnu/bin/../lib/gcc/nios2-elf/4.1.2/../../../../nios2-elf/lib/libc.a(lib_a-gdtoa-gethex.o)
 .debug_pubnames
                0x00001519       0x1f /OPT/altera/12.1/tools/nios2eds/bin/gnu/H-i686-pc-linux-gnu/bin/../lib/gcc/nios2-elf/4.1.2/../../../../nios2-elf/lib/libc.a(lib_a-gdtoa-hexnan.o)
 .debug_pubnames
                0x00001538       0x1f /OPT/altera/12.1/tools/nios2eds/bin/gnu/H-i686-pc-linux-gnu/bin/../lib/gcc/nios2-elf/4.1.2/libgcc.a(_muldi3.o)
 .debug_pubnames
                0x00001557       0x23 /OPT/altera/12.1/tools/nios2eds/bin/gnu/H-i686-pc-linux-gnu/bin/../lib/gcc/nios2-elf/4.1.2/libgcc.a(_fixunsdfsi.o)
 .debug_pubnames
                0x0000157a       0x20 /OPT/altera/12.1/tools/nios2eds/bin/gnu/H-i686-pc-linux-gnu/bin/../lib/gcc/nios2-elf/4.1.2/libgcc.a(_udivdi3.o)
 .debug_pubnames
                0x0000159a       0x20 /OPT/altera/12.1/tools/nios2eds/bin/gnu/H-i686-pc-linux-gnu/bin/../lib/gcc/nios2-elf/4.1.2/libgcc.a(_umoddi3.o)
 .debug_pubnames
                0x000015ba       0x1e /OPT/altera/12.1/tools/nios2eds/bin/gnu/H-i686-pc-linux-gnu/bin/../lib/gcc/nios2-elf/4.1.2/libgcc.a(_ne_sf.o)
 .debug_pubnames
                0x000015d8       0x1e /OPT/altera/12.1/tools/nios2eds/bin/gnu/H-i686-pc-linux-gnu/bin/../lib/gcc/nios2-elf/4.1.2/libgcc.a(_gt_sf.o)
 .debug_pubnames
                0x000015f6       0x1e /OPT/altera/12.1/tools/nios2eds/bin/gnu/H-i686-pc-linux-gnu/bin/../lib/gcc/nios2-elf/4.1.2/libgcc.a(_lt_sf.o)
 .debug_pubnames
                0x00001614       0x2c /OPT/altera/12.1/tools/nios2eds/bin/gnu/H-i686-pc-linux-gnu/bin/../lib/gcc/nios2-elf/4.1.2/libgcc.a(_addsub_df.o)
 .debug_pubnames
                0x00001640       0x1f /OPT/altera/12.1/tools/nios2eds/bin/gnu/H-i686-pc-linux-gnu/bin/../lib/gcc/nios2-elf/4.1.2/libgcc.a(_mul_df.o)
 .debug_pubnames
                0x0000165f       0x1f /OPT/altera/12.1/tools/nios2eds/bin/gnu/H-i686-pc-linux-gnu/bin/../lib/gcc/nios2-elf/4.1.2/libgcc.a(_div_df.o)
 .debug_pubnames
                0x0000167e       0x1e /OPT/altera/12.1/tools/nios2eds/bin/gnu/H-i686-pc-linux-gnu/bin/../lib/gcc/nios2-elf/4.1.2/libgcc.a(_eq_df.o)
 .debug_pubnames
                0x0000169c       0x1e /OPT/altera/12.1/tools/nios2eds/bin/gnu/H-i686-pc-linux-gnu/bin/../lib/gcc/nios2-elf/4.1.2/libgcc.a(_ne_df.o)
 .debug_pubnames
                0x000016ba       0x1e /OPT/altera/12.1/tools/nios2eds/bin/gnu/H-i686-pc-linux-gnu/bin/../lib/gcc/nios2-elf/4.1.2/libgcc.a(_gt_df.o)
 .debug_pubnames
                0x000016d8       0x1e /OPT/altera/12.1/tools/nios2eds/bin/gnu/H-i686-pc-linux-gnu/bin/../lib/gcc/nios2-elf/4.1.2/libgcc.a(_ge_df.o)
 .debug_pubnames
                0x000016f6       0x1e /OPT/altera/12.1/tools/nios2eds/bin/gnu/H-i686-pc-linux-gnu/bin/../lib/gcc/nios2-elf/4.1.2/libgcc.a(_lt_df.o)
 .debug_pubnames
                0x00001714       0x1e /OPT/altera/12.1/tools/nios2eds/bin/gnu/H-i686-pc-linux-gnu/bin/../lib/gcc/nios2-elf/4.1.2/libgcc.a(_le_df.o)
 .debug_pubnames
                0x00001732       0x22 /OPT/altera/12.1/tools/nios2eds/bin/gnu/H-i686-pc-linux-gnu/bin/../lib/gcc/nios2-elf/4.1.2/libgcc.a(_si_to_df.o)
 .debug_pubnames
                0x00001754       0x20 /OPT/altera/12.1/tools/nios2eds/bin/gnu/H-i686-pc-linux-gnu/bin/../lib/gcc/nios2-elf/4.1.2/libgcc.a(_df_to_si.o)
 .debug_pubnames
                0x00001774       0x23 /OPT/altera/12.1/tools/nios2eds/bin/gnu/H-i686-pc-linux-gnu/bin/../lib/gcc/nios2-elf/4.1.2/libgcc.a(_df_to_sf.o)
 .debug_pubnames
                0x00001797       0x22 /OPT/altera/12.1/tools/nios2eds/bin/gnu/H-i686-pc-linux-gnu/bin/../lib/gcc/nios2-elf/4.1.2/libgcc.a(_thenan_df.o)
 .debug_pubnames
                0x000017b9       0x24 /OPT/altera/12.1/tools/nios2eds/bin/gnu/H-i686-pc-linux-gnu/bin/../lib/gcc/nios2-elf/4.1.2/libgcc.a(_usi_to_df.o)
 .debug_pubnames
                0x000017dd       0x20 /OPT/altera/12.1/tools/nios2eds/bin/gnu/H-i686-pc-linux-gnu/bin/../lib/gcc/nios2-elf/4.1.2/libgcc.a(_clz.o)
 .debug_pubnames
                0x000017fd       0x1f /OPT/altera/12.1/tools/nios2eds/bin/gnu/H-i686-pc-linux-gnu/bin/../lib/gcc/nios2-elf/4.1.2/libgcc.a(_clzsi2.o)
 .debug_pubnames
                0x0000181c       0x21 /OPT/altera/12.1/tools/nios2eds/bin/gnu/H-i686-pc-linux-gnu/bin/../lib/gcc/nios2-elf/4.1.2/libgcc.a(_unpack_sf.o)
 .debug_pubnames
                0x0000183d       0x26 /OPT/altera/12.1/tools/nios2eds/bin/gnu/H-i686-pc-linux-gnu/bin/../lib/gcc/nios2-elf/4.1.2/libgcc.a(_fpcmp_parts_sf.o)
 .debug_pubnames
                0x00001863       0x20 /OPT/altera/12.1/tools/nios2eds/bin/gnu/H-i686-pc-linux-gnu/bin/../lib/gcc/nios2-elf/4.1.2/libgcc.a(_make_sf.o)
 .debug_pubnames
                0x00001883       0x1f /OPT/altera/12.1/tools/nios2eds/bin/gnu/H-i686-pc-linux-gnu/bin/../lib/gcc/nios2-elf/4.1.2/libgcc.a(_pack_df.o)
 .debug_pubnames
                0x000018a2       0x21 /OPT/altera/12.1/tools/nios2eds/bin/gnu/H-i686-pc-linux-gnu/bin/../lib/gcc/nios2-elf/4.1.2/libgcc.a(_unpack_df.o)
 .debug_pubnames
                0x000018c3       0x26 /OPT/altera/12.1/tools/nios2eds/bin/gnu/H-i686-pc-linux-gnu/bin/../lib/gcc/nios2-elf/4.1.2/libgcc.a(_fpcmp_parts_df.o)
 .debug_pubnames
                0x000018e9       0x1f /OPT/altera/12.1/tools/nios2eds/bin/gnu/H-i686-pc-linux-gnu/bin/../lib/gcc/nios2-elf/4.1.2/libgcc.a(_pack_sf.o)
 .debug_pubnames
                0x00001908       0x27 ../G4Capstone_bsp//libucosii_bsp.a(alt_dcache_flush.o)
 .debug_pubnames
                0x0000192f       0x58 ../G4Capstone_bsp//libucosii_bsp.a(alt_flash_dev.o)
 .debug_pubnames
                0x00001987       0x1c ../G4Capstone_bsp//libucosii_bsp.a(alt_fstat.o)
 .debug_pubnames
                0x000019a3       0x27 ../G4Capstone_bsp//libucosii_bsp.a(alt_irq_register.o)
 .debug_pubnames
                0x000019ca       0x3b ../G4Capstone_bsp//libucosii_bsp.a(alt_irq_vars.o)
 .debug_pubnames
                0x00001a05       0x1d ../G4Capstone_bsp//libucosii_bsp.a(alt_isatty.o)
 .debug_pubnames
                0x00001a22       0x1c ../G4Capstone_bsp//libucosii_bsp.a(alt_lseek.o)
 .debug_pubnames
                0x00001a3e       0x46 ../G4Capstone_bsp//libucosii_bsp.a(alt_main.o)
 .debug_pubnames
                0x00001a84       0x1b ../G4Capstone_bsp//libucosii_bsp.a(alt_open.o)
 .debug_pubnames
                0x00001a9f       0x25 ../G4Capstone_bsp//libucosii_bsp.a(alt_release_fd.o)
 .debug_pubnames
                0x00001ac4       0x1b ../G4Capstone_bsp//libucosii_bsp.a(alt_sbrk.o)
 .debug_pubnames
                0x00001adf       0x68 ../G4Capstone_bsp//libucosii_bsp.a(alt_tick.o)
 .debug_pubnames
                0x00001b47       0x1d ../G4Capstone_bsp//libucosii_bsp.a(alt_usleep.o)
 .debug_pubnames
                0x00001b64       0x41 ../G4Capstone_bsp//libucosii_bsp.a(alt_env_lock.o)
 .debug_pubnames
                0x00001ba5       0x48 ../G4Capstone_bsp//libucosii_bsp.a(alt_malloc_lock.o)
 .debug_pubnames
                0x00001bed      0x3f8 ../G4Capstone_bsp//libucosii_bsp.a(os_core.o)
 .debug_pubnames
                0x00001fe5      0x3c5 ../G4Capstone_bsp//libucosii_bsp.a(os_dbg.o)
 .debug_pubnames
                0x000023aa       0xd0 ../G4Capstone_bsp//libucosii_bsp.a(os_flag.o)
 .debug_pubnames
                0x0000247a       0x96 ../G4Capstone_bsp//libucosii_bsp.a(os_mbox.o)
 .debug_pubnames
                0x00002510       0x7c ../G4Capstone_bsp//libucosii_bsp.a(os_mem.o)
 .debug_pubnames
                0x0000258c       0xa9 ../G4Capstone_bsp//libucosii_bsp.a(os_q.o)
 .debug_pubnames
                0x00002635       0x8a ../G4Capstone_bsp//libucosii_bsp.a(os_sem.o)
 .debug_pubnames
                0x000026bf       0xe5 ../G4Capstone_bsp//libucosii_bsp.a(os_task.o)
 .debug_pubnames
                0x000027a4       0x62 ../G4Capstone_bsp//libucosii_bsp.a(os_time.o)
 .debug_pubnames
                0x00002806       0x34 ../G4Capstone_bsp//libucosii_bsp.a(alt_sys_init.o)
 .debug_pubnames
                0x0000283a       0xa5 ../G4Capstone_bsp//libucosii_bsp.a(altera_avalon_jtag_uart_fd.o)
 .debug_pubnames
                0x000028df       0x55 ../G4Capstone_bsp//libucosii_bsp.a(altera_avalon_jtag_uart_init.o)
 .debug_pubnames
                0x00002934       0x34 ../G4Capstone_bsp//libucosii_bsp.a(altera_avalon_jtag_uart_ioctl.o)
 .debug_pubnames
                0x00002968       0x33 ../G4Capstone_bsp//libucosii_bsp.a(altera_avalon_jtag_uart_read.o)
 .debug_pubnames
                0x0000299b       0x34 ../G4Capstone_bsp//libucosii_bsp.a(altera_avalon_jtag_uart_write.o)
 .debug_pubnames
                0x000029cf       0x2f ../G4Capstone_bsp//libucosii_bsp.a(altera_avalon_timer_sc.o)
 .debug_pubnames
                0x000029fe       0xa3 ../G4Capstone_bsp//libucosii_bsp.a(altera_ro_zipfs.o)
 .debug_pubnames
                0x00002aa1      0x2ab ../G4Capstone_bsp//libucosii_bsp.a(altera_up_avalon_audio_and_video_config.o)
 .debug_pubnames
                0x00002d4c      0x1cd ../G4Capstone_bsp//libucosii_bsp.a(altera_up_avalon_character_lcd.o)
 .debug_pubnames
                0x00002f19       0x1c ../G4Capstone_bsp//libucosii_bsp.a(alt_iniche_close.o)
 .debug_pubnames
                0x00002f35       0x42 ../G4Capstone_bsp//libucosii_bsp.a(alt_iniche_dev.o)
 .debug_pubnames
                0x00002f77       0x1b ../G4Capstone_bsp//libucosii_bsp.a(alt_iniche_read.o)
 .debug_pubnames
                0x00002f92       0x1c ../G4Capstone_bsp//libucosii_bsp.a(alt_iniche_write.o)
 .debug_pubnames
                0x00002fae       0x90 ../G4Capstone_bsp//libucosii_bsp.a(ipnet.o)
 .debug_pubnames
                0x0000303e       0x81 ../G4Capstone_bsp//libucosii_bsp.a(ipstart.o)
 .debug_pubnames
                0x000030bf      0x108 ../G4Capstone_bsp//libucosii_bsp.a(igmp_cmn.o)
 .debug_pubnames
                0x000031c7       0xc4 ../G4Capstone_bsp//libucosii_bsp.a(bsdsock.o)
 .debug_pubnames
                0x0000328b       0x27 ../G4Capstone_bsp//libucosii_bsp.a(cksum.o)
 .debug_pubnames
                0x000032b2       0xcc ../G4Capstone_bsp//libucosii_bsp.a(in_utils.o)
 .debug_pubnames
                0x0000337e       0xb2 ../G4Capstone_bsp//libucosii_bsp.a(netmain.o)
 .debug_pubnames
                0x00003430       0x97 ../G4Capstone_bsp//libucosii_bsp.a(tk_crnos.o)
 .debug_pubnames
                0x000034c7      0x252 ../G4Capstone_bsp//libucosii_bsp.a(dhcpclnt.o)
 .debug_pubnames
                0x00003719       0x1f ../G4Capstone_bsp//libucosii_bsp.a(dhcputil.o)
 .debug_pubnames
                0x00003738       0xe2 ../G4Capstone_bsp//libucosii_bsp.a(pktalloc.o)
 .debug_pubnames
                0x0000381a       0x2d ../G4Capstone_bsp//libucosii_bsp.a(q.o)
 .debug_pubnames
                0x00003847       0x3a ../G4Capstone_bsp//libucosii_bsp.a(udp_open.o)
 .debug_pubnames
                0x00003881       0xc5 ../G4Capstone_bsp//libucosii_bsp.a(brdutils.o)
 .debug_pubnames
                0x00003946      0x10c ../G4Capstone_bsp//libucosii_bsp.a(osportco.o)
 .debug_pubnames
                0x00003a52       0xf5 ../G4Capstone_bsp//libucosii_bsp.a(targnios.o)
 .debug_pubnames
                0x00003b47      0x190 ../G4Capstone_bsp//libucosii_bsp.a(nptcp.o)
 .debug_pubnames
                0x00003cd7       0x46 ../G4Capstone_bsp//libucosii_bsp.a(rawsock.o)
 .debug_pubnames
                0x00003d1d      0x108 ../G4Capstone_bsp//libucosii_bsp.a(sockcall.o)
 .debug_pubnames
                0x00003e25       0xfc ../G4Capstone_bsp//libucosii_bsp.a(socket.o)
 .debug_pubnames
                0x00003f21      0x178 ../G4Capstone_bsp//libucosii_bsp.a(socket2.o)
 .debug_pubnames
                0x00004099       0x92 ../G4Capstone_bsp//libucosii_bsp.a(soselect.o)
 .debug_pubnames
                0x0000412b       0xc2 ../G4Capstone_bsp//libucosii_bsp.a(tcp_in.o)
 .debug_pubnames
                0x000041ed       0x57 ../G4Capstone_bsp//libucosii_bsp.a(tcp_out.o)
 .debug_pubnames
                0x00004244       0xb9 ../G4Capstone_bsp//libucosii_bsp.a(tcp_subr.o)
 .debug_pubnames
                0x000042fd       0x96 ../G4Capstone_bsp//libucosii_bsp.a(tcp_timr.o)
 .debug_pubnames
                0x00004393       0x79 ../G4Capstone_bsp//libucosii_bsp.a(tcp_usr.o)
 .debug_pubnames
                0x0000440c       0x1e ../G4Capstone_bsp//libucosii_bsp.a(tcpport.o)
 .debug_pubnames
                0x0000442a       0x76 ../G4Capstone_bsp//libucosii_bsp.a(udpsock.o)
 .debug_pubnames
                0x000044a0       0x26 ../G4Capstone_bsp//libucosii_bsp.a(alt_alarm_start.o)
 .debug_pubnames
                0x000044c6       0x25 ../G4Capstone_bsp//libucosii_bsp.a(alt_busy_sleep.o)
 .debug_pubnames
                0x000044eb       0x20 ../G4Capstone_bsp//libucosii_bsp.a(alt_close.o)
 .debug_pubnames
                0x0000450b       0x78 ../G4Capstone_bsp//libucosii_bsp.a(alt_dev.o)
 .debug_pubnames
                0x00004583       0x2b ../G4Capstone_bsp//libucosii_bsp.a(alt_dev_llist_insert.o)
 .debug_pubnames
                0x000045ae       0x20 ../G4Capstone_bsp//libucosii_bsp.a(alt_do_ctors.o)
 .debug_pubnames
                0x000045ce       0x20 ../G4Capstone_bsp//libucosii_bsp.a(alt_do_dtors.o)
 .debug_pubnames
                0x000045ee       0x20 ../G4Capstone_bsp//libucosii_bsp.a(alt_errno.o)
 .debug_pubnames
                0x0000460e       0x23 ../G4Capstone_bsp//libucosii_bsp.a(alt_find_dev.o)
 .debug_pubnames
                0x00004631       0x24 ../G4Capstone_bsp//libucosii_bsp.a(alt_find_file.o)
 .debug_pubnames
                0x00004655       0x21 ../G4Capstone_bsp//libucosii_bsp.a(alt_fs_reg.o)
 .debug_pubnames
                0x00004676       0x21 ../G4Capstone_bsp//libucosii_bsp.a(alt_get_fd.o)
 .debug_pubnames
                0x00004697       0x6e ../G4Capstone_bsp//libucosii_bsp.a(alt_iic.o)
 .debug_pubnames
                0x00004705       0x2b ../G4Capstone_bsp//libucosii_bsp.a(alt_iic_isr_register.o)
 .debug_pubnames
                0x00004730       0x26 ../G4Capstone_bsp//libucosii_bsp.a(alt_io_redirect.o)
 .debug_pubnames
                0x00004756       0x32 ../G4Capstone_bsp//libucosii_bsp.a(alt_irq_handler.o)
 .debug_pubnames
                0x00004788       0x1f ../G4Capstone_bsp//libucosii_bsp.a(alt_read.o)
 .debug_pubnames
                0x000047a7       0x27 ../G4Capstone_bsp//libucosii_bsp.a(alt_remap_cached.o)
 .debug_pubnames
                0x000047ce       0x29 ../G4Capstone_bsp//libucosii_bsp.a(alt_remap_uncached.o)
 .debug_pubnames
                0x000047f7       0x20 ../G4Capstone_bsp//libucosii_bsp.a(alt_write.o)
 .debug_pubnames
                0x00004817       0x31 ../G4Capstone_bsp//libucosii_bsp.a(altera_nios2_qsys_irq.o)
 .debug_pubnames
                0x00004848       0xcd ../G4Capstone_bsp//libucosii_bsp.a(os_cpu_c.o)
 .debug_pubnames
                0x00004915       0xd4 ../G4Capstone_bsp//libucosii_bsp.a(allports.o)
 .debug_pubnames
                0x000049e9       0x6f ../G4Capstone_bsp//libucosii_bsp.a(timeouts.o)
 .debug_pubnames
                0x00004a58       0x35 ../G4Capstone_bsp//libucosii_bsp.a(tk_misc.o)
 .debug_pubnames
                0x00004a8d       0x1c ../G4Capstone_bsp//libucosii_bsp.a(alt_iniche_fcntl.o)
 .debug_pubnames
                0x00004aa9      0x134 ../G4Capstone_bsp//libucosii_bsp.a(et_arp.o)
 .debug_pubnames
                0x00004bdd       0x58 ../G4Capstone_bsp//libucosii_bsp.a(iface.o)
 .debug_pubnames
                0x00004c35       0xea ../G4Capstone_bsp//libucosii_bsp.a(ip.o)
 .debug_pubnames
                0x00004d1f      0x22e ../G4Capstone_bsp//libucosii_bsp.a(ip_reasm.o)
 .debug_pubnames
                0x00004f4d       0x3c ../G4Capstone_bsp//libucosii_bsp.a(ipdemux.o)
 .debug_pubnames
                0x00004f89       0x43 ../G4Capstone_bsp//libucosii_bsp.a(ipmc.o)
 .debug_pubnames
                0x00004fcc       0x99 ../G4Capstone_bsp//libucosii_bsp.a(ipport.o)
 .debug_pubnames
                0x00005065       0x87 ../G4Capstone_bsp//libucosii_bsp.a(ipraw.o)
 .debug_pubnames
                0x000050ec       0x5d ../G4Capstone_bsp//libucosii_bsp.a(iproute.o)
 .debug_pubnames
                0x00005149       0x7f ../G4Capstone_bsp//libucosii_bsp.a(udp.o)
 .debug_pubnames
                0x000051c8       0x23 ../G4Capstone_bsp//libucosii_bsp.a(igmp.o)
 .debug_pubnames
                0x000051eb       0x8d ../G4Capstone_bsp//libucosii_bsp.a(igmp2.o)
 .debug_pubnames
                0x00005278       0x5f ../G4Capstone_bsp//libucosii_bsp.a(ipopt.o)
 .debug_pubnames
                0x000052d7       0x35 ../G4Capstone_bsp//libucosii_bsp.a(u_mctest.o)
 .debug_pubnames
                0x0000530c       0x33 ../G4Capstone_bsp//libucosii_bsp.a(dhcsetup.o)
 .debug_pubnames
                0x0000533f       0xb1 ../G4Capstone_bsp//libucosii_bsp.a(memdev.o)
 .debug_pubnames
                0x000053f0       0xa6 ../G4Capstone_bsp//libucosii_bsp.a(parseip.o)
 .debug_pubnames
                0x00005496       0x20 ../G4Capstone_bsp//libucosii_bsp.a(tcpcksum.o)
 .debug_pubnames
                0x000054b6       0xc8 ../G4Capstone_bsp//libucosii_bsp.a(in_pcb.o)
 .debug_pubnames
                0x0000557e      0x278 ../G4Capstone_bsp//libucosii_bsp.a(vfsfiles.o)
 .debug_pubnames
                0x000057f6       0x1f ../G4Capstone_bsp//libucosii_bsp.a(vfsport.o)
 .debug_pubnames
                0x00005815       0x20 ../G4Capstone_bsp//libucosii_bsp.a(alt_fcntl.o)
 .debug_pubnames
                0x00005835       0x66 ../G4Capstone_bsp//libucosii_bsp.a(icmp.o)
 .debug_pubnames
                0x0000589b       0x2a /OPT/altera/12.1/tools/nios2eds/bin/gnu/H-i686-pc-linux-gnu/bin/../lib/gcc/nios2-elf/4.1.2/../../../../nios2-elf/lib/libc.a(lib_a-atexit.o)
 .debug_pubnames
                0x000058c5       0x1d /OPT/altera/12.1/tools/nios2eds/bin/gnu/H-i686-pc-linux-gnu/bin/../lib/gcc/nios2-elf/4.1.2/../../../../nios2-elf/lib/libc.a(lib_a-calloc.o)
 .debug_pubnames
                0x000058e2       0x1b /OPT/altera/12.1/tools/nios2eds/bin/gnu/H-i686-pc-linux-gnu/bin/../lib/gcc/nios2-elf/4.1.2/../../../../nios2-elf/lib/libc.a(lib_a-exit.o)
 .debug_pubnames
                0x000058fd       0x27 /OPT/altera/12.1/tools/nios2eds/bin/gnu/H-i686-pc-linux-gnu/bin/../lib/gcc/nios2-elf/4.1.2/../../../../nios2-elf/lib/libc.a(lib_a-getc.o)
 .debug_pubnames
                0x00005924       0x26 /OPT/altera/12.1/tools/nios2eds/bin/gnu/H-i686-pc-linux-gnu/bin/../lib/gcc/nios2-elf/4.1.2/../../../../nios2-elf/lib/libc.a(lib_a-malloc.o)
 .debug_pubnames
                0x0000594a       0x2c /OPT/altera/12.1/tools/nios2eds/bin/gnu/H-i686-pc-linux-gnu/bin/../lib/gcc/nios2-elf/4.1.2/../../../../nios2-elf/lib/libc.a(lib_a-rget.o)
 .debug_pubnames
                0x00005976       0x2d /OPT/altera/12.1/tools/nios2eds/bin/gnu/H-i686-pc-linux-gnu/bin/../lib/gcc/nios2-elf/4.1.2/../../../../nios2-elf/lib/libc.a(lib_a-vprintf.o)
 .debug_pubnames
                0x000059a3       0x2f /OPT/altera/12.1/tools/nios2eds/bin/gnu/H-i686-pc-linux-gnu/bin/../lib/gcc/nios2-elf/4.1.2/../../../../nios2-elf/lib/libc.a(lib_a-vsprintf.o)
 .debug_pubnames
                0x000059d2       0x2a /OPT/altera/12.1/tools/nios2eds/bin/gnu/H-i686-pc-linux-gnu/bin/../lib/gcc/nios2-elf/4.1.2/../../../../nios2-elf/lib/libc.a(lib_a-__atexit.o)
 .debug_pubnames
                0x000059fc       0x27 /OPT/altera/12.1/tools/nios2eds/bin/gnu/H-i686-pc-linux-gnu/bin/../lib/gcc/nios2-elf/4.1.2/../../../../nios2-elf/lib/libc.a(lib_a-__call_atexit.o)
 .debug_pubnames
                0x00005a23       0x1c ../G4Capstone_bsp//libucosii_bsp.a(alt_exit.o)

.debug_info     0x00000000    0x87758
 *(.debug_info .gnu.linkonce.wi.*)
 .debug_info    0x00000000       0x7b ../G4Capstone_bsp//obj/HAL/src/crt0.o
 .debug_info    0x0000007b      0xcde obj/default/alt_error_handler.o
 .debug_info    0x00000d59     0x1259 obj/default/dm9000a.o
 .debug_info    0x00001fb2     0x1e8f obj/default/http.o
 .debug_info    0x00003e41     0x1226 obj/default/network_utilities.o
 .debug_info    0x00005067      0xa58 obj/default/srec_flash.o
 .debug_info    0x00005abf     0x12ee obj/default/web_server.o
 .debug_info    0x00006dad      0x21c /OPT/altera/12.1/tools/nios2eds/bin/gnu/H-i686-pc-linux-gnu/bin/../lib/gcc/nios2-elf/4.1.2/libgcc.a(lib2-divmod.o)
 .debug_info    0x00006fc9      0x960 /OPT/altera/12.1/tools/nios2eds/bin/gnu/H-i686-pc-linux-gnu/bin/../lib/gcc/nios2-elf/4.1.2/../../../../nios2-elf/lib/libc.a(lib_a-atoi.o)
 .debug_info    0x00007929       0xa0 /OPT/altera/12.1/tools/nios2eds/bin/gnu/H-i686-pc-linux-gnu/bin/../lib/gcc/nios2-elf/4.1.2/../../../../nios2-elf/lib/libc.a(lib_a-ctype_.o)
 .debug_info    0x000079c9      0x994 /OPT/altera/12.1/tools/nios2eds/bin/gnu/H-i686-pc-linux-gnu/bin/../lib/gcc/nios2-elf/4.1.2/../../../../nios2-elf/lib/libc.a(lib_a-fclose.o)
 .debug_info    0x0000835d      0x9fe /OPT/altera/12.1/tools/nios2eds/bin/gnu/H-i686-pc-linux-gnu/bin/../lib/gcc/nios2-elf/4.1.2/../../../../nios2-elf/lib/libc.a(lib_a-fflush.o)
 .debug_info    0x00008d5b      0x9ab /OPT/altera/12.1/tools/nios2eds/bin/gnu/H-i686-pc-linux-gnu/bin/../lib/gcc/nios2-elf/4.1.2/../../../../nios2-elf/lib/libc.a(lib_a-fgetpos.o)
 .debug_info    0x00009706      0xb72 /OPT/altera/12.1/tools/nios2eds/bin/gnu/H-i686-pc-linux-gnu/bin/../lib/gcc/nios2-elf/4.1.2/../../../../nios2-elf/lib/libc.a(lib_a-findfp.o)
 .debug_info    0x0000a278      0x9e0 /OPT/altera/12.1/tools/nios2eds/bin/gnu/H-i686-pc-linux-gnu/bin/../lib/gcc/nios2-elf/4.1.2/../../../../nios2-elf/lib/libc.a(lib_a-fopen.o)
 .debug_info    0x0000ac58      0x9e1 /OPT/altera/12.1/tools/nios2eds/bin/gnu/H-i686-pc-linux-gnu/bin/../lib/gcc/nios2-elf/4.1.2/../../../../nios2-elf/lib/libc.a(lib_a-fprintf.o)
 .debug_info    0x0000b639      0xa77 /OPT/altera/12.1/tools/nios2eds/bin/gnu/H-i686-pc-linux-gnu/bin/../lib/gcc/nios2-elf/4.1.2/../../../../nios2-elf/lib/libc.a(lib_a-fread.o)
 .debug_info    0x0000c0b0      0xbc9 /OPT/altera/12.1/tools/nios2eds/bin/gnu/H-i686-pc-linux-gnu/bin/../lib/gcc/nios2-elf/4.1.2/../../../../nios2-elf/lib/libc.a(lib_a-freer.o)
 .debug_info    0x0000cc79      0xbdc /OPT/altera/12.1/tools/nios2eds/bin/gnu/H-i686-pc-linux-gnu/bin/../lib/gcc/nios2-elf/4.1.2/../../../../nios2-elf/lib/libc.a(lib_a-fseek.o)
 .debug_info    0x0000d855      0xafc /OPT/altera/12.1/tools/nios2eds/bin/gnu/H-i686-pc-linux-gnu/bin/../lib/gcc/nios2-elf/4.1.2/../../../../nios2-elf/lib/libc.a(lib_a-fstatr.o)
 .debug_info    0x0000e351      0x996 /OPT/altera/12.1/tools/nios2eds/bin/gnu/H-i686-pc-linux-gnu/bin/../lib/gcc/nios2-elf/4.1.2/../../../../nios2-elf/lib/libc.a(lib_a-ftell.o)
 .debug_info    0x0000ece7      0xaed /OPT/altera/12.1/tools/nios2eds/bin/gnu/H-i686-pc-linux-gnu/bin/../lib/gcc/nios2-elf/4.1.2/../../../../nios2-elf/lib/libc.a(lib_a-fwalk.o)
 .debug_info    0x0000f7d4      0xa83 /OPT/altera/12.1/tools/nios2eds/bin/gnu/H-i686-pc-linux-gnu/bin/../lib/gcc/nios2-elf/4.1.2/../../../../nios2-elf/lib/libc.a(lib_a-fwrite.o)
 .debug_info    0x00010257      0x93d /OPT/altera/12.1/tools/nios2eds/bin/gnu/H-i686-pc-linux-gnu/bin/../lib/gcc/nios2-elf/4.1.2/../../../../nios2-elf/lib/libc.a(lib_a-impure.o)
 .debug_info    0x00010b94       0x8c /OPT/altera/12.1/tools/nios2eds/bin/gnu/H-i686-pc-linux-gnu/bin/../lib/gcc/nios2-elf/4.1.2/../../../../nios2-elf/lib/libc.a(lib_a-int_errno.o)
 .debug_info    0x00010c20      0xb1a /OPT/altera/12.1/tools/nios2eds/bin/gnu/H-i686-pc-linux-gnu/bin/../lib/gcc/nios2-elf/4.1.2/../../../../nios2-elf/lib/libc.a(lib_a-makebuf.o)
 .debug_info    0x0001173a      0xcd0 /OPT/altera/12.1/tools/nios2eds/bin/gnu/H-i686-pc-linux-gnu/bin/../lib/gcc/nios2-elf/4.1.2/../../../../nios2-elf/lib/libc.a(lib_a-mallocr.o)
 .debug_info    0x0001240a      0x106 /OPT/altera/12.1/tools/nios2eds/bin/gnu/H-i686-pc-linux-gnu/bin/../lib/gcc/nios2-elf/4.1.2/../../../../nios2-elf/lib/libc.a(lib_a-memcpy.o)
 .debug_info    0x00012510      0x13e /OPT/altera/12.1/tools/nios2eds/bin/gnu/H-i686-pc-linux-gnu/bin/../lib/gcc/nios2-elf/4.1.2/../../../../nios2-elf/lib/libc.a(lib_a-memmove.o)
 .debug_info    0x0001264e      0x113 /OPT/altera/12.1/tools/nios2eds/bin/gnu/H-i686-pc-linux-gnu/bin/../lib/gcc/nios2-elf/4.1.2/../../../../nios2-elf/lib/libc.a(lib_a-memset.o)
 .debug_info    0x00012761      0x977 /OPT/altera/12.1/tools/nios2eds/bin/gnu/H-i686-pc-linux-gnu/bin/../lib/gcc/nios2-elf/4.1.2/../../../../nios2-elf/lib/libc.a(lib_a-openr.o)
 .debug_info    0x000130d8      0x97b /OPT/altera/12.1/tools/nios2eds/bin/gnu/H-i686-pc-linux-gnu/bin/../lib/gcc/nios2-elf/4.1.2/../../../../nios2-elf/lib/libc.a(lib_a-perror.o)
 .debug_info    0x00013a53      0x9d1 /OPT/altera/12.1/tools/nios2eds/bin/gnu/H-i686-pc-linux-gnu/bin/../lib/gcc/nios2-elf/4.1.2/../../../../nios2-elf/lib/libc.a(lib_a-printf.o)
 .debug_info    0x00014424      0xa25 /OPT/altera/12.1/tools/nios2eds/bin/gnu/H-i686-pc-linux-gnu/bin/../lib/gcc/nios2-elf/4.1.2/../../../../nios2-elf/lib/libc.a(lib_a-puts.o)
 .debug_info    0x00014e49      0x98b /OPT/altera/12.1/tools/nios2eds/bin/gnu/H-i686-pc-linux-gnu/bin/../lib/gcc/nios2-elf/4.1.2/../../../../nios2-elf/lib/libc.a(lib_a-refill.o)
 .debug_info    0x000157d4      0x962 /OPT/altera/12.1/tools/nios2eds/bin/gnu/H-i686-pc-linux-gnu/bin/../lib/gcc/nios2-elf/4.1.2/../../../../nios2-elf/lib/libc.a(lib_a-sbrkr.o)
 .debug_info    0x00016136      0xa16 /OPT/altera/12.1/tools/nios2eds/bin/gnu/H-i686-pc-linux-gnu/bin/../lib/gcc/nios2-elf/4.1.2/../../../../nios2-elf/lib/libc.a(lib_a-sprintf.o)
 .debug_info    0x00016b4c      0xa6a /OPT/altera/12.1/tools/nios2eds/bin/gnu/H-i686-pc-linux-gnu/bin/../lib/gcc/nios2-elf/4.1.2/../../../../nios2-elf/lib/libc.a(lib_a-sscanf.o)
 .debug_info    0x000175b6      0xaac /OPT/altera/12.1/tools/nios2eds/bin/gnu/H-i686-pc-linux-gnu/bin/../lib/gcc/nios2-elf/4.1.2/../../../../nios2-elf/lib/libc.a(lib_a-stdio.o)
 .debug_info    0x00018062      0x13a /OPT/altera/12.1/tools/nios2eds/bin/gnu/H-i686-pc-linux-gnu/bin/../lib/gcc/nios2-elf/4.1.2/../../../../nios2-elf/lib/libc.a(lib_a-strcasecmp.o)
 .debug_info    0x0001819c       0xed /OPT/altera/12.1/tools/nios2eds/bin/gnu/H-i686-pc-linux-gnu/bin/../lib/gcc/nios2-elf/4.1.2/../../../../nios2-elf/lib/libc.a(lib_a-strcat.o)
 .debug_info    0x00018289      0x118 /OPT/altera/12.1/tools/nios2eds/bin/gnu/H-i686-pc-linux-gnu/bin/../lib/gcc/nios2-elf/4.1.2/../../../../nios2-elf/lib/libc.a(lib_a-strchr.o)
 .debug_info    0x000183a1       0xdd /OPT/altera/12.1/tools/nios2eds/bin/gnu/H-i686-pc-linux-gnu/bin/../lib/gcc/nios2-elf/4.1.2/../../../../nios2-elf/lib/libc.a(lib_a-strcmp.o)
 .debug_info    0x0001847e      0x110 /OPT/altera/12.1/tools/nios2eds/bin/gnu/H-i686-pc-linux-gnu/bin/../lib/gcc/nios2-elf/4.1.2/../../../../nios2-elf/lib/libc.a(lib_a-strcpy.o)
 .debug_info    0x0001858e       0xbb /OPT/altera/12.1/tools/nios2eds/bin/gnu/H-i686-pc-linux-gnu/bin/../lib/gcc/nios2-elf/4.1.2/../../../../nios2-elf/lib/libc.a(lib_a-strerror.o)
 .debug_info    0x00018649       0xdb /OPT/altera/12.1/tools/nios2eds/bin/gnu/H-i686-pc-linux-gnu/bin/../lib/gcc/nios2-elf/4.1.2/../../../../nios2-elf/lib/libc.a(lib_a-strlen.o)
 .debug_info    0x00018724       0xf5 /OPT/altera/12.1/tools/nios2eds/bin/gnu/H-i686-pc-linux-gnu/bin/../lib/gcc/nios2-elf/4.1.2/../../../../nios2-elf/lib/libc.a(lib_a-strncmp.o)
 .debug_info    0x00018819      0x12a /OPT/altera/12.1/tools/nios2eds/bin/gnu/H-i686-pc-linux-gnu/bin/../lib/gcc/nios2-elf/4.1.2/../../../../nios2-elf/lib/libc.a(lib_a-strncpy.o)
 .debug_info    0x00018943      0x3d1 /OPT/altera/12.1/tools/nios2eds/bin/gnu/H-i686-pc-linux-gnu/bin/../lib/gcc/nios2-elf/4.1.2/../../../../nios2-elf/lib/libc.a(lib_a-strstr.o)
 .debug_info    0x00018d14      0x949 /OPT/altera/12.1/tools/nios2eds/bin/gnu/H-i686-pc-linux-gnu/bin/../lib/gcc/nios2-elf/4.1.2/../../../../nios2-elf/lib/libc.a(lib_a-strtok.o)
 .debug_info    0x0001965d      0x15e /OPT/altera/12.1/tools/nios2eds/bin/gnu/H-i686-pc-linux-gnu/bin/../lib/gcc/nios2-elf/4.1.2/../../../../nios2-elf/lib/libc.a(lib_a-strtok_r.o)
 .debug_info    0x000197bb      0xa2a /OPT/altera/12.1/tools/nios2eds/bin/gnu/H-i686-pc-linux-gnu/bin/../lib/gcc/nios2-elf/4.1.2/../../../../nios2-elf/lib/libc.a(lib_a-strtol.o)
 .debug_info    0x0001a1e5       0x63 /OPT/altera/12.1/tools/nios2eds/bin/gnu/H-i686-pc-linux-gnu/bin/../lib/gcc/nios2-elf/4.1.2/../../../../nios2-elf/lib/libc.a(lib_a-u_strerr.o)
 .debug_info    0x0001a248     0x10d5 /OPT/altera/12.1/tools/nios2eds/bin/gnu/H-i686-pc-linux-gnu/bin/../lib/gcc/nios2-elf/4.1.2/../../../../nios2-elf/lib/libc.a(lib_a-vfprintf.o)
 .debug_info    0x0001b31d      0xe8c /OPT/altera/12.1/tools/nios2eds/bin/gnu/H-i686-pc-linux-gnu/bin/../lib/gcc/nios2-elf/4.1.2/../../../../nios2-elf/lib/libc.a(lib_a-vfscanf.o)
 .debug_info    0x0001c1a9      0x993 /OPT/altera/12.1/tools/nios2eds/bin/gnu/H-i686-pc-linux-gnu/bin/../lib/gcc/nios2-elf/4.1.2/../../../../nios2-elf/lib/libc.a(lib_a-writer.o)
 .debug_info    0x0001cb3c      0x95d /OPT/altera/12.1/tools/nios2eds/bin/gnu/H-i686-pc-linux-gnu/bin/../lib/gcc/nios2-elf/4.1.2/../../../../nios2-elf/lib/libc.a(lib_a-wsetup.o)
 .debug_info    0x0001d499      0x958 /OPT/altera/12.1/tools/nios2eds/bin/gnu/H-i686-pc-linux-gnu/bin/../lib/gcc/nios2-elf/4.1.2/../../../../nios2-elf/lib/libc.a(lib_a-closer.o)
 .debug_info    0x0001ddf1      0xd6f /OPT/altera/12.1/tools/nios2eds/bin/gnu/H-i686-pc-linux-gnu/bin/../lib/gcc/nios2-elf/4.1.2/../../../../nios2-elf/lib/libc.a(lib_a-dtoa.o)
 .debug_info    0x0001eb60      0x977 /OPT/altera/12.1/tools/nios2eds/bin/gnu/H-i686-pc-linux-gnu/bin/../lib/gcc/nios2-elf/4.1.2/../../../../nios2-elf/lib/libc.a(lib_a-flags.o)
 .debug_info    0x0001f4d7      0x9bd /OPT/altera/12.1/tools/nios2eds/bin/gnu/H-i686-pc-linux-gnu/bin/../lib/gcc/nios2-elf/4.1.2/../../../../nios2-elf/lib/libc.a(lib_a-fputc.o)
 .debug_info    0x0001fe94      0xa40 /OPT/altera/12.1/tools/nios2eds/bin/gnu/H-i686-pc-linux-gnu/bin/../lib/gcc/nios2-elf/4.1.2/../../../../nios2-elf/lib/libc.a(lib_a-fputs.o)
 .debug_info    0x000208d4      0xa88 /OPT/altera/12.1/tools/nios2eds/bin/gnu/H-i686-pc-linux-gnu/bin/../lib/gcc/nios2-elf/4.1.2/../../../../nios2-elf/lib/libc.a(lib_a-fvwrite.o)
 .debug_info    0x0002135c      0x958 /OPT/altera/12.1/tools/nios2eds/bin/gnu/H-i686-pc-linux-gnu/bin/../lib/gcc/nios2-elf/4.1.2/../../../../nios2-elf/lib/libc.a(lib_a-isattyr.o)
 .debug_info    0x00021cb4       0xed /OPT/altera/12.1/tools/nios2eds/bin/gnu/H-i686-pc-linux-gnu/bin/../lib/gcc/nios2-elf/4.1.2/../../../../nios2-elf/lib/libc.a(lib_a-iswspace.o)
 .debug_info    0x00021da1      0xb97 /OPT/altera/12.1/tools/nios2eds/bin/gnu/H-i686-pc-linux-gnu/bin/../lib/gcc/nios2-elf/4.1.2/../../../../nios2-elf/lib/libc.a(lib_a-locale.o)
 .debug_info    0x00022938      0x981 /OPT/altera/12.1/tools/nios2eds/bin/gnu/H-i686-pc-linux-gnu/bin/../lib/gcc/nios2-elf/4.1.2/../../../../nios2-elf/lib/libc.a(lib_a-lseekr.o)
 .debug_info    0x000232b9      0xa07 /OPT/altera/12.1/tools/nios2eds/bin/gnu/H-i686-pc-linux-gnu/bin/../lib/gcc/nios2-elf/4.1.2/../../../../nios2-elf/lib/libc.a(lib_a-mbrtowc.o)
 .debug_info    0x00023cc0      0x9a2 /OPT/altera/12.1/tools/nios2eds/bin/gnu/H-i686-pc-linux-gnu/bin/../lib/gcc/nios2-elf/4.1.2/../../../../nios2-elf/lib/libc.a(lib_a-mbtowc_r.o)
 .debug_info    0x00024662      0x138 /OPT/altera/12.1/tools/nios2eds/bin/gnu/H-i686-pc-linux-gnu/bin/../lib/gcc/nios2-elf/4.1.2/../../../../nios2-elf/lib/libc.a(lib_a-memchr.o)
 .debug_info    0x0002479a      0x115 /OPT/altera/12.1/tools/nios2eds/bin/gnu/H-i686-pc-linux-gnu/bin/../lib/gcc/nios2-elf/4.1.2/../../../../nios2-elf/lib/libc.a(lib_a-memcmp.o)
 .debug_info    0x000248af     0x1437 /OPT/altera/12.1/tools/nios2eds/bin/gnu/H-i686-pc-linux-gnu/bin/../lib/gcc/nios2-elf/4.1.2/../../../../nios2-elf/lib/libc.a(lib_a-mprec.o)
 .debug_info    0x00025ce6      0x9c1 /OPT/altera/12.1/tools/nios2eds/bin/gnu/H-i686-pc-linux-gnu/bin/../lib/gcc/nios2-elf/4.1.2/../../../../nios2-elf/lib/libc.a(lib_a-putc.o)
 .debug_info    0x000266a7      0x98c /OPT/altera/12.1/tools/nios2eds/bin/gnu/H-i686-pc-linux-gnu/bin/../lib/gcc/nios2-elf/4.1.2/../../../../nios2-elf/lib/libc.a(lib_a-readr.o)
 .debug_info    0x00027033      0xbd7 /OPT/altera/12.1/tools/nios2eds/bin/gnu/H-i686-pc-linux-gnu/bin/../lib/gcc/nios2-elf/4.1.2/../../../../nios2-elf/lib/libc.a(lib_a-reallocr.o)
 .debug_info    0x00027c0a       0xd7 /OPT/altera/12.1/tools/nios2eds/bin/gnu/H-i686-pc-linux-gnu/bin/../lib/gcc/nios2-elf/4.1.2/../../../../nios2-elf/lib/libc.a(lib_a-s_isinfd.o)
 .debug_info    0x00027ce1       0xd5 /OPT/altera/12.1/tools/nios2eds/bin/gnu/H-i686-pc-linux-gnu/bin/../lib/gcc/nios2-elf/4.1.2/../../../../nios2-elf/lib/libc.a(lib_a-s_isnand.o)
 .debug_info    0x00027db6       0xfb /OPT/altera/12.1/tools/nios2eds/bin/gnu/H-i686-pc-linux-gnu/bin/../lib/gcc/nios2-elf/4.1.2/../../../../nios2-elf/lib/libc.a(lib_a-sccl.o)
 .debug_info    0x00027eb1       0xc8 /OPT/altera/12.1/tools/nios2eds/bin/gnu/H-i686-pc-linux-gnu/bin/../lib/gcc/nios2-elf/4.1.2/../../../../nios2-elf/lib/libc.a(lib_a-sf_nan.o)
 .debug_info    0x00027f79      0xecc /OPT/altera/12.1/tools/nios2eds/bin/gnu/H-i686-pc-linux-gnu/bin/../lib/gcc/nios2-elf/4.1.2/../../../../nios2-elf/lib/libc.a(lib_a-strtod.o)
 .debug_info    0x00028e45      0x9d5 /OPT/altera/12.1/tools/nios2eds/bin/gnu/H-i686-pc-linux-gnu/bin/../lib/gcc/nios2-elf/4.1.2/../../../../nios2-elf/lib/libc.a(lib_a-strtoll_r.o)
 .debug_info    0x0002981a      0xa22 /OPT/altera/12.1/tools/nios2eds/bin/gnu/H-i686-pc-linux-gnu/bin/../lib/gcc/nios2-elf/4.1.2/../../../../nios2-elf/lib/libc.a(lib_a-strtoul.o)
 .debug_info    0x0002a23c      0x9cd /OPT/altera/12.1/tools/nios2eds/bin/gnu/H-i686-pc-linux-gnu/bin/../lib/gcc/nios2-elf/4.1.2/../../../../nios2-elf/lib/libc.a(lib_a-strtoull_r.o)
 .debug_info    0x0002ac09      0x9f6 /OPT/altera/12.1/tools/nios2eds/bin/gnu/H-i686-pc-linux-gnu/bin/../lib/gcc/nios2-elf/4.1.2/../../../../nios2-elf/lib/libc.a(lib_a-ungetc.o)
 .debug_info    0x0002b5ff      0x9ae /OPT/altera/12.1/tools/nios2eds/bin/gnu/H-i686-pc-linux-gnu/bin/../lib/gcc/nios2-elf/4.1.2/../../../../nios2-elf/lib/libc.a(lib_a-wbuf.o)
 .debug_info    0x0002bfad      0xa1b /OPT/altera/12.1/tools/nios2eds/bin/gnu/H-i686-pc-linux-gnu/bin/../lib/gcc/nios2-elf/4.1.2/../../../../nios2-elf/lib/libc.a(lib_a-callocr.o)
 .debug_info    0x0002c9c8      0xccb /OPT/altera/12.1/tools/nios2eds/bin/gnu/H-i686-pc-linux-gnu/bin/../lib/gcc/nios2-elf/4.1.2/../../../../nios2-elf/lib/libc.a(lib_a-gdtoa-gethex.o)
 .debug_info    0x0002d693      0x23e /OPT/altera/12.1/tools/nios2eds/bin/gnu/H-i686-pc-linux-gnu/bin/../lib/gcc/nios2-elf/4.1.2/../../../../nios2-elf/lib/libc.a(lib_a-gdtoa-hexnan.o)
 .debug_info    0x0002d8d1      0x215 /OPT/altera/12.1/tools/nios2eds/bin/gnu/H-i686-pc-linux-gnu/bin/../lib/gcc/nios2-elf/4.1.2/libgcc.a(_muldi3.o)
 .debug_info    0x0002dae6       0xce /OPT/altera/12.1/tools/nios2eds/bin/gnu/H-i686-pc-linux-gnu/bin/../lib/gcc/nios2-elf/4.1.2/libgcc.a(_fixunsdfsi.o)
 .debug_info    0x0002dbb4      0x724 /OPT/altera/12.1/tools/nios2eds/bin/gnu/H-i686-pc-linux-gnu/bin/../lib/gcc/nios2-elf/4.1.2/libgcc.a(_udivdi3.o)
 .debug_info    0x0002e2d8      0x751 /OPT/altera/12.1/tools/nios2eds/bin/gnu/H-i686-pc-linux-gnu/bin/../lib/gcc/nios2-elf/4.1.2/libgcc.a(_umoddi3.o)
 .debug_info    0x0002ea29      0x290 /OPT/altera/12.1/tools/nios2eds/bin/gnu/H-i686-pc-linux-gnu/bin/../lib/gcc/nios2-elf/4.1.2/libgcc.a(_ne_sf.o)
 .debug_info    0x0002ecb9      0x290 /OPT/altera/12.1/tools/nios2eds/bin/gnu/H-i686-pc-linux-gnu/bin/../lib/gcc/nios2-elf/4.1.2/libgcc.a(_gt_sf.o)
 .debug_info    0x0002ef49      0x290 /OPT/altera/12.1/tools/nios2eds/bin/gnu/H-i686-pc-linux-gnu/bin/../lib/gcc/nios2-elf/4.1.2/libgcc.a(_lt_sf.o)
 .debug_info    0x0002f1d9      0x493 /OPT/altera/12.1/tools/nios2eds/bin/gnu/H-i686-pc-linux-gnu/bin/../lib/gcc/nios2-elf/4.1.2/libgcc.a(_addsub_df.o)
 .debug_info    0x0002f66c      0x488 /OPT/altera/12.1/tools/nios2eds/bin/gnu/H-i686-pc-linux-gnu/bin/../lib/gcc/nios2-elf/4.1.2/libgcc.a(_mul_df.o)
 .debug_info    0x0002faf4      0x39b /OPT/altera/12.1/tools/nios2eds/bin/gnu/H-i686-pc-linux-gnu/bin/../lib/gcc/nios2-elf/4.1.2/libgcc.a(_div_df.o)
 .debug_info    0x0002fe8f      0x29d /OPT/altera/12.1/tools/nios2eds/bin/gnu/H-i686-pc-linux-gnu/bin/../lib/gcc/nios2-elf/4.1.2/libgcc.a(_eq_df.o)
 .debug_info    0x0003012c      0x29d /OPT/altera/12.1/tools/nios2eds/bin/gnu/H-i686-pc-linux-gnu/bin/../lib/gcc/nios2-elf/4.1.2/libgcc.a(_ne_df.o)
 .debug_info    0x000303c9      0x29d /OPT/altera/12.1/tools/nios2eds/bin/gnu/H-i686-pc-linux-gnu/bin/../lib/gcc/nios2-elf/4.1.2/libgcc.a(_gt_df.o)
 .debug_info    0x00030666      0x29d /OPT/altera/12.1/tools/nios2eds/bin/gnu/H-i686-pc-linux-gnu/bin/../lib/gcc/nios2-elf/4.1.2/libgcc.a(_ge_df.o)
 .debug_info    0x00030903      0x29d /OPT/altera/12.1/tools/nios2eds/bin/gnu/H-i686-pc-linux-gnu/bin/../lib/gcc/nios2-elf/4.1.2/libgcc.a(_lt_df.o)
 .debug_info    0x00030ba0      0x29d /OPT/altera/12.1/tools/nios2eds/bin/gnu/H-i686-pc-linux-gnu/bin/../lib/gcc/nios2-elf/4.1.2/libgcc.a(_le_df.o)
 .debug_info    0x00030e3d      0x218 /OPT/altera/12.1/tools/nios2eds/bin/gnu/H-i686-pc-linux-gnu/bin/../lib/gcc/nios2-elf/4.1.2/libgcc.a(_si_to_df.o)
 .debug_info    0x00031055      0x2cd /OPT/altera/12.1/tools/nios2eds/bin/gnu/H-i686-pc-linux-gnu/bin/../lib/gcc/nios2-elf/4.1.2/libgcc.a(_df_to_si.o)
 .debug_info    0x00031322      0x261 /OPT/altera/12.1/tools/nios2eds/bin/gnu/H-i686-pc-linux-gnu/bin/../lib/gcc/nios2-elf/4.1.2/libgcc.a(_df_to_sf.o)
 .debug_info    0x00031583      0x164 /OPT/altera/12.1/tools/nios2eds/bin/gnu/H-i686-pc-linux-gnu/bin/../lib/gcc/nios2-elf/4.1.2/libgcc.a(_thenan_df.o)
 .debug_info    0x000316e7      0x213 /OPT/altera/12.1/tools/nios2eds/bin/gnu/H-i686-pc-linux-gnu/bin/../lib/gcc/nios2-elf/4.1.2/libgcc.a(_usi_to_df.o)
 .debug_info    0x000318fa       0xc9 /OPT/altera/12.1/tools/nios2eds/bin/gnu/H-i686-pc-linux-gnu/bin/../lib/gcc/nios2-elf/4.1.2/libgcc.a(_clz.o)
 .debug_info    0x000319c3      0x130 /OPT/altera/12.1/tools/nios2eds/bin/gnu/H-i686-pc-linux-gnu/bin/../lib/gcc/nios2-elf/4.1.2/libgcc.a(_clzsi2.o)
 .debug_info    0x00031af3      0x25a /OPT/altera/12.1/tools/nios2eds/bin/gnu/H-i686-pc-linux-gnu/bin/../lib/gcc/nios2-elf/4.1.2/libgcc.a(_unpack_sf.o)
 .debug_info    0x00031d4d      0x21f /OPT/altera/12.1/tools/nios2eds/bin/gnu/H-i686-pc-linux-gnu/bin/../lib/gcc/nios2-elf/4.1.2/libgcc.a(_fpcmp_parts_sf.o)
 .debug_info    0x00031f6c      0x1d7 /OPT/altera/12.1/tools/nios2eds/bin/gnu/H-i686-pc-linux-gnu/bin/../lib/gcc/nios2-elf/4.1.2/libgcc.a(_make_sf.o)
 .debug_info    0x00032143      0x2fc /OPT/altera/12.1/tools/nios2eds/bin/gnu/H-i686-pc-linux-gnu/bin/../lib/gcc/nios2-elf/4.1.2/libgcc.a(_pack_df.o)
 .debug_info    0x0003243f      0x268 /OPT/altera/12.1/tools/nios2eds/bin/gnu/H-i686-pc-linux-gnu/bin/../lib/gcc/nios2-elf/4.1.2/libgcc.a(_unpack_df.o)
 .debug_info    0x000326a7      0x21b /OPT/altera/12.1/tools/nios2eds/bin/gnu/H-i686-pc-linux-gnu/bin/../lib/gcc/nios2-elf/4.1.2/libgcc.a(_fpcmp_parts_df.o)
 .debug_info    0x000328c2      0x2f2 /OPT/altera/12.1/tools/nios2eds/bin/gnu/H-i686-pc-linux-gnu/bin/../lib/gcc/nios2-elf/4.1.2/libgcc.a(_pack_sf.o)
 .debug_info    0x00032bb4      0x180 ../G4Capstone_bsp//libucosii_bsp.a(alt_dcache_flush.o)
 .debug_info    0x00032d34      0x5e9 ../G4Capstone_bsp//libucosii_bsp.a(alt_flash_dev.o)
 .debug_info    0x0003331d      0x6b0 ../G4Capstone_bsp//libucosii_bsp.a(alt_fstat.o)
 .debug_info    0x000339cd      0x466 ../G4Capstone_bsp//libucosii_bsp.a(alt_irq_register.o)
 .debug_info    0x00033e33      0x163 ../G4Capstone_bsp//libucosii_bsp.a(alt_irq_vars.o)
 .debug_info    0x00033f96      0x6b6 ../G4Capstone_bsp//libucosii_bsp.a(alt_isatty.o)
 .debug_info    0x0003464c      0x4ea ../G4Capstone_bsp//libucosii_bsp.a(alt_lseek.o)
 .debug_info    0x00034b36      0x3d9 ../G4Capstone_bsp//libucosii_bsp.a(alt_main.o)
 .debug_info    0x00034f0f      0x566 ../G4Capstone_bsp//libucosii_bsp.a(alt_open.o)
 .debug_info    0x00035475      0x44b ../G4Capstone_bsp//libucosii_bsp.a(alt_release_fd.o)
 .debug_info    0x000358c0      0x2b3 ../G4Capstone_bsp//libucosii_bsp.a(alt_sbrk.o)
 .debug_info    0x00035b73      0x40d ../G4Capstone_bsp//libucosii_bsp.a(alt_tick.o)
 .debug_info    0x00035f80      0x230 ../G4Capstone_bsp//libucosii_bsp.a(alt_usleep.o)
 .debug_info    0x000361b0     0x11cf ../G4Capstone_bsp//libucosii_bsp.a(alt_env_lock.o)
 .debug_info    0x0003737f     0x132b ../G4Capstone_bsp//libucosii_bsp.a(alt_malloc_lock.o)
 .debug_info    0x000386aa     0x1be5 ../G4Capstone_bsp//libucosii_bsp.a(os_core.o)
 .debug_info    0x0003a28f     0x112a ../G4Capstone_bsp//libucosii_bsp.a(os_dbg.o)
 .debug_info    0x0003b3b9     0x1240 ../G4Capstone_bsp//libucosii_bsp.a(os_flag.o)
 .debug_info    0x0003c5f9      0xd3c ../G4Capstone_bsp//libucosii_bsp.a(os_mbox.o)
 .debug_info    0x0003d335      0x80a ../G4Capstone_bsp//libucosii_bsp.a(os_mem.o)
 .debug_info    0x0003db3f     0x107a ../G4Capstone_bsp//libucosii_bsp.a(os_q.o)
 .debug_info    0x0003ebb9      0xce2 ../G4Capstone_bsp//libucosii_bsp.a(os_sem.o)
 .debug_info    0x0003f89b     0x1358 ../G4Capstone_bsp//libucosii_bsp.a(os_task.o)
 .debug_info    0x00040bf3      0x9dc ../G4Capstone_bsp//libucosii_bsp.a(os_time.o)
 .debug_info    0x000415cf      0xb22 ../G4Capstone_bsp//libucosii_bsp.a(alt_sys_init.o)
 .debug_info    0x000420f1      0x9ce ../G4Capstone_bsp//libucosii_bsp.a(altera_avalon_jtag_uart_fd.o)
 .debug_info    0x00042abf      0x94c ../G4Capstone_bsp//libucosii_bsp.a(altera_avalon_jtag_uart_init.o)
 .debug_info    0x0004340b      0x638 ../G4Capstone_bsp//libucosii_bsp.a(altera_avalon_jtag_uart_ioctl.o)
 .debug_info    0x00043a43      0x7f4 ../G4Capstone_bsp//libucosii_bsp.a(altera_avalon_jtag_uart_read.o)
 .debug_info    0x00044237      0x7eb ../G4Capstone_bsp//libucosii_bsp.a(altera_avalon_jtag_uart_write.o)
 .debug_info    0x00044a22      0x387 ../G4Capstone_bsp//libucosii_bsp.a(altera_avalon_timer_sc.o)
 .debug_info    0x00044da9      0xf1a ../G4Capstone_bsp//libucosii_bsp.a(altera_ro_zipfs.o)
 .debug_info    0x00045cc3      0xc06 ../G4Capstone_bsp//libucosii_bsp.a(altera_up_avalon_audio_and_video_config.o)
 .debug_info    0x000468c9      0x8f8 ../G4Capstone_bsp//libucosii_bsp.a(altera_up_avalon_character_lcd.o)
 .debug_info    0x000471c1      0x1b2 ../G4Capstone_bsp//libucosii_bsp.a(alt_iniche_close.o)
 .debug_info    0x00047373      0xb59 ../G4Capstone_bsp//libucosii_bsp.a(alt_iniche_dev.o)
 .debug_info    0x00047ecc      0x1dc ../G4Capstone_bsp//libucosii_bsp.a(alt_iniche_read.o)
 .debug_info    0x000480a8      0x1e3 ../G4Capstone_bsp//libucosii_bsp.a(alt_iniche_write.o)
 .debug_info    0x0004828b      0xc45 ../G4Capstone_bsp//libucosii_bsp.a(ipnet.o)
 .debug_info    0x00048ed0      0xb98 ../G4Capstone_bsp//libucosii_bsp.a(ipstart.o)
 .debug_info    0x00049a68     0x152c ../G4Capstone_bsp//libucosii_bsp.a(igmp_cmn.o)
 .debug_info    0x0004af94     0x145c ../G4Capstone_bsp//libucosii_bsp.a(bsdsock.o)
 .debug_info    0x0004c3f0      0x24e ../G4Capstone_bsp//libucosii_bsp.a(cksum.o)
 .debug_info    0x0004c63e      0x740 ../G4Capstone_bsp//libucosii_bsp.a(in_utils.o)
 .debug_info    0x0004cd7e      0x55a ../G4Capstone_bsp//libucosii_bsp.a(netmain.o)
 .debug_info    0x0004d2d8      0x967 ../G4Capstone_bsp//libucosii_bsp.a(tk_crnos.o)
 .debug_info    0x0004dc3f     0x15f5 ../G4Capstone_bsp//libucosii_bsp.a(dhcpclnt.o)
 .debug_info    0x0004f234      0x1d8 ../G4Capstone_bsp//libucosii_bsp.a(dhcputil.o)
 .debug_info    0x0004f40c      0xca4 ../G4Capstone_bsp//libucosii_bsp.a(pktalloc.o)
 .debug_info    0x000500b0      0x2e8 ../G4Capstone_bsp//libucosii_bsp.a(q.o)
 .debug_info    0x00050398      0xb23 ../G4Capstone_bsp//libucosii_bsp.a(udp_open.o)
 .debug_info    0x00050ebb       0x89 ../G4Capstone_bsp//libucosii_bsp.a(asm_cksum.o)
 .debug_info    0x00050f44      0xea9 ../G4Capstone_bsp//libucosii_bsp.a(brdutils.o)
 .debug_info    0x00051ded      0x6db ../G4Capstone_bsp//libucosii_bsp.a(osportco.o)
 .debug_info    0x000524c8      0x658 ../G4Capstone_bsp//libucosii_bsp.a(targnios.o)
 .debug_info    0x00052b20     0x251f ../G4Capstone_bsp//libucosii_bsp.a(nptcp.o)
 .debug_info    0x0005503f     0x11d7 ../G4Capstone_bsp//libucosii_bsp.a(rawsock.o)
 .debug_info    0x00056216     0x1c95 ../G4Capstone_bsp//libucosii_bsp.a(sockcall.o)
 .debug_info    0x00057eab     0x1a9b ../G4Capstone_bsp//libucosii_bsp.a(socket.o)
 .debug_info    0x00059946     0x1561 ../G4Capstone_bsp//libucosii_bsp.a(socket2.o)
 .debug_info    0x0005aea7     0x127a ../G4Capstone_bsp//libucosii_bsp.a(soselect.o)
 .debug_info    0x0005c121     0x212c ../G4Capstone_bsp//libucosii_bsp.a(tcp_in.o)
 .debug_info    0x0005e24d     0x1e1b ../G4Capstone_bsp//libucosii_bsp.a(tcp_out.o)
 .debug_info    0x00060068     0x1e83 ../G4Capstone_bsp//libucosii_bsp.a(tcp_subr.o)
 .debug_info    0x00061eeb     0x1c9e ../G4Capstone_bsp//libucosii_bsp.a(tcp_timr.o)
 .debug_info    0x00063b89     0x1c5b ../G4Capstone_bsp//libucosii_bsp.a(tcp_usr.o)
 .debug_info    0x000657e4      0x1ae ../G4Capstone_bsp//libucosii_bsp.a(tcpport.o)
 .debug_info    0x00065992     0x1331 ../G4Capstone_bsp//libucosii_bsp.a(udpsock.o)
 .debug_info    0x00066cc3      0x43e ../G4Capstone_bsp//libucosii_bsp.a(alt_alarm_start.o)
 .debug_info    0x00067101      0x1a7 ../G4Capstone_bsp//libucosii_bsp.a(alt_busy_sleep.o)
 .debug_info    0x000672a8      0x4bb ../G4Capstone_bsp//libucosii_bsp.a(alt_close.o)
 .debug_info    0x00067763      0x7d9 ../G4Capstone_bsp//libucosii_bsp.a(alt_dev.o)
 .debug_info    0x00067f3c      0x2b3 ../G4Capstone_bsp//libucosii_bsp.a(alt_dev_llist_insert.o)
 .debug_info    0x000681ef      0x10b ../G4Capstone_bsp//libucosii_bsp.a(alt_do_ctors.o)
 .debug_info    0x000682fa      0x10a ../G4Capstone_bsp//libucosii_bsp.a(alt_do_dtors.o)
 .debug_info    0x00068404      0x160 ../G4Capstone_bsp//libucosii_bsp.a(alt_errno.o)
 .debug_info    0x00068564      0x468 ../G4Capstone_bsp//libucosii_bsp.a(alt_find_dev.o)
 .debug_info    0x000689cc      0x46f ../G4Capstone_bsp//libucosii_bsp.a(alt_find_file.o)
 .debug_info    0x00068e3b      0x480 ../G4Capstone_bsp//libucosii_bsp.a(alt_fs_reg.o)
 .debug_info    0x000692bb      0x601 ../G4Capstone_bsp//libucosii_bsp.a(alt_get_fd.o)
 .debug_info    0x000698bc      0x48f ../G4Capstone_bsp//libucosii_bsp.a(alt_iic.o)
 .debug_info    0x00069d4b      0x310 ../G4Capstone_bsp//libucosii_bsp.a(alt_iic_isr_register.o)
 .debug_info    0x0006a05b      0x6e5 ../G4Capstone_bsp//libucosii_bsp.a(alt_io_redirect.o)
 .debug_info    0x0006a740       0x80 ../G4Capstone_bsp//libucosii_bsp.a(alt_irq_entry.o)
 .debug_info    0x0006a7c0      0x2b6 ../G4Capstone_bsp//libucosii_bsp.a(alt_irq_handler.o)
 .debug_info    0x0006aa76      0x6de ../G4Capstone_bsp//libucosii_bsp.a(alt_read.o)
 .debug_info    0x0006b154      0x18d ../G4Capstone_bsp//libucosii_bsp.a(alt_remap_cached.o)
 .debug_info    0x0006b2e1      0x191 ../G4Capstone_bsp//libucosii_bsp.a(alt_remap_uncached.o)
 .debug_info    0x0006b472      0x6e7 ../G4Capstone_bsp//libucosii_bsp.a(alt_write.o)
 .debug_info    0x0006bb59      0x15f ../G4Capstone_bsp//libucosii_bsp.a(altera_nios2_qsys_irq.o)
 .debug_info    0x0006bcb8       0x7f ../G4Capstone_bsp//libucosii_bsp.a(os_cpu_a.o)
 .debug_info    0x0006bd37     0x12cf ../G4Capstone_bsp//libucosii_bsp.a(os_cpu_c.o)
 .debug_info    0x0006d006      0xd9b ../G4Capstone_bsp//libucosii_bsp.a(allports.o)
 .debug_info    0x0006dda1      0x3bd ../G4Capstone_bsp//libucosii_bsp.a(timeouts.o)
 .debug_info    0x0006e15e      0x21c ../G4Capstone_bsp//libucosii_bsp.a(tk_misc.o)
 .debug_info    0x0006e37a      0x209 ../G4Capstone_bsp//libucosii_bsp.a(alt_iniche_fcntl.o)
 .debug_info    0x0006e583     0x1275 ../G4Capstone_bsp//libucosii_bsp.a(et_arp.o)
 .debug_info    0x0006f7f8      0xf93 ../G4Capstone_bsp//libucosii_bsp.a(iface.o)
 .debug_info    0x0007078b     0x1700 ../G4Capstone_bsp//libucosii_bsp.a(ip.o)
 .debug_info    0x00071e8b     0x1864 ../G4Capstone_bsp//libucosii_bsp.a(ip_reasm.o)
 .debug_info    0x000736ef      0xde5 ../G4Capstone_bsp//libucosii_bsp.a(ipdemux.o)
 .debug_info    0x000744d4      0xa41 ../G4Capstone_bsp//libucosii_bsp.a(ipmc.o)
 .debug_info    0x00074f15      0x2df ../G4Capstone_bsp//libucosii_bsp.a(ipport.o)
 .debug_info    0x000751f4      0xf52 ../G4Capstone_bsp//libucosii_bsp.a(ipraw.o)
 .debug_info    0x00076146      0xefd ../G4Capstone_bsp//libucosii_bsp.a(iproute.o)
 .debug_info    0x00077043     0x1294 ../G4Capstone_bsp//libucosii_bsp.a(udp.o)
 .debug_info    0x000782d7     0x112e ../G4Capstone_bsp//libucosii_bsp.a(igmp.o)
 .debug_info    0x00079405     0x1362 ../G4Capstone_bsp//libucosii_bsp.a(igmp2.o)
 .debug_info    0x0007a767     0x10dd ../G4Capstone_bsp//libucosii_bsp.a(ipopt.o)
 .debug_info    0x0007b844      0xbb5 ../G4Capstone_bsp//libucosii_bsp.a(u_mctest.o)
 .debug_info    0x0007c3f9      0xa53 ../G4Capstone_bsp//libucosii_bsp.a(dhcsetup.o)
 .debug_info    0x0007ce4c      0x73b ../G4Capstone_bsp//libucosii_bsp.a(memdev.o)
 .debug_info    0x0007d587      0x6e6 ../G4Capstone_bsp//libucosii_bsp.a(parseip.o)
 .debug_info    0x0007dc6d      0x3e0 ../G4Capstone_bsp//libucosii_bsp.a(tcpcksum.o)
 .debug_info    0x0007e04d     0x12af ../G4Capstone_bsp//libucosii_bsp.a(in_pcb.o)
 .debug_info    0x0007f2fc      0xfe0 ../G4Capstone_bsp//libucosii_bsp.a(vfsfiles.o)
 .debug_info    0x000802dc      0x1af ../G4Capstone_bsp//libucosii_bsp.a(vfsport.o)
 .debug_info    0x0008048b       0x86 ../G4Capstone_bsp//libucosii_bsp.a(alt_exception_entry.o)
 .debug_info    0x00080511      0x6fc ../G4Capstone_bsp//libucosii_bsp.a(alt_fcntl.o)
 .debug_info    0x00080c0d     0x1182 ../G4Capstone_bsp//libucosii_bsp.a(icmp.o)
 .debug_info    0x00081d8f      0x181 /OPT/altera/12.1/tools/nios2eds/bin/gnu/H-i686-pc-linux-gnu/bin/../lib/gcc/nios2-elf/4.1.2/../../../../nios2-elf/lib/libc.a(lib_a-atexit.o)
 .debug_info    0x00081f10      0x954 /OPT/altera/12.1/tools/nios2eds/bin/gnu/H-i686-pc-linux-gnu/bin/../lib/gcc/nios2-elf/4.1.2/../../../../nios2-elf/lib/libc.a(lib_a-calloc.o)
 .debug_info    0x00082864      0x93f /OPT/altera/12.1/tools/nios2eds/bin/gnu/H-i686-pc-linux-gnu/bin/../lib/gcc/nios2-elf/4.1.2/../../../../nios2-elf/lib/libc.a(lib_a-exit.o)
 .debug_info    0x000831a3      0x9a7 /OPT/altera/12.1/tools/nios2eds/bin/gnu/H-i686-pc-linux-gnu/bin/../lib/gcc/nios2-elf/4.1.2/../../../../nios2-elf/lib/libc.a(lib_a-getc.o)
 .debug_info    0x00083b4a      0x96e /OPT/altera/12.1/tools/nios2eds/bin/gnu/H-i686-pc-linux-gnu/bin/../lib/gcc/nios2-elf/4.1.2/../../../../nios2-elf/lib/libc.a(lib_a-malloc.o)
 .debug_info    0x000844b8      0x987 /OPT/altera/12.1/tools/nios2eds/bin/gnu/H-i686-pc-linux-gnu/bin/../lib/gcc/nios2-elf/4.1.2/../../../../nios2-elf/lib/libc.a(lib_a-rget.o)
 .debug_info    0x00084e3f      0x9aa /OPT/altera/12.1/tools/nios2eds/bin/gnu/H-i686-pc-linux-gnu/bin/../lib/gcc/nios2-elf/4.1.2/../../../../nios2-elf/lib/libc.a(lib_a-vprintf.o)
 .debug_info    0x000857e9      0x9ed /OPT/altera/12.1/tools/nios2eds/bin/gnu/H-i686-pc-linux-gnu/bin/../lib/gcc/nios2-elf/4.1.2/../../../../nios2-elf/lib/libc.a(lib_a-vsprintf.o)
 .debug_info    0x000861d6      0x99c /OPT/altera/12.1/tools/nios2eds/bin/gnu/H-i686-pc-linux-gnu/bin/../lib/gcc/nios2-elf/4.1.2/../../../../nios2-elf/lib/libc.a(lib_a-__atexit.o)
 .debug_info    0x00086b72      0x9e2 /OPT/altera/12.1/tools/nios2eds/bin/gnu/H-i686-pc-linux-gnu/bin/../lib/gcc/nios2-elf/4.1.2/../../../../nios2-elf/lib/libc.a(lib_a-__call_atexit.o)
 .debug_info    0x00087554      0x204 ../G4Capstone_bsp//libucosii_bsp.a(alt_exit.o)

.debug_abbrev   0x00000000    0x14a6d
 *(.debug_abbrev)
 .debug_abbrev  0x00000000       0x14 ../G4Capstone_bsp//obj/HAL/src/crt0.o
 .debug_abbrev  0x00000014      0x1bc obj/default/alt_error_handler.o
 .debug_abbrev  0x000001d0      0x231 obj/default/dm9000a.o
 .debug_abbrev  0x00000401      0x31e obj/default/http.o
 .debug_abbrev  0x0000071f      0x248 obj/default/network_utilities.o
 .debug_abbrev  0x00000967      0x1c4 obj/default/srec_flash.o
 .debug_abbrev  0x00000b2b      0x1d7 obj/default/web_server.o
 .debug_abbrev  0x00000d02       0xe0 /OPT/altera/12.1/tools/nios2eds/bin/gnu/H-i686-pc-linux-gnu/bin/../lib/gcc/nios2-elf/4.1.2/libgcc.a(lib2-divmod.o)
 .debug_abbrev  0x00000de2      0x176 /OPT/altera/12.1/tools/nios2eds/bin/gnu/H-i686-pc-linux-gnu/bin/../lib/gcc/nios2-elf/4.1.2/../../../../nios2-elf/lib/libc.a(lib_a-atoi.o)
 .debug_abbrev  0x00000f58       0x61 /OPT/altera/12.1/tools/nios2eds/bin/gnu/H-i686-pc-linux-gnu/bin/../lib/gcc/nios2-elf/4.1.2/../../../../nios2-elf/lib/libc.a(lib_a-ctype_.o)
 .debug_abbrev  0x00000fb9      0x1a7 /OPT/altera/12.1/tools/nios2eds/bin/gnu/H-i686-pc-linux-gnu/bin/../lib/gcc/nios2-elf/4.1.2/../../../../nios2-elf/lib/libc.a(lib_a-fclose.o)
 .debug_abbrev  0x00001160      0x1c6 /OPT/altera/12.1/tools/nios2eds/bin/gnu/H-i686-pc-linux-gnu/bin/../lib/gcc/nios2-elf/4.1.2/../../../../nios2-elf/lib/libc.a(lib_a-fflush.o)
 .debug_abbrev  0x00001326      0x189 /OPT/altera/12.1/tools/nios2eds/bin/gnu/H-i686-pc-linux-gnu/bin/../lib/gcc/nios2-elf/4.1.2/../../../../nios2-elf/lib/libc.a(lib_a-fgetpos.o)
 .debug_abbrev  0x000014af      0x24c /OPT/altera/12.1/tools/nios2eds/bin/gnu/H-i686-pc-linux-gnu/bin/../lib/gcc/nios2-elf/4.1.2/../../../../nios2-elf/lib/libc.a(lib_a-findfp.o)
 .debug_abbrev  0x000016fb      0x1b6 /OPT/altera/12.1/tools/nios2eds/bin/gnu/H-i686-pc-linux-gnu/bin/../lib/gcc/nios2-elf/4.1.2/../../../../nios2-elf/lib/libc.a(lib_a-fopen.o)
 .debug_abbrev  0x000018b1      0x197 /OPT/altera/12.1/tools/nios2eds/bin/gnu/H-i686-pc-linux-gnu/bin/../lib/gcc/nios2-elf/4.1.2/../../../../nios2-elf/lib/libc.a(lib_a-fprintf.o)
 .debug_abbrev  0x00001a48      0x20d /OPT/altera/12.1/tools/nios2eds/bin/gnu/H-i686-pc-linux-gnu/bin/../lib/gcc/nios2-elf/4.1.2/../../../../nios2-elf/lib/libc.a(lib_a-fread.o)
 .debug_abbrev  0x00001c55      0x1d9 /OPT/altera/12.1/tools/nios2eds/bin/gnu/H-i686-pc-linux-gnu/bin/../lib/gcc/nios2-elf/4.1.2/../../../../nios2-elf/lib/libc.a(lib_a-freer.o)
 .debug_abbrev  0x00001e2e      0x208 /OPT/altera/12.1/tools/nios2eds/bin/gnu/H-i686-pc-linux-gnu/bin/../lib/gcc/nios2-elf/4.1.2/../../../../nios2-elf/lib/libc.a(lib_a-fseek.o)
 .debug_abbrev  0x00002036      0x18e /OPT/altera/12.1/tools/nios2eds/bin/gnu/H-i686-pc-linux-gnu/bin/../lib/gcc/nios2-elf/4.1.2/../../../../nios2-elf/lib/libc.a(lib_a-fstatr.o)
 .debug_abbrev  0x000021c4      0x198 /OPT/altera/12.1/tools/nios2eds/bin/gnu/H-i686-pc-linux-gnu/bin/../lib/gcc/nios2-elf/4.1.2/../../../../nios2-elf/lib/libc.a(lib_a-ftell.o)
 .debug_abbrev  0x0000235c      0x1e3 /OPT/altera/12.1/tools/nios2eds/bin/gnu/H-i686-pc-linux-gnu/bin/../lib/gcc/nios2-elf/4.1.2/../../../../nios2-elf/lib/libc.a(lib_a-fwalk.o)
 .debug_abbrev  0x0000253f      0x1b1 /OPT/altera/12.1/tools/nios2eds/bin/gnu/H-i686-pc-linux-gnu/bin/../lib/gcc/nios2-elf/4.1.2/../../../../nios2-elf/lib/libc.a(lib_a-fwrite.o)
 .debug_abbrev  0x000026f0      0x157 /OPT/altera/12.1/tools/nios2eds/bin/gnu/H-i686-pc-linux-gnu/bin/../lib/gcc/nios2-elf/4.1.2/../../../../nios2-elf/lib/libc.a(lib_a-impure.o)
 .debug_abbrev  0x00002847       0x3b /OPT/altera/12.1/tools/nios2eds/bin/gnu/H-i686-pc-linux-gnu/bin/../lib/gcc/nios2-elf/4.1.2/../../../../nios2-elf/lib/libc.a(lib_a-int_errno.o)
 .debug_abbrev  0x00002882      0x197 /OPT/altera/12.1/tools/nios2eds/bin/gnu/H-i686-pc-linux-gnu/bin/../lib/gcc/nios2-elf/4.1.2/../../../../nios2-elf/lib/libc.a(lib_a-makebuf.o)
 .debug_abbrev  0x00002a19      0x216 /OPT/altera/12.1/tools/nios2eds/bin/gnu/H-i686-pc-linux-gnu/bin/../lib/gcc/nios2-elf/4.1.2/../../../../nios2-elf/lib/libc.a(lib_a-mallocr.o)
 .debug_abbrev  0x00002c2f       0xb5 /OPT/altera/12.1/tools/nios2eds/bin/gnu/H-i686-pc-linux-gnu/bin/../lib/gcc/nios2-elf/4.1.2/../../../../nios2-elf/lib/libc.a(lib_a-memcpy.o)
 .debug_abbrev  0x00002ce4       0xb5 /OPT/altera/12.1/tools/nios2eds/bin/gnu/H-i686-pc-linux-gnu/bin/../lib/gcc/nios2-elf/4.1.2/../../../../nios2-elf/lib/libc.a(lib_a-memmove.o)
 .debug_abbrev  0x00002d99       0xb8 /OPT/altera/12.1/tools/nios2eds/bin/gnu/H-i686-pc-linux-gnu/bin/../lib/gcc/nios2-elf/4.1.2/../../../../nios2-elf/lib/libc.a(lib_a-memset.o)
 .debug_abbrev  0x00002e51      0x18e /OPT/altera/12.1/tools/nios2eds/bin/gnu/H-i686-pc-linux-gnu/bin/../lib/gcc/nios2-elf/4.1.2/../../../../nios2-elf/lib/libc.a(lib_a-openr.o)
 .debug_abbrev  0x00002fdf      0x194 /OPT/altera/12.1/tools/nios2eds/bin/gnu/H-i686-pc-linux-gnu/bin/../lib/gcc/nios2-elf/4.1.2/../../../../nios2-elf/lib/libc.a(lib_a-perror.o)
 .debug_abbrev  0x00003173      0x191 /OPT/altera/12.1/tools/nios2eds/bin/gnu/H-i686-pc-linux-gnu/bin/../lib/gcc/nios2-elf/4.1.2/../../../../nios2-elf/lib/libc.a(lib_a-printf.o)
 .debug_abbrev  0x00003304      0x1ac /OPT/altera/12.1/tools/nios2eds/bin/gnu/H-i686-pc-linux-gnu/bin/../lib/gcc/nios2-elf/4.1.2/../../../../nios2-elf/lib/libc.a(lib_a-puts.o)
 .debug_abbrev  0x000034b0      0x187 /OPT/altera/12.1/tools/nios2eds/bin/gnu/H-i686-pc-linux-gnu/bin/../lib/gcc/nios2-elf/4.1.2/../../../../nios2-elf/lib/libc.a(lib_a-refill.o)
 .debug_abbrev  0x00003637      0x18c /OPT/altera/12.1/tools/nios2eds/bin/gnu/H-i686-pc-linux-gnu/bin/../lib/gcc/nios2-elf/4.1.2/../../../../nios2-elf/lib/libc.a(lib_a-sbrkr.o)
 .debug_abbrev  0x000037c3      0x191 /OPT/altera/12.1/tools/nios2eds/bin/gnu/H-i686-pc-linux-gnu/bin/../lib/gcc/nios2-elf/4.1.2/../../../../nios2-elf/lib/libc.a(lib_a-sprintf.o)
 .debug_abbrev  0x00003954      0x1c6 /OPT/altera/12.1/tools/nios2eds/bin/gnu/H-i686-pc-linux-gnu/bin/../lib/gcc/nios2-elf/4.1.2/../../../../nios2-elf/lib/libc.a(lib_a-sscanf.o)
 .debug_abbrev  0x00003b1a      0x1c9 /OPT/altera/12.1/tools/nios2eds/bin/gnu/H-i686-pc-linux-gnu/bin/../lib/gcc/nios2-elf/4.1.2/../../../../nios2-elf/lib/libc.a(lib_a-stdio.o)
 .debug_abbrev  0x00003ce3       0x96 /OPT/altera/12.1/tools/nios2eds/bin/gnu/H-i686-pc-linux-gnu/bin/../lib/gcc/nios2-elf/4.1.2/../../../../nios2-elf/lib/libc.a(lib_a-strcasecmp.o)
 .debug_abbrev  0x00003d79       0x87 /OPT/altera/12.1/tools/nios2eds/bin/gnu/H-i686-pc-linux-gnu/bin/../lib/gcc/nios2-elf/4.1.2/../../../../nios2-elf/lib/libc.a(lib_a-strcat.o)
 .debug_abbrev  0x00003e00       0x80 /OPT/altera/12.1/tools/nios2eds/bin/gnu/H-i686-pc-linux-gnu/bin/../lib/gcc/nios2-elf/4.1.2/../../../../nios2-elf/lib/libc.a(lib_a-strchr.o)
 .debug_abbrev  0x00003e80       0x80 /OPT/altera/12.1/tools/nios2eds/bin/gnu/H-i686-pc-linux-gnu/bin/../lib/gcc/nios2-elf/4.1.2/../../../../nios2-elf/lib/libc.a(lib_a-strcmp.o)
 .debug_abbrev  0x00003f00       0x8f /OPT/altera/12.1/tools/nios2eds/bin/gnu/H-i686-pc-linux-gnu/bin/../lib/gcc/nios2-elf/4.1.2/../../../../nios2-elf/lib/libc.a(lib_a-strcpy.o)
 .debug_abbrev  0x00003f8f       0x68 /OPT/altera/12.1/tools/nios2eds/bin/gnu/H-i686-pc-linux-gnu/bin/../lib/gcc/nios2-elf/4.1.2/../../../../nios2-elf/lib/libc.a(lib_a-strerror.o)
 .debug_abbrev  0x00003ff7       0x8b /OPT/altera/12.1/tools/nios2eds/bin/gnu/H-i686-pc-linux-gnu/bin/../lib/gcc/nios2-elf/4.1.2/../../../../nios2-elf/lib/libc.a(lib_a-strlen.o)
 .debug_abbrev  0x00004082       0x8d /OPT/altera/12.1/tools/nios2eds/bin/gnu/H-i686-pc-linux-gnu/bin/../lib/gcc/nios2-elf/4.1.2/../../../../nios2-elf/lib/libc.a(lib_a-strncmp.o)
 .debug_abbrev  0x0000410f       0x9c /OPT/altera/12.1/tools/nios2eds/bin/gnu/H-i686-pc-linux-gnu/bin/../lib/gcc/nios2-elf/4.1.2/../../../../nios2-elf/lib/libc.a(lib_a-strncpy.o)
 .debug_abbrev  0x000041ab      0x19a /OPT/altera/12.1/tools/nios2eds/bin/gnu/H-i686-pc-linux-gnu/bin/../lib/gcc/nios2-elf/4.1.2/../../../../nios2-elf/lib/libc.a(lib_a-strstr.o)
 .debug_abbrev  0x00004345      0x17f /OPT/altera/12.1/tools/nios2eds/bin/gnu/H-i686-pc-linux-gnu/bin/../lib/gcc/nios2-elf/4.1.2/../../../../nios2-elf/lib/libc.a(lib_a-strtok.o)
 .debug_abbrev  0x000044c4       0xcd /OPT/altera/12.1/tools/nios2eds/bin/gnu/H-i686-pc-linux-gnu/bin/../lib/gcc/nios2-elf/4.1.2/../../../../nios2-elf/lib/libc.a(lib_a-strtok_r.o)
 .debug_abbrev  0x00004591      0x1c7 /OPT/altera/12.1/tools/nios2eds/bin/gnu/H-i686-pc-linux-gnu/bin/../lib/gcc/nios2-elf/4.1.2/../../../../nios2-elf/lib/libc.a(lib_a-strtol.o)
 .debug_abbrev  0x00004758       0x5b /OPT/altera/12.1/tools/nios2eds/bin/gnu/H-i686-pc-linux-gnu/bin/../lib/gcc/nios2-elf/4.1.2/../../../../nios2-elf/lib/libc.a(lib_a-u_strerr.o)
 .debug_abbrev  0x000047b3      0x30a /OPT/altera/12.1/tools/nios2eds/bin/gnu/H-i686-pc-linux-gnu/bin/../lib/gcc/nios2-elf/4.1.2/../../../../nios2-elf/lib/libc.a(lib_a-vfprintf.o)
 .debug_abbrev  0x00004abd      0x286 /OPT/altera/12.1/tools/nios2eds/bin/gnu/H-i686-pc-linux-gnu/bin/../lib/gcc/nios2-elf/4.1.2/../../../../nios2-elf/lib/libc.a(lib_a-vfscanf.o)
 .debug_abbrev  0x00004d43      0x184 /OPT/altera/12.1/tools/nios2eds/bin/gnu/H-i686-pc-linux-gnu/bin/../lib/gcc/nios2-elf/4.1.2/../../../../nios2-elf/lib/libc.a(lib_a-writer.o)
 .debug_abbrev  0x00004ec7      0x170 /OPT/altera/12.1/tools/nios2eds/bin/gnu/H-i686-pc-linux-gnu/bin/../lib/gcc/nios2-elf/4.1.2/../../../../nios2-elf/lib/libc.a(lib_a-wsetup.o)
 .debug_abbrev  0x00005037      0x17f /OPT/altera/12.1/tools/nios2eds/bin/gnu/H-i686-pc-linux-gnu/bin/../lib/gcc/nios2-elf/4.1.2/../../../../nios2-elf/lib/libc.a(lib_a-closer.o)
 .debug_abbrev  0x000051b6      0x232 /OPT/altera/12.1/tools/nios2eds/bin/gnu/H-i686-pc-linux-gnu/bin/../lib/gcc/nios2-elf/4.1.2/../../../../nios2-elf/lib/libc.a(lib_a-dtoa.o)
 .debug_abbrev  0x000053e8      0x17d /OPT/altera/12.1/tools/nios2eds/bin/gnu/H-i686-pc-linux-gnu/bin/../lib/gcc/nios2-elf/4.1.2/../../../../nios2-elf/lib/libc.a(lib_a-flags.o)
 .debug_abbrev  0x00005565      0x18c /OPT/altera/12.1/tools/nios2eds/bin/gnu/H-i686-pc-linux-gnu/bin/../lib/gcc/nios2-elf/4.1.2/../../../../nios2-elf/lib/libc.a(lib_a-fputc.o)
 .debug_abbrev  0x000056f1      0x1aa /OPT/altera/12.1/tools/nios2eds/bin/gnu/H-i686-pc-linux-gnu/bin/../lib/gcc/nios2-elf/4.1.2/../../../../nios2-elf/lib/libc.a(lib_a-fputs.o)
 .debug_abbrev  0x0000589b      0x1a3 /OPT/altera/12.1/tools/nios2eds/bin/gnu/H-i686-pc-linux-gnu/bin/../lib/gcc/nios2-elf/4.1.2/../../../../nios2-elf/lib/libc.a(lib_a-fvwrite.o)
 .debug_abbrev  0x00005a3e      0x17f /OPT/altera/12.1/tools/nios2eds/bin/gnu/H-i686-pc-linux-gnu/bin/../lib/gcc/nios2-elf/4.1.2/../../../../nios2-elf/lib/libc.a(lib_a-isattyr.o)
 .debug_abbrev  0x00005bbd       0x9f /OPT/altera/12.1/tools/nios2eds/bin/gnu/H-i686-pc-linux-gnu/bin/../lib/gcc/nios2-elf/4.1.2/../../../../nios2-elf/lib/libc.a(lib_a-iswspace.o)
 .debug_abbrev  0x00005c5c      0x1ed /OPT/altera/12.1/tools/nios2eds/bin/gnu/H-i686-pc-linux-gnu/bin/../lib/gcc/nios2-elf/4.1.2/../../../../nios2-elf/lib/libc.a(lib_a-locale.o)
 .debug_abbrev  0x00005e49      0x18e /OPT/altera/12.1/tools/nios2eds/bin/gnu/H-i686-pc-linux-gnu/bin/../lib/gcc/nios2-elf/4.1.2/../../../../nios2-elf/lib/libc.a(lib_a-lseekr.o)
 .debug_abbrev  0x00005fd7      0x17f /OPT/altera/12.1/tools/nios2eds/bin/gnu/H-i686-pc-linux-gnu/bin/../lib/gcc/nios2-elf/4.1.2/../../../../nios2-elf/lib/libc.a(lib_a-mbrtowc.o)
 .debug_abbrev  0x00006156      0x18a /OPT/altera/12.1/tools/nios2eds/bin/gnu/H-i686-pc-linux-gnu/bin/../lib/gcc/nios2-elf/4.1.2/../../../../nios2-elf/lib/libc.a(lib_a-mbtowc_r.o)
 .debug_abbrev  0x000062e0       0xb5 /OPT/altera/12.1/tools/nios2eds/bin/gnu/H-i686-pc-linux-gnu/bin/../lib/gcc/nios2-elf/4.1.2/../../../../nios2-elf/lib/libc.a(lib_a-memchr.o)
 .debug_abbrev  0x00006395       0x7c /OPT/altera/12.1/tools/nios2eds/bin/gnu/H-i686-pc-linux-gnu/bin/../lib/gcc/nios2-elf/4.1.2/../../../../nios2-elf/lib/libc.a(lib_a-memcmp.o)
 .debug_abbrev  0x00006411      0x297 /OPT/altera/12.1/tools/nios2eds/bin/gnu/H-i686-pc-linux-gnu/bin/../lib/gcc/nios2-elf/4.1.2/../../../../nios2-elf/lib/libc.a(lib_a-mprec.o)
 .debug_abbrev  0x000066a8      0x17f /OPT/altera/12.1/tools/nios2eds/bin/gnu/H-i686-pc-linux-gnu/bin/../lib/gcc/nios2-elf/4.1.2/../../../../nios2-elf/lib/libc.a(lib_a-putc.o)
 .debug_abbrev  0x00006827      0x17f /OPT/altera/12.1/tools/nios2eds/bin/gnu/H-i686-pc-linux-gnu/bin/../lib/gcc/nios2-elf/4.1.2/../../../../nios2-elf/lib/libc.a(lib_a-readr.o)
 .debug_abbrev  0x000069a6      0x1c3 /OPT/altera/12.1/tools/nios2eds/bin/gnu/H-i686-pc-linux-gnu/bin/../lib/gcc/nios2-elf/4.1.2/../../../../nios2-elf/lib/libc.a(lib_a-reallocr.o)
 .debug_abbrev  0x00006b69       0x79 /OPT/altera/12.1/tools/nios2eds/bin/gnu/H-i686-pc-linux-gnu/bin/../lib/gcc/nios2-elf/4.1.2/../../../../nios2-elf/lib/libc.a(lib_a-s_isinfd.o)
 .debug_abbrev  0x00006be2       0x79 /OPT/altera/12.1/tools/nios2eds/bin/gnu/H-i686-pc-linux-gnu/bin/../lib/gcc/nios2-elf/4.1.2/../../../../nios2-elf/lib/libc.a(lib_a-s_isnand.o)
 .debug_abbrev  0x00006c5b       0x93 /OPT/altera/12.1/tools/nios2eds/bin/gnu/H-i686-pc-linux-gnu/bin/../lib/gcc/nios2-elf/4.1.2/../../../../nios2-elf/lib/libc.a(lib_a-sccl.o)
 .debug_abbrev  0x00006cee       0x6d /OPT/altera/12.1/tools/nios2eds/bin/gnu/H-i686-pc-linux-gnu/bin/../lib/gcc/nios2-elf/4.1.2/../../../../nios2-elf/lib/libc.a(lib_a-sf_nan.o)
 .debug_abbrev  0x00006d5b      0x2e8 /OPT/altera/12.1/tools/nios2eds/bin/gnu/H-i686-pc-linux-gnu/bin/../lib/gcc/nios2-elf/4.1.2/../../../../nios2-elf/lib/libc.a(lib_a-strtod.o)
 .debug_abbrev  0x00007043      0x18e /OPT/altera/12.1/tools/nios2eds/bin/gnu/H-i686-pc-linux-gnu/bin/../lib/gcc/nios2-elf/4.1.2/../../../../nios2-elf/lib/libc.a(lib_a-strtoll_r.o)
 .debug_abbrev  0x000071d1      0x1c5 /OPT/altera/12.1/tools/nios2eds/bin/gnu/H-i686-pc-linux-gnu/bin/../lib/gcc/nios2-elf/4.1.2/../../../../nios2-elf/lib/libc.a(lib_a-strtoul.o)
 .debug_abbrev  0x00007396      0x18c /OPT/altera/12.1/tools/nios2eds/bin/gnu/H-i686-pc-linux-gnu/bin/../lib/gcc/nios2-elf/4.1.2/../../../../nios2-elf/lib/libc.a(lib_a-strtoull_r.o)
 .debug_abbrev  0x00007522      0x1a7 /OPT/altera/12.1/tools/nios2eds/bin/gnu/H-i686-pc-linux-gnu/bin/../lib/gcc/nios2-elf/4.1.2/../../../../nios2-elf/lib/libc.a(lib_a-ungetc.o)
 .debug_abbrev  0x000076c9      0x198 /OPT/altera/12.1/tools/nios2eds/bin/gnu/H-i686-pc-linux-gnu/bin/../lib/gcc/nios2-elf/4.1.2/../../../../nios2-elf/lib/libc.a(lib_a-wbuf.o)
 .debug_abbrev  0x00007861      0x1b8 /OPT/altera/12.1/tools/nios2eds/bin/gnu/H-i686-pc-linux-gnu/bin/../lib/gcc/nios2-elf/4.1.2/../../../../nios2-elf/lib/libc.a(lib_a-callocr.o)
 .debug_abbrev  0x00007a19      0x273 /OPT/altera/12.1/tools/nios2eds/bin/gnu/H-i686-pc-linux-gnu/bin/../lib/gcc/nios2-elf/4.1.2/../../../../nios2-elf/lib/libc.a(lib_a-gdtoa-gethex.o)
 .debug_abbrev  0x00007c8c      0x117 /OPT/altera/12.1/tools/nios2eds/bin/gnu/H-i686-pc-linux-gnu/bin/../lib/gcc/nios2-elf/4.1.2/../../../../nios2-elf/lib/libc.a(lib_a-gdtoa-hexnan.o)
 .debug_abbrev  0x00007da3       0xee /OPT/altera/12.1/tools/nios2eds/bin/gnu/H-i686-pc-linux-gnu/bin/../lib/gcc/nios2-elf/4.1.2/libgcc.a(_muldi3.o)
 .debug_abbrev  0x00007e91       0x5d /OPT/altera/12.1/tools/nios2eds/bin/gnu/H-i686-pc-linux-gnu/bin/../lib/gcc/nios2-elf/4.1.2/libgcc.a(_fixunsdfsi.o)
 .debug_abbrev  0x00007eee      0x16b /OPT/altera/12.1/tools/nios2eds/bin/gnu/H-i686-pc-linux-gnu/bin/../lib/gcc/nios2-elf/4.1.2/libgcc.a(_udivdi3.o)
 .debug_abbrev  0x00008059      0x18e /OPT/altera/12.1/tools/nios2eds/bin/gnu/H-i686-pc-linux-gnu/bin/../lib/gcc/nios2-elf/4.1.2/libgcc.a(_umoddi3.o)
 .debug_abbrev  0x000081e7      0x151 /OPT/altera/12.1/tools/nios2eds/bin/gnu/H-i686-pc-linux-gnu/bin/../lib/gcc/nios2-elf/4.1.2/libgcc.a(_ne_sf.o)
 .debug_abbrev  0x00008338      0x151 /OPT/altera/12.1/tools/nios2eds/bin/gnu/H-i686-pc-linux-gnu/bin/../lib/gcc/nios2-elf/4.1.2/libgcc.a(_gt_sf.o)
 .debug_abbrev  0x00008489      0x151 /OPT/altera/12.1/tools/nios2eds/bin/gnu/H-i686-pc-linux-gnu/bin/../lib/gcc/nios2-elf/4.1.2/libgcc.a(_lt_sf.o)
 .debug_abbrev  0x000085da      0x1d2 /OPT/altera/12.1/tools/nios2eds/bin/gnu/H-i686-pc-linux-gnu/bin/../lib/gcc/nios2-elf/4.1.2/libgcc.a(_addsub_df.o)
 .debug_abbrev  0x000087ac      0x204 /OPT/altera/12.1/tools/nios2eds/bin/gnu/H-i686-pc-linux-gnu/bin/../lib/gcc/nios2-elf/4.1.2/libgcc.a(_mul_df.o)
 .debug_abbrev  0x000089b0      0x1e3 /OPT/altera/12.1/tools/nios2eds/bin/gnu/H-i686-pc-linux-gnu/bin/../lib/gcc/nios2-elf/4.1.2/libgcc.a(_div_df.o)
 .debug_abbrev  0x00008b93      0x151 /OPT/altera/12.1/tools/nios2eds/bin/gnu/H-i686-pc-linux-gnu/bin/../lib/gcc/nios2-elf/4.1.2/libgcc.a(_eq_df.o)
 .debug_abbrev  0x00008ce4      0x151 /OPT/altera/12.1/tools/nios2eds/bin/gnu/H-i686-pc-linux-gnu/bin/../lib/gcc/nios2-elf/4.1.2/libgcc.a(_ne_df.o)
 .debug_abbrev  0x00008e35      0x151 /OPT/altera/12.1/tools/nios2eds/bin/gnu/H-i686-pc-linux-gnu/bin/../lib/gcc/nios2-elf/4.1.2/libgcc.a(_gt_df.o)
 .debug_abbrev  0x00008f86      0x151 /OPT/altera/12.1/tools/nios2eds/bin/gnu/H-i686-pc-linux-gnu/bin/../lib/gcc/nios2-elf/4.1.2/libgcc.a(_ge_df.o)
 .debug_abbrev  0x000090d7      0x151 /OPT/altera/12.1/tools/nios2eds/bin/gnu/H-i686-pc-linux-gnu/bin/../lib/gcc/nios2-elf/4.1.2/libgcc.a(_lt_df.o)
 .debug_abbrev  0x00009228      0x151 /OPT/altera/12.1/tools/nios2eds/bin/gnu/H-i686-pc-linux-gnu/bin/../lib/gcc/nios2-elf/4.1.2/libgcc.a(_le_df.o)
 .debug_abbrev  0x00009379      0x13f /OPT/altera/12.1/tools/nios2eds/bin/gnu/H-i686-pc-linux-gnu/bin/../lib/gcc/nios2-elf/4.1.2/libgcc.a(_si_to_df.o)
 .debug_abbrev  0x000094b8      0x176 /OPT/altera/12.1/tools/nios2eds/bin/gnu/H-i686-pc-linux-gnu/bin/../lib/gcc/nios2-elf/4.1.2/libgcc.a(_df_to_si.o)
 .debug_abbrev  0x0000962e      0x137 /OPT/altera/12.1/tools/nios2eds/bin/gnu/H-i686-pc-linux-gnu/bin/../lib/gcc/nios2-elf/4.1.2/libgcc.a(_df_to_sf.o)
 .debug_abbrev  0x00009765       0xba /OPT/altera/12.1/tools/nios2eds/bin/gnu/H-i686-pc-linux-gnu/bin/../lib/gcc/nios2-elf/4.1.2/libgcc.a(_thenan_df.o)
 .debug_abbrev  0x0000981f      0x155 /OPT/altera/12.1/tools/nios2eds/bin/gnu/H-i686-pc-linux-gnu/bin/../lib/gcc/nios2-elf/4.1.2/libgcc.a(_usi_to_df.o)
 .debug_abbrev  0x00009974       0x61 /OPT/altera/12.1/tools/nios2eds/bin/gnu/H-i686-pc-linux-gnu/bin/../lib/gcc/nios2-elf/4.1.2/libgcc.a(_clz.o)
 .debug_abbrev  0x000099d5       0xb9 /OPT/altera/12.1/tools/nios2eds/bin/gnu/H-i686-pc-linux-gnu/bin/../lib/gcc/nios2-elf/4.1.2/libgcc.a(_clzsi2.o)
 .debug_abbrev  0x00009a8e      0x158 /OPT/altera/12.1/tools/nios2eds/bin/gnu/H-i686-pc-linux-gnu/bin/../lib/gcc/nios2-elf/4.1.2/libgcc.a(_unpack_sf.o)
 .debug_abbrev  0x00009be6      0x132 /OPT/altera/12.1/tools/nios2eds/bin/gnu/H-i686-pc-linux-gnu/bin/../lib/gcc/nios2-elf/4.1.2/libgcc.a(_fpcmp_parts_sf.o)
 .debug_abbrev  0x00009d18      0x100 /OPT/altera/12.1/tools/nios2eds/bin/gnu/H-i686-pc-linux-gnu/bin/../lib/gcc/nios2-elf/4.1.2/libgcc.a(_make_sf.o)
 .debug_abbrev  0x00009e18      0x1b1 /OPT/altera/12.1/tools/nios2eds/bin/gnu/H-i686-pc-linux-gnu/bin/../lib/gcc/nios2-elf/4.1.2/libgcc.a(_pack_df.o)
 .debug_abbrev  0x00009fc9      0x149 /OPT/altera/12.1/tools/nios2eds/bin/gnu/H-i686-pc-linux-gnu/bin/../lib/gcc/nios2-elf/4.1.2/libgcc.a(_unpack_df.o)
 .debug_abbrev  0x0000a112      0x132 /OPT/altera/12.1/tools/nios2eds/bin/gnu/H-i686-pc-linux-gnu/bin/../lib/gcc/nios2-elf/4.1.2/libgcc.a(_fpcmp_parts_df.o)
 .debug_abbrev  0x0000a244      0x1aa /OPT/altera/12.1/tools/nios2eds/bin/gnu/H-i686-pc-linux-gnu/bin/../lib/gcc/nios2-elf/4.1.2/libgcc.a(_pack_sf.o)
 .debug_abbrev  0x0000a3ee       0x62 ../G4Capstone_bsp//libucosii_bsp.a(alt_dcache_flush.o)
 .debug_abbrev  0x0000a450      0x128 ../G4Capstone_bsp//libucosii_bsp.a(alt_flash_dev.o)
 .debug_abbrev  0x0000a578      0x102 ../G4Capstone_bsp//libucosii_bsp.a(alt_fstat.o)
 .debug_abbrev  0x0000a67a      0x180 ../G4Capstone_bsp//libucosii_bsp.a(alt_irq_register.o)
 .debug_abbrev  0x0000a7fa       0x44 ../G4Capstone_bsp//libucosii_bsp.a(alt_irq_vars.o)
 .debug_abbrev  0x0000a83e      0x102 ../G4Capstone_bsp//libucosii_bsp.a(alt_isatty.o)
 .debug_abbrev  0x0000a940      0x102 ../G4Capstone_bsp//libucosii_bsp.a(alt_lseek.o)
 .debug_abbrev  0x0000aa42      0x120 ../G4Capstone_bsp//libucosii_bsp.a(alt_main.o)
 .debug_abbrev  0x0000ab62      0x119 ../G4Capstone_bsp//libucosii_bsp.a(alt_open.o)
 .debug_abbrev  0x0000ac7b       0xd3 ../G4Capstone_bsp//libucosii_bsp.a(alt_release_fd.o)
 .debug_abbrev  0x0000ad4e      0x115 ../G4Capstone_bsp//libucosii_bsp.a(alt_sbrk.o)
 .debug_abbrev  0x0000ae63      0x150 ../G4Capstone_bsp//libucosii_bsp.a(alt_tick.o)
 .debug_abbrev  0x0000afb3       0xb7 ../G4Capstone_bsp//libucosii_bsp.a(alt_usleep.o)
 .debug_abbrev  0x0000b06a      0x1b3 ../G4Capstone_bsp//libucosii_bsp.a(alt_env_lock.o)
 .debug_abbrev  0x0000b21d      0x234 ../G4Capstone_bsp//libucosii_bsp.a(alt_malloc_lock.o)
 .debug_abbrev  0x0000b451      0x2aa ../G4Capstone_bsp//libucosii_bsp.a(os_core.o)
 .debug_abbrev  0x0000b6fb      0x114 ../G4Capstone_bsp//libucosii_bsp.a(os_dbg.o)
 .debug_abbrev  0x0000b80f      0x21b ../G4Capstone_bsp//libucosii_bsp.a(os_flag.o)
 .debug_abbrev  0x0000ba2a      0x1f6 ../G4Capstone_bsp//libucosii_bsp.a(os_mbox.o)
 .debug_abbrev  0x0000bc20      0x235 ../G4Capstone_bsp//libucosii_bsp.a(os_mem.o)
 .debug_abbrev  0x0000be55      0x20d ../G4Capstone_bsp//libucosii_bsp.a(os_q.o)
 .debug_abbrev  0x0000c062      0x20d ../G4Capstone_bsp//libucosii_bsp.a(os_sem.o)
 .debug_abbrev  0x0000c26f      0x20e ../G4Capstone_bsp//libucosii_bsp.a(os_task.o)
 .debug_abbrev  0x0000c47d      0x1de ../G4Capstone_bsp//libucosii_bsp.a(os_time.o)
 .debug_abbrev  0x0000c65b      0x1b9 ../G4Capstone_bsp//libucosii_bsp.a(alt_sys_init.o)
 .debug_abbrev  0x0000c814      0x13c ../G4Capstone_bsp//libucosii_bsp.a(altera_avalon_jtag_uart_fd.o)
 .debug_abbrev  0x0000c950      0x21e ../G4Capstone_bsp//libucosii_bsp.a(altera_avalon_jtag_uart_init.o)
 .debug_abbrev  0x0000cb6e      0x135 ../G4Capstone_bsp//libucosii_bsp.a(altera_avalon_jtag_uart_ioctl.o)
 .debug_abbrev  0x0000cca3      0x1ee ../G4Capstone_bsp//libucosii_bsp.a(altera_avalon_jtag_uart_read.o)
 .debug_abbrev  0x0000ce91      0x1ea ../G4Capstone_bsp//libucosii_bsp.a(altera_avalon_jtag_uart_write.o)
 .debug_abbrev  0x0000d07b      0x137 ../G4Capstone_bsp//libucosii_bsp.a(altera_avalon_timer_sc.o)
 .debug_abbrev  0x0000d1b2      0x20a ../G4Capstone_bsp//libucosii_bsp.a(altera_ro_zipfs.o)
 .debug_abbrev  0x0000d3bc      0x117 ../G4Capstone_bsp//libucosii_bsp.a(altera_up_avalon_audio_and_video_config.o)
 .debug_abbrev  0x0000d4d3      0x127 ../G4Capstone_bsp//libucosii_bsp.a(altera_up_avalon_character_lcd.o)
 .debug_abbrev  0x0000d5fa       0x77 ../G4Capstone_bsp//libucosii_bsp.a(alt_iniche_close.o)
 .debug_abbrev  0x0000d671      0x11f ../G4Capstone_bsp//libucosii_bsp.a(alt_iniche_dev.o)
 .debug_abbrev  0x0000d790       0x7e ../G4Capstone_bsp//libucosii_bsp.a(alt_iniche_read.o)
 .debug_abbrev  0x0000d80e       0x85 ../G4Capstone_bsp//libucosii_bsp.a(alt_iniche_write.o)
 .debug_abbrev  0x0000d893      0x184 ../G4Capstone_bsp//libucosii_bsp.a(ipnet.o)
 .debug_abbrev  0x0000da17      0x18b ../G4Capstone_bsp//libucosii_bsp.a(ipstart.o)
 .debug_abbrev  0x0000dba2      0x191 ../G4Capstone_bsp//libucosii_bsp.a(igmp_cmn.o)
 .debug_abbrev  0x0000dd33      0x1a3 ../G4Capstone_bsp//libucosii_bsp.a(bsdsock.o)
 .debug_abbrev  0x0000ded6       0x96 ../G4Capstone_bsp//libucosii_bsp.a(cksum.o)
 .debug_abbrev  0x0000df6c      0x18b ../G4Capstone_bsp//libucosii_bsp.a(in_utils.o)
 .debug_abbrev  0x0000e0f7      0x152 ../G4Capstone_bsp//libucosii_bsp.a(netmain.o)
 .debug_abbrev  0x0000e249      0x144 ../G4Capstone_bsp//libucosii_bsp.a(tk_crnos.o)
 .debug_abbrev  0x0000e38d      0x217 ../G4Capstone_bsp//libucosii_bsp.a(dhcpclnt.o)
 .debug_abbrev  0x0000e5a4       0x8f ../G4Capstone_bsp//libucosii_bsp.a(dhcputil.o)
 .debug_abbrev  0x0000e633      0x196 ../G4Capstone_bsp//libucosii_bsp.a(pktalloc.o)
 .debug_abbrev  0x0000e7c9       0xcb ../G4Capstone_bsp//libucosii_bsp.a(q.o)
 .debug_abbrev  0x0000e894      0x144 ../G4Capstone_bsp//libucosii_bsp.a(udp_open.o)
 .debug_abbrev  0x0000e9d8       0x14 ../G4Capstone_bsp//libucosii_bsp.a(asm_cksum.o)
 .debug_abbrev  0x0000e9ec      0x242 ../G4Capstone_bsp//libucosii_bsp.a(brdutils.o)
 .debug_abbrev  0x0000ec2e      0x194 ../G4Capstone_bsp//libucosii_bsp.a(osportco.o)
 .debug_abbrev  0x0000edc2      0x199 ../G4Capstone_bsp//libucosii_bsp.a(targnios.o)
 .debug_abbrev  0x0000ef5b      0x1dc ../G4Capstone_bsp//libucosii_bsp.a(nptcp.o)
 .debug_abbrev  0x0000f137      0x136 ../G4Capstone_bsp//libucosii_bsp.a(rawsock.o)
 .debug_abbrev  0x0000f26d      0x1de ../G4Capstone_bsp//libucosii_bsp.a(sockcall.o)
 .debug_abbrev  0x0000f44b      0x1ef ../G4Capstone_bsp//libucosii_bsp.a(socket.o)
 .debug_abbrev  0x0000f63a      0x1ac ../G4Capstone_bsp//libucosii_bsp.a(socket2.o)
 .debug_abbrev  0x0000f7e6      0x17f ../G4Capstone_bsp//libucosii_bsp.a(soselect.o)
 .debug_abbrev  0x0000f965      0x1ca ../G4Capstone_bsp//libucosii_bsp.a(tcp_in.o)
 .debug_abbrev  0x0000fb2f      0x1a4 ../G4Capstone_bsp//libucosii_bsp.a(tcp_out.o)
 .debug_abbrev  0x0000fcd3      0x1c3 ../G4Capstone_bsp//libucosii_bsp.a(tcp_subr.o)
 .debug_abbrev  0x0000fe96      0x19e ../G4Capstone_bsp//libucosii_bsp.a(tcp_timr.o)
 .debug_abbrev  0x00010034      0x175 ../G4Capstone_bsp//libucosii_bsp.a(tcp_usr.o)
 .debug_abbrev  0x000101a9       0x77 ../G4Capstone_bsp//libucosii_bsp.a(tcpport.o)
 .debug_abbrev  0x00010220      0x190 ../G4Capstone_bsp//libucosii_bsp.a(udpsock.o)
 .debug_abbrev  0x000103b0      0x172 ../G4Capstone_bsp//libucosii_bsp.a(alt_alarm_start.o)
 .debug_abbrev  0x00010522       0x6c ../G4Capstone_bsp//libucosii_bsp.a(alt_busy_sleep.o)
 .debug_abbrev  0x0001058e      0x102 ../G4Capstone_bsp//libucosii_bsp.a(alt_close.o)
 .debug_abbrev  0x00010690      0x10a ../G4Capstone_bsp//libucosii_bsp.a(alt_dev.o)
 .debug_abbrev  0x0001079a       0xf6 ../G4Capstone_bsp//libucosii_bsp.a(alt_dev_llist_insert.o)
 .debug_abbrev  0x00010890       0x76 ../G4Capstone_bsp//libucosii_bsp.a(alt_do_ctors.o)
 .debug_abbrev  0x00010906       0x76 ../G4Capstone_bsp//libucosii_bsp.a(alt_do_dtors.o)
 .debug_abbrev  0x0001097c       0x5e ../G4Capstone_bsp//libucosii_bsp.a(alt_errno.o)
 .debug_abbrev  0x000109da       0xd6 ../G4Capstone_bsp//libucosii_bsp.a(alt_find_dev.o)
 .debug_abbrev  0x00010ab0       0xd6 ../G4Capstone_bsp//libucosii_bsp.a(alt_find_file.o)
 .debug_abbrev  0x00010b86       0xf4 ../G4Capstone_bsp//libucosii_bsp.a(alt_fs_reg.o)
 .debug_abbrev  0x00010c7a      0x173 ../G4Capstone_bsp//libucosii_bsp.a(alt_get_fd.o)
 .debug_abbrev  0x00010ded      0x134 ../G4Capstone_bsp//libucosii_bsp.a(alt_iic.o)
 .debug_abbrev  0x00010f21      0x14e ../G4Capstone_bsp//libucosii_bsp.a(alt_iic_isr_register.o)
 .debug_abbrev  0x0001106f       0xf7 ../G4Capstone_bsp//libucosii_bsp.a(alt_io_redirect.o)
 .debug_abbrev  0x00011166       0x12 ../G4Capstone_bsp//libucosii_bsp.a(alt_irq_entry.o)
 .debug_abbrev  0x00011178      0x124 ../G4Capstone_bsp//libucosii_bsp.a(alt_irq_handler.o)
 .debug_abbrev  0x0001129c      0x102 ../G4Capstone_bsp//libucosii_bsp.a(alt_read.o)
 .debug_abbrev  0x0001139e       0x74 ../G4Capstone_bsp//libucosii_bsp.a(alt_remap_cached.o)
 .debug_abbrev  0x00011412       0x74 ../G4Capstone_bsp//libucosii_bsp.a(alt_remap_uncached.o)
 .debug_abbrev  0x00011486      0x107 ../G4Capstone_bsp//libucosii_bsp.a(alt_write.o)
 .debug_abbrev  0x0001158d       0x3f ../G4Capstone_bsp//libucosii_bsp.a(altera_nios2_qsys_irq.o)
 .debug_abbrev  0x000115cc       0x14 ../G4Capstone_bsp//libucosii_bsp.a(os_cpu_a.o)
 .debug_abbrev  0x000115e0      0x1d0 ../G4Capstone_bsp//libucosii_bsp.a(os_cpu_c.o)
 .debug_abbrev  0x000117b0      0x173 ../G4Capstone_bsp//libucosii_bsp.a(allports.o)
 .debug_abbrev  0x00011923      0x151 ../G4Capstone_bsp//libucosii_bsp.a(timeouts.o)
 .debug_abbrev  0x00011a74       0xa4 ../G4Capstone_bsp//libucosii_bsp.a(tk_misc.o)
 .debug_abbrev  0x00011b18       0x92 ../G4Capstone_bsp//libucosii_bsp.a(alt_iniche_fcntl.o)
 .debug_abbrev  0x00011baa      0x1eb ../G4Capstone_bsp//libucosii_bsp.a(et_arp.o)
 .debug_abbrev  0x00011d95      0x13d ../G4Capstone_bsp//libucosii_bsp.a(iface.o)
 .debug_abbrev  0x00011ed2      0x1ed ../G4Capstone_bsp//libucosii_bsp.a(ip.o)
 .debug_abbrev  0x000120bf      0x1ca ../G4Capstone_bsp//libucosii_bsp.a(ip_reasm.o)
 .debug_abbrev  0x00012289      0x166 ../G4Capstone_bsp//libucosii_bsp.a(ipdemux.o)
 .debug_abbrev  0x000123ef      0x114 ../G4Capstone_bsp//libucosii_bsp.a(ipmc.o)
 .debug_abbrev  0x00012503       0xe9 ../G4Capstone_bsp//libucosii_bsp.a(ipport.o)
 .debug_abbrev  0x000125ec      0x19c ../G4Capstone_bsp//libucosii_bsp.a(ipraw.o)
 .debug_abbrev  0x00012788      0x156 ../G4Capstone_bsp//libucosii_bsp.a(iproute.o)
 .debug_abbrev  0x000128de      0x1c0 ../G4Capstone_bsp//libucosii_bsp.a(udp.o)
 .debug_abbrev  0x00012a9e      0x10e ../G4Capstone_bsp//libucosii_bsp.a(igmp.o)
 .debug_abbrev  0x00012bac      0x17a ../G4Capstone_bsp//libucosii_bsp.a(igmp2.o)
 .debug_abbrev  0x00012d26      0x189 ../G4Capstone_bsp//libucosii_bsp.a(ipopt.o)
 .debug_abbrev  0x00012eaf      0x15a ../G4Capstone_bsp//libucosii_bsp.a(u_mctest.o)
 .debug_abbrev  0x00013009      0x12e ../G4Capstone_bsp//libucosii_bsp.a(dhcsetup.o)
 .debug_abbrev  0x00013137      0x175 ../G4Capstone_bsp//libucosii_bsp.a(memdev.o)
 .debug_abbrev  0x000132ac      0x154 ../G4Capstone_bsp//libucosii_bsp.a(parseip.o)
 .debug_abbrev  0x00013400       0xad ../G4Capstone_bsp//libucosii_bsp.a(tcpcksum.o)
 .debug_abbrev  0x000134ad      0x19f ../G4Capstone_bsp//libucosii_bsp.a(in_pcb.o)
 .debug_abbrev  0x0001364c      0x1b6 ../G4Capstone_bsp//libucosii_bsp.a(vfsfiles.o)
 .debug_abbrev  0x00013802       0x77 ../G4Capstone_bsp//libucosii_bsp.a(vfsport.o)
 .debug_abbrev  0x00013879       0x12 ../G4Capstone_bsp//libucosii_bsp.a(alt_exception_entry.o)
 .debug_abbrev  0x0001388b      0x107 ../G4Capstone_bsp//libucosii_bsp.a(alt_fcntl.o)
 .debug_abbrev  0x00013992      0x15d ../G4Capstone_bsp//libucosii_bsp.a(icmp.o)
 .debug_abbrev  0x00013aef       0xb7 /OPT/altera/12.1/tools/nios2eds/bin/gnu/H-i686-pc-linux-gnu/bin/../lib/gcc/nios2-elf/4.1.2/../../../../nios2-elf/lib/libc.a(lib_a-atexit.o)
 .debug_abbrev  0x00013ba6      0x17f /OPT/altera/12.1/tools/nios2eds/bin/gnu/H-i686-pc-linux-gnu/bin/../lib/gcc/nios2-elf/4.1.2/../../../../nios2-elf/lib/libc.a(lib_a-calloc.o)
 .debug_abbrev  0x00013d25      0x16e /OPT/altera/12.1/tools/nios2eds/bin/gnu/H-i686-pc-linux-gnu/bin/../lib/gcc/nios2-elf/4.1.2/../../../../nios2-elf/lib/libc.a(lib_a-exit.o)
 .debug_abbrev  0x00013e93      0x17f /OPT/altera/12.1/tools/nios2eds/bin/gnu/H-i686-pc-linux-gnu/bin/../lib/gcc/nios2-elf/4.1.2/../../../../nios2-elf/lib/libc.a(lib_a-getc.o)
 .debug_abbrev  0x00014012      0x187 /OPT/altera/12.1/tools/nios2eds/bin/gnu/H-i686-pc-linux-gnu/bin/../lib/gcc/nios2-elf/4.1.2/../../../../nios2-elf/lib/libc.a(lib_a-malloc.o)
 .debug_abbrev  0x00014199      0x189 /OPT/altera/12.1/tools/nios2eds/bin/gnu/H-i686-pc-linux-gnu/bin/../lib/gcc/nios2-elf/4.1.2/../../../../nios2-elf/lib/libc.a(lib_a-rget.o)
 .debug_abbrev  0x00014322      0x170 /OPT/altera/12.1/tools/nios2eds/bin/gnu/H-i686-pc-linux-gnu/bin/../lib/gcc/nios2-elf/4.1.2/../../../../nios2-elf/lib/libc.a(lib_a-vprintf.o)
 .debug_abbrev  0x00014492      0x1a5 /OPT/altera/12.1/tools/nios2eds/bin/gnu/H-i686-pc-linux-gnu/bin/../lib/gcc/nios2-elf/4.1.2/../../../../nios2-elf/lib/libc.a(lib_a-vsprintf.o)
 .debug_abbrev  0x00014637      0x1ae /OPT/altera/12.1/tools/nios2eds/bin/gnu/H-i686-pc-linux-gnu/bin/../lib/gcc/nios2-elf/4.1.2/../../../../nios2-elf/lib/libc.a(lib_a-__atexit.o)
 .debug_abbrev  0x000147e5      0x1de /OPT/altera/12.1/tools/nios2eds/bin/gnu/H-i686-pc-linux-gnu/bin/../lib/gcc/nios2-elf/4.1.2/../../../../nios2-elf/lib/libc.a(lib_a-__call_atexit.o)
 .debug_abbrev  0x000149c3       0xaa ../G4Capstone_bsp//libucosii_bsp.a(alt_exit.o)

.debug_line     0x00000000    0x48ac2
 *(.debug_line)
 .debug_line    0x00000000       0x51 ../G4Capstone_bsp//obj/HAL/src/crt0.o
 .debug_line    0x00000051      0x4e0 obj/default/alt_error_handler.o
 .debug_line    0x00000531      0xad9 obj/default/dm9000a.o
 .debug_line    0x0000100a     0x130f obj/default/http.o
 .debug_line    0x00002319      0x7e1 obj/default/network_utilities.o
 .debug_line    0x00002afa      0x6c1 obj/default/srec_flash.o
 .debug_line    0x000031bb      0x68d obj/default/web_server.o
 .debug_line    0x00003848      0x2c6 /OPT/altera/12.1/tools/nios2eds/bin/gnu/H-i686-pc-linux-gnu/bin/../lib/gcc/nios2-elf/4.1.2/libgcc.a(lib2-divmod.o)
 .debug_line    0x00003b0e      0x20a /OPT/altera/12.1/tools/nios2eds/bin/gnu/H-i686-pc-linux-gnu/bin/../lib/gcc/nios2-elf/4.1.2/../../../../nios2-elf/lib/libc.a(lib_a-atoi.o)
 .debug_line    0x00003d18       0x7e /OPT/altera/12.1/tools/nios2eds/bin/gnu/H-i686-pc-linux-gnu/bin/../lib/gcc/nios2-elf/4.1.2/../../../../nios2-elf/lib/libc.a(lib_a-ctype_.o)
 .debug_line    0x00003d96      0x2e8 /OPT/altera/12.1/tools/nios2eds/bin/gnu/H-i686-pc-linux-gnu/bin/../lib/gcc/nios2-elf/4.1.2/../../../../nios2-elf/lib/libc.a(lib_a-fclose.o)
 .debug_line    0x0000407e      0x40d /OPT/altera/12.1/tools/nios2eds/bin/gnu/H-i686-pc-linux-gnu/bin/../lib/gcc/nios2-elf/4.1.2/../../../../nios2-elf/lib/libc.a(lib_a-fflush.o)
 .debug_line    0x0000448b      0x259 /OPT/altera/12.1/tools/nios2eds/bin/gnu/H-i686-pc-linux-gnu/bin/../lib/gcc/nios2-elf/4.1.2/../../../../nios2-elf/lib/libc.a(lib_a-fgetpos.o)
 .debug_line    0x000046e4      0x601 /OPT/altera/12.1/tools/nios2eds/bin/gnu/H-i686-pc-linux-gnu/bin/../lib/gcc/nios2-elf/4.1.2/../../../../nios2-elf/lib/libc.a(lib_a-findfp.o)
 .debug_line    0x00004ce5      0x342 /OPT/altera/12.1/tools/nios2eds/bin/gnu/H-i686-pc-linux-gnu/bin/../lib/gcc/nios2-elf/4.1.2/../../../../nios2-elf/lib/libc.a(lib_a-fopen.o)
 .debug_line    0x00005027      0x284 /OPT/altera/12.1/tools/nios2eds/bin/gnu/H-i686-pc-linux-gnu/bin/../lib/gcc/nios2-elf/4.1.2/../../../../nios2-elf/lib/libc.a(lib_a-fprintf.o)
 .debug_line    0x000052ab      0x456 /OPT/altera/12.1/tools/nios2eds/bin/gnu/H-i686-pc-linux-gnu/bin/../lib/gcc/nios2-elf/4.1.2/../../../../nios2-elf/lib/libc.a(lib_a-fread.o)
 .debug_line    0x00005701      0x5eb /OPT/altera/12.1/tools/nios2eds/bin/gnu/H-i686-pc-linux-gnu/bin/../lib/gcc/nios2-elf/4.1.2/../../../../nios2-elf/lib/libc.a(lib_a-freer.o)
 .debug_line    0x00005cec      0x5ab /OPT/altera/12.1/tools/nios2eds/bin/gnu/H-i686-pc-linux-gnu/bin/../lib/gcc/nios2-elf/4.1.2/../../../../nios2-elf/lib/libc.a(lib_a-fseek.o)
 .debug_line    0x00006297      0x264 /OPT/altera/12.1/tools/nios2eds/bin/gnu/H-i686-pc-linux-gnu/bin/../lib/gcc/nios2-elf/4.1.2/../../../../nios2-elf/lib/libc.a(lib_a-fstatr.o)
 .debug_line    0x000064fb      0x2ea /OPT/altera/12.1/tools/nios2eds/bin/gnu/H-i686-pc-linux-gnu/bin/../lib/gcc/nios2-elf/4.1.2/../../../../nios2-elf/lib/libc.a(lib_a-ftell.o)
 .debug_line    0x000067e5      0x34a /OPT/altera/12.1/tools/nios2eds/bin/gnu/H-i686-pc-linux-gnu/bin/../lib/gcc/nios2-elf/4.1.2/../../../../nios2-elf/lib/libc.a(lib_a-fwalk.o)
 .debug_line    0x00006b2f      0x2d9 /OPT/altera/12.1/tools/nios2eds/bin/gnu/H-i686-pc-linux-gnu/bin/../lib/gcc/nios2-elf/4.1.2/../../../../nios2-elf/lib/libc.a(lib_a-fwrite.o)
 .debug_line    0x00006e08      0x22d /OPT/altera/12.1/tools/nios2eds/bin/gnu/H-i686-pc-linux-gnu/bin/../lib/gcc/nios2-elf/4.1.2/../../../../nios2-elf/lib/libc.a(lib_a-impure.o)
 .debug_line    0x00007035      0x1df /OPT/altera/12.1/tools/nios2eds/bin/gnu/H-i686-pc-linux-gnu/bin/../lib/gcc/nios2-elf/4.1.2/../../../../nios2-elf/lib/libc.a(lib_a-int_errno.o)
 .debug_line    0x00007214      0x3c3 /OPT/altera/12.1/tools/nios2eds/bin/gnu/H-i686-pc-linux-gnu/bin/../lib/gcc/nios2-elf/4.1.2/../../../../nios2-elf/lib/libc.a(lib_a-makebuf.o)
 .debug_line    0x000075d7      0x80a /OPT/altera/12.1/tools/nios2eds/bin/gnu/H-i686-pc-linux-gnu/bin/../lib/gcc/nios2-elf/4.1.2/../../../../nios2-elf/lib/libc.a(lib_a-mallocr.o)
 .debug_line    0x00007de1      0x1ac /OPT/altera/12.1/tools/nios2eds/bin/gnu/H-i686-pc-linux-gnu/bin/../lib/gcc/nios2-elf/4.1.2/../../../../nios2-elf/lib/libc.a(lib_a-memcpy.o)
 .debug_line    0x00007f8d      0x30a /OPT/altera/12.1/tools/nios2eds/bin/gnu/H-i686-pc-linux-gnu/bin/../lib/gcc/nios2-elf/4.1.2/../../../../nios2-elf/lib/libc.a(lib_a-memmove.o)
 .debug_line    0x00008297      0x301 /OPT/altera/12.1/tools/nios2eds/bin/gnu/H-i686-pc-linux-gnu/bin/../lib/gcc/nios2-elf/4.1.2/../../../../nios2-elf/lib/libc.a(lib_a-memset.o)
 .debug_line    0x00008598      0x27b /OPT/altera/12.1/tools/nios2eds/bin/gnu/H-i686-pc-linux-gnu/bin/../lib/gcc/nios2-elf/4.1.2/../../../../nios2-elf/lib/libc.a(lib_a-openr.o)
 .debug_line    0x00008813      0x2a4 /OPT/altera/12.1/tools/nios2eds/bin/gnu/H-i686-pc-linux-gnu/bin/../lib/gcc/nios2-elf/4.1.2/../../../../nios2-elf/lib/libc.a(lib_a-perror.o)
 .debug_line    0x00008ab7      0x29b /OPT/altera/12.1/tools/nios2eds/bin/gnu/H-i686-pc-linux-gnu/bin/../lib/gcc/nios2-elf/4.1.2/../../../../nios2-elf/lib/libc.a(lib_a-printf.o)
 .debug_line    0x00008d52      0x2f7 /OPT/altera/12.1/tools/nios2eds/bin/gnu/H-i686-pc-linux-gnu/bin/../lib/gcc/nios2-elf/4.1.2/../../../../nios2-elf/lib/libc.a(lib_a-puts.o)
 .debug_line    0x00009049      0x3c4 /OPT/altera/12.1/tools/nios2eds/bin/gnu/H-i686-pc-linux-gnu/bin/../lib/gcc/nios2-elf/4.1.2/../../../../nios2-elf/lib/libc.a(lib_a-refill.o)
 .debug_line    0x0000940d      0x299 /OPT/altera/12.1/tools/nios2eds/bin/gnu/H-i686-pc-linux-gnu/bin/../lib/gcc/nios2-elf/4.1.2/../../../../nios2-elf/lib/libc.a(lib_a-sbrkr.o)
 .debug_line    0x000096a6      0x322 /OPT/altera/12.1/tools/nios2eds/bin/gnu/H-i686-pc-linux-gnu/bin/../lib/gcc/nios2-elf/4.1.2/../../../../nios2-elf/lib/libc.a(lib_a-sprintf.o)
 .debug_line    0x000099c8      0x361 /OPT/altera/12.1/tools/nios2eds/bin/gnu/H-i686-pc-linux-gnu/bin/../lib/gcc/nios2-elf/4.1.2/../../../../nios2-elf/lib/libc.a(lib_a-sscanf.o)
 .debug_line    0x00009d29      0x38c /OPT/altera/12.1/tools/nios2eds/bin/gnu/H-i686-pc-linux-gnu/bin/../lib/gcc/nios2-elf/4.1.2/../../../../nios2-elf/lib/libc.a(lib_a-stdio.o)
 .debug_line    0x0000a0b5      0x20f /OPT/altera/12.1/tools/nios2eds/bin/gnu/H-i686-pc-linux-gnu/bin/../lib/gcc/nios2-elf/4.1.2/../../../../nios2-elf/lib/libc.a(lib_a-strcasecmp.o)
 .debug_line    0x0000a2c4      0x28f /OPT/altera/12.1/tools/nios2eds/bin/gnu/H-i686-pc-linux-gnu/bin/../lib/gcc/nios2-elf/4.1.2/../../../../nios2-elf/lib/libc.a(lib_a-strcat.o)
 .debug_line    0x0000a553      0x2c7 /OPT/altera/12.1/tools/nios2eds/bin/gnu/H-i686-pc-linux-gnu/bin/../lib/gcc/nios2-elf/4.1.2/../../../../nios2-elf/lib/libc.a(lib_a-strchr.o)
 .debug_line    0x0000a81a      0x2d5 /OPT/altera/12.1/tools/nios2eds/bin/gnu/H-i686-pc-linux-gnu/bin/../lib/gcc/nios2-elf/4.1.2/../../../../nios2-elf/lib/libc.a(lib_a-strcmp.o)
 .debug_line    0x0000aaef      0x287 /OPT/altera/12.1/tools/nios2eds/bin/gnu/H-i686-pc-linux-gnu/bin/../lib/gcc/nios2-elf/4.1.2/../../../../nios2-elf/lib/libc.a(lib_a-strcpy.o)
 .debug_line    0x0000ad76      0x4e1 /OPT/altera/12.1/tools/nios2eds/bin/gnu/H-i686-pc-linux-gnu/bin/../lib/gcc/nios2-elf/4.1.2/../../../../nios2-elf/lib/libc.a(lib_a-strerror.o)
 .debug_line    0x0000b257      0x26d /OPT/altera/12.1/tools/nios2eds/bin/gnu/H-i686-pc-linux-gnu/bin/../lib/gcc/nios2-elf/4.1.2/../../../../nios2-elf/lib/libc.a(lib_a-strlen.o)
 .debug_line    0x0000b4c4      0x2fe /OPT/altera/12.1/tools/nios2eds/bin/gnu/H-i686-pc-linux-gnu/bin/../lib/gcc/nios2-elf/4.1.2/../../../../nios2-elf/lib/libc.a(lib_a-strncmp.o)
 .debug_line    0x0000b7c2      0x2d0 /OPT/altera/12.1/tools/nios2eds/bin/gnu/H-i686-pc-linux-gnu/bin/../lib/gcc/nios2-elf/4.1.2/../../../../nios2-elf/lib/libc.a(lib_a-strncpy.o)
 .debug_line    0x0000ba92      0x6cd /OPT/altera/12.1/tools/nios2eds/bin/gnu/H-i686-pc-linux-gnu/bin/../lib/gcc/nios2-elf/4.1.2/../../../../nios2-elf/lib/libc.a(lib_a-strstr.o)
 .debug_line    0x0000c15f      0x250 /OPT/altera/12.1/tools/nios2eds/bin/gnu/H-i686-pc-linux-gnu/bin/../lib/gcc/nios2-elf/4.1.2/../../../../nios2-elf/lib/libc.a(lib_a-strtok.o)
 .debug_line    0x0000c3af      0x30b /OPT/altera/12.1/tools/nios2eds/bin/gnu/H-i686-pc-linux-gnu/bin/../lib/gcc/nios2-elf/4.1.2/../../../../nios2-elf/lib/libc.a(lib_a-strtok_r.o)
 .debug_line    0x0000c6ba      0x403 /OPT/altera/12.1/tools/nios2eds/bin/gnu/H-i686-pc-linux-gnu/bin/../lib/gcc/nios2-elf/4.1.2/../../../../nios2-elf/lib/libc.a(lib_a-strtol.o)
 .debug_line    0x0000cabd       0x91 /OPT/altera/12.1/tools/nios2eds/bin/gnu/H-i686-pc-linux-gnu/bin/../lib/gcc/nios2-elf/4.1.2/../../../../nios2-elf/lib/libc.a(lib_a-u_strerr.o)
 .debug_line    0x0000cb4e     0x110c /OPT/altera/12.1/tools/nios2eds/bin/gnu/H-i686-pc-linux-gnu/bin/../lib/gcc/nios2-elf/4.1.2/../../../../nios2-elf/lib/libc.a(lib_a-vfprintf.o)
 .debug_line    0x0000dc5a     0x103d /OPT/altera/12.1/tools/nios2eds/bin/gnu/H-i686-pc-linux-gnu/bin/../lib/gcc/nios2-elf/4.1.2/../../../../nios2-elf/lib/libc.a(lib_a-vfscanf.o)
 .debug_line    0x0000ec97      0x29a /OPT/altera/12.1/tools/nios2eds/bin/gnu/H-i686-pc-linux-gnu/bin/../lib/gcc/nios2-elf/4.1.2/../../../../nios2-elf/lib/libc.a(lib_a-writer.o)
 .debug_line    0x0000ef31      0x2f0 /OPT/altera/12.1/tools/nios2eds/bin/gnu/H-i686-pc-linux-gnu/bin/../lib/gcc/nios2-elf/4.1.2/../../../../nios2-elf/lib/libc.a(lib_a-wsetup.o)
 .debug_line    0x0000f221      0x29a /OPT/altera/12.1/tools/nios2eds/bin/gnu/H-i686-pc-linux-gnu/bin/../lib/gcc/nios2-elf/4.1.2/../../../../nios2-elf/lib/libc.a(lib_a-closer.o)
 .debug_line    0x0000f4bb     0x12c6 /OPT/altera/12.1/tools/nios2eds/bin/gnu/H-i686-pc-linux-gnu/bin/../lib/gcc/nios2-elf/4.1.2/../../../../nios2-elf/lib/libc.a(lib_a-dtoa.o)
 .debug_line    0x00010781      0x296 /OPT/altera/12.1/tools/nios2eds/bin/gnu/H-i686-pc-linux-gnu/bin/../lib/gcc/nios2-elf/4.1.2/../../../../nios2-elf/lib/libc.a(lib_a-flags.o)
 .debug_line    0x00010a17      0x285 /OPT/altera/12.1/tools/nios2eds/bin/gnu/H-i686-pc-linux-gnu/bin/../lib/gcc/nios2-elf/4.1.2/../../../../nios2-elf/lib/libc.a(lib_a-fputc.o)
 .debug_line    0x00010c9c      0x2c8 /OPT/altera/12.1/tools/nios2eds/bin/gnu/H-i686-pc-linux-gnu/bin/../lib/gcc/nios2-elf/4.1.2/../../../../nios2-elf/lib/libc.a(lib_a-fputs.o)
 .debug_line    0x00010f64      0x641 /OPT/altera/12.1/tools/nios2eds/bin/gnu/H-i686-pc-linux-gnu/bin/../lib/gcc/nios2-elf/4.1.2/../../../../nios2-elf/lib/libc.a(lib_a-fvwrite.o)
 .debug_line    0x000115a5      0x29b /OPT/altera/12.1/tools/nios2eds/bin/gnu/H-i686-pc-linux-gnu/bin/../lib/gcc/nios2-elf/4.1.2/../../../../nios2-elf/lib/libc.a(lib_a-isattyr.o)
 .debug_line    0x00011840      0x1fb /OPT/altera/12.1/tools/nios2eds/bin/gnu/H-i686-pc-linux-gnu/bin/../lib/gcc/nios2-elf/4.1.2/../../../../nios2-elf/lib/libc.a(lib_a-iswspace.o)
 .debug_line    0x00011a3b      0x2c8 /OPT/altera/12.1/tools/nios2eds/bin/gnu/H-i686-pc-linux-gnu/bin/../lib/gcc/nios2-elf/4.1.2/../../../../nios2-elf/lib/libc.a(lib_a-locale.o)
 .debug_line    0x00011d03      0x29a /OPT/altera/12.1/tools/nios2eds/bin/gnu/H-i686-pc-linux-gnu/bin/../lib/gcc/nios2-elf/4.1.2/../../../../nios2-elf/lib/libc.a(lib_a-lseekr.o)
 .debug_line    0x00011f9d      0x2c6 /OPT/altera/12.1/tools/nios2eds/bin/gnu/H-i686-pc-linux-gnu/bin/../lib/gcc/nios2-elf/4.1.2/../../../../nios2-elf/lib/libc.a(lib_a-mbrtowc.o)
 .debug_line    0x00012263      0x236 /OPT/altera/12.1/tools/nios2eds/bin/gnu/H-i686-pc-linux-gnu/bin/../lib/gcc/nios2-elf/4.1.2/../../../../nios2-elf/lib/libc.a(lib_a-mbtowc_r.o)
 .debug_line    0x00012499      0x303 /OPT/altera/12.1/tools/nios2eds/bin/gnu/H-i686-pc-linux-gnu/bin/../lib/gcc/nios2-elf/4.1.2/../../../../nios2-elf/lib/libc.a(lib_a-memchr.o)
 .debug_line    0x0001279c      0x29f /OPT/altera/12.1/tools/nios2eds/bin/gnu/H-i686-pc-linux-gnu/bin/../lib/gcc/nios2-elf/4.1.2/../../../../nios2-elf/lib/libc.a(lib_a-memcmp.o)
 .debug_line    0x00012a3b     0x1243 /OPT/altera/12.1/tools/nios2eds/bin/gnu/H-i686-pc-linux-gnu/bin/../lib/gcc/nios2-elf/4.1.2/../../../../nios2-elf/lib/libc.a(lib_a-mprec.o)
 .debug_line    0x00013c7e      0x2c4 /OPT/altera/12.1/tools/nios2eds/bin/gnu/H-i686-pc-linux-gnu/bin/../lib/gcc/nios2-elf/4.1.2/../../../../nios2-elf/lib/libc.a(lib_a-putc.o)
 .debug_line    0x00013f42      0x299 /OPT/altera/12.1/tools/nios2eds/bin/gnu/H-i686-pc-linux-gnu/bin/../lib/gcc/nios2-elf/4.1.2/../../../../nios2-elf/lib/libc.a(lib_a-readr.o)
 .debug_line    0x000141db      0x58a /OPT/altera/12.1/tools/nios2eds/bin/gnu/H-i686-pc-linux-gnu/bin/../lib/gcc/nios2-elf/4.1.2/../../../../nios2-elf/lib/libc.a(lib_a-reallocr.o)
 .debug_line    0x00014765      0x222 /OPT/altera/12.1/tools/nios2eds/bin/gnu/H-i686-pc-linux-gnu/bin/../lib/gcc/nios2-elf/4.1.2/../../../../nios2-elf/lib/libc.a(lib_a-s_isinfd.o)
 .debug_line    0x00014987      0x21a /OPT/altera/12.1/tools/nios2eds/bin/gnu/H-i686-pc-linux-gnu/bin/../lib/gcc/nios2-elf/4.1.2/../../../../nios2-elf/lib/libc.a(lib_a-s_isnand.o)
 .debug_line    0x00014ba1      0x2c9 /OPT/altera/12.1/tools/nios2eds/bin/gnu/H-i686-pc-linux-gnu/bin/../lib/gcc/nios2-elf/4.1.2/../../../../nios2-elf/lib/libc.a(lib_a-sccl.o)
 .debug_line    0x00014e6a      0x208 /OPT/altera/12.1/tools/nios2eds/bin/gnu/H-i686-pc-linux-gnu/bin/../lib/gcc/nios2-elf/4.1.2/../../../../nios2-elf/lib/libc.a(lib_a-sf_nan.o)
 .debug_line    0x00015072      0xfe4 /OPT/altera/12.1/tools/nios2eds/bin/gnu/H-i686-pc-linux-gnu/bin/../lib/gcc/nios2-elf/4.1.2/../../../../nios2-elf/lib/libc.a(lib_a-strtod.o)
 .debug_line    0x00016056      0x406 /OPT/altera/12.1/tools/nios2eds/bin/gnu/H-i686-pc-linux-gnu/bin/../lib/gcc/nios2-elf/4.1.2/../../../../nios2-elf/lib/libc.a(lib_a-strtoll_r.o)
 .debug_line    0x0001645c      0x3ba /OPT/altera/12.1/tools/nios2eds/bin/gnu/H-i686-pc-linux-gnu/bin/../lib/gcc/nios2-elf/4.1.2/../../../../nios2-elf/lib/libc.a(lib_a-strtoul.o)
 .debug_line    0x00016816      0x3af /OPT/altera/12.1/tools/nios2eds/bin/gnu/H-i686-pc-linux-gnu/bin/../lib/gcc/nios2-elf/4.1.2/../../../../nios2-elf/lib/libc.a(lib_a-strtoull_r.o)
 .debug_line    0x00016bc5      0x49f /OPT/altera/12.1/tools/nios2eds/bin/gnu/H-i686-pc-linux-gnu/bin/../lib/gcc/nios2-elf/4.1.2/../../../../nios2-elf/lib/libc.a(lib_a-ungetc.o)
 .debug_line    0x00017064      0x350 /OPT/altera/12.1/tools/nios2eds/bin/gnu/H-i686-pc-linux-gnu/bin/../lib/gcc/nios2-elf/4.1.2/../../../../nios2-elf/lib/libc.a(lib_a-wbuf.o)
 .debug_line    0x000173b4      0x25c /OPT/altera/12.1/tools/nios2eds/bin/gnu/H-i686-pc-linux-gnu/bin/../lib/gcc/nios2-elf/4.1.2/../../../../nios2-elf/lib/libc.a(lib_a-callocr.o)
 .debug_line    0x00017610      0x8c5 /OPT/altera/12.1/tools/nios2eds/bin/gnu/H-i686-pc-linux-gnu/bin/../lib/gcc/nios2-elf/4.1.2/../../../../nios2-elf/lib/libc.a(lib_a-gdtoa-gethex.o)
 .debug_line    0x00017ed5      0x47b /OPT/altera/12.1/tools/nios2eds/bin/gnu/H-i686-pc-linux-gnu/bin/../lib/gcc/nios2-elf/4.1.2/../../../../nios2-elf/lib/libc.a(lib_a-gdtoa-hexnan.o)
 .debug_line    0x00018350      0x196 /OPT/altera/12.1/tools/nios2eds/bin/gnu/H-i686-pc-linux-gnu/bin/../lib/gcc/nios2-elf/4.1.2/libgcc.a(_muldi3.o)
 .debug_line    0x000184e6      0x176 /OPT/altera/12.1/tools/nios2eds/bin/gnu/H-i686-pc-linux-gnu/bin/../lib/gcc/nios2-elf/4.1.2/libgcc.a(_fixunsdfsi.o)
 .debug_line    0x0001865c      0x369 /OPT/altera/12.1/tools/nios2eds/bin/gnu/H-i686-pc-linux-gnu/bin/../lib/gcc/nios2-elf/4.1.2/libgcc.a(_udivdi3.o)
 .debug_line    0x000189c5      0x3f4 /OPT/altera/12.1/tools/nios2eds/bin/gnu/H-i686-pc-linux-gnu/bin/../lib/gcc/nios2-elf/4.1.2/libgcc.a(_umoddi3.o)
 .debug_line    0x00018db9      0x121 /OPT/altera/12.1/tools/nios2eds/bin/gnu/H-i686-pc-linux-gnu/bin/../lib/gcc/nios2-elf/4.1.2/libgcc.a(_ne_sf.o)
 .debug_line    0x00018eda      0x121 /OPT/altera/12.1/tools/nios2eds/bin/gnu/H-i686-pc-linux-gnu/bin/../lib/gcc/nios2-elf/4.1.2/libgcc.a(_gt_sf.o)
 .debug_line    0x00018ffb      0x121 /OPT/altera/12.1/tools/nios2eds/bin/gnu/H-i686-pc-linux-gnu/bin/../lib/gcc/nios2-elf/4.1.2/libgcc.a(_lt_sf.o)
 .debug_line    0x0001911c      0x430 /OPT/altera/12.1/tools/nios2eds/bin/gnu/H-i686-pc-linux-gnu/bin/../lib/gcc/nios2-elf/4.1.2/libgcc.a(_addsub_df.o)
 .debug_line    0x0001954c      0x3e5 /OPT/altera/12.1/tools/nios2eds/bin/gnu/H-i686-pc-linux-gnu/bin/../lib/gcc/nios2-elf/4.1.2/libgcc.a(_mul_df.o)
 .debug_line    0x00019931      0x301 /OPT/altera/12.1/tools/nios2eds/bin/gnu/H-i686-pc-linux-gnu/bin/../lib/gcc/nios2-elf/4.1.2/libgcc.a(_div_df.o)
 .debug_line    0x00019c32      0x129 /OPT/altera/12.1/tools/nios2eds/bin/gnu/H-i686-pc-linux-gnu/bin/../lib/gcc/nios2-elf/4.1.2/libgcc.a(_eq_df.o)
 .debug_line    0x00019d5b      0x129 /OPT/altera/12.1/tools/nios2eds/bin/gnu/H-i686-pc-linux-gnu/bin/../lib/gcc/nios2-elf/4.1.2/libgcc.a(_ne_df.o)
 .debug_line    0x00019e84      0x129 /OPT/altera/12.1/tools/nios2eds/bin/gnu/H-i686-pc-linux-gnu/bin/../lib/gcc/nios2-elf/4.1.2/libgcc.a(_gt_df.o)
 .debug_line    0x00019fad      0x129 /OPT/altera/12.1/tools/nios2eds/bin/gnu/H-i686-pc-linux-gnu/bin/../lib/gcc/nios2-elf/4.1.2/libgcc.a(_ge_df.o)
 .debug_line    0x0001a0d6      0x129 /OPT/altera/12.1/tools/nios2eds/bin/gnu/H-i686-pc-linux-gnu/bin/../lib/gcc/nios2-elf/4.1.2/libgcc.a(_lt_df.o)
 .debug_line    0x0001a1ff      0x129 /OPT/altera/12.1/tools/nios2eds/bin/gnu/H-i686-pc-linux-gnu/bin/../lib/gcc/nios2-elf/4.1.2/libgcc.a(_le_df.o)
 .debug_line    0x0001a328      0x175 /OPT/altera/12.1/tools/nios2eds/bin/gnu/H-i686-pc-linux-gnu/bin/../lib/gcc/nios2-elf/4.1.2/libgcc.a(_si_to_df.o)
 .debug_line    0x0001a49d      0x149 /OPT/altera/12.1/tools/nios2eds/bin/gnu/H-i686-pc-linux-gnu/bin/../lib/gcc/nios2-elf/4.1.2/libgcc.a(_df_to_si.o)
 .debug_line    0x0001a5e6      0x121 /OPT/altera/12.1/tools/nios2eds/bin/gnu/H-i686-pc-linux-gnu/bin/../lib/gcc/nios2-elf/4.1.2/libgcc.a(_df_to_sf.o)
 .debug_line    0x0001a707       0x94 /OPT/altera/12.1/tools/nios2eds/bin/gnu/H-i686-pc-linux-gnu/bin/../lib/gcc/nios2-elf/4.1.2/libgcc.a(_thenan_df.o)
 .debug_line    0x0001a79b      0x189 /OPT/altera/12.1/tools/nios2eds/bin/gnu/H-i686-pc-linux-gnu/bin/../lib/gcc/nios2-elf/4.1.2/libgcc.a(_usi_to_df.o)
 .debug_line    0x0001a924      0x121 /OPT/altera/12.1/tools/nios2eds/bin/gnu/H-i686-pc-linux-gnu/bin/../lib/gcc/nios2-elf/4.1.2/libgcc.a(_clz.o)
 .debug_line    0x0001aa45      0x17c /OPT/altera/12.1/tools/nios2eds/bin/gnu/H-i686-pc-linux-gnu/bin/../lib/gcc/nios2-elf/4.1.2/libgcc.a(_clzsi2.o)
 .debug_line    0x0001abc1      0x197 /OPT/altera/12.1/tools/nios2eds/bin/gnu/H-i686-pc-linux-gnu/bin/../lib/gcc/nios2-elf/4.1.2/libgcc.a(_unpack_sf.o)
 .debug_line    0x0001ad58      0x177 /OPT/altera/12.1/tools/nios2eds/bin/gnu/H-i686-pc-linux-gnu/bin/../lib/gcc/nios2-elf/4.1.2/libgcc.a(_fpcmp_parts_sf.o)
 .debug_line    0x0001aecf       0xe1 /OPT/altera/12.1/tools/nios2eds/bin/gnu/H-i686-pc-linux-gnu/bin/../lib/gcc/nios2-elf/4.1.2/libgcc.a(_make_sf.o)
 .debug_line    0x0001afb0      0x222 /OPT/altera/12.1/tools/nios2eds/bin/gnu/H-i686-pc-linux-gnu/bin/../lib/gcc/nios2-elf/4.1.2/libgcc.a(_pack_df.o)
 .debug_line    0x0001b1d2      0x1e4 /OPT/altera/12.1/tools/nios2eds/bin/gnu/H-i686-pc-linux-gnu/bin/../lib/gcc/nios2-elf/4.1.2/libgcc.a(_unpack_df.o)
 .debug_line    0x0001b3b6      0x187 /OPT/altera/12.1/tools/nios2eds/bin/gnu/H-i686-pc-linux-gnu/bin/../lib/gcc/nios2-elf/4.1.2/libgcc.a(_fpcmp_parts_df.o)
 .debug_line    0x0001b53d      0x1ca /OPT/altera/12.1/tools/nios2eds/bin/gnu/H-i686-pc-linux-gnu/bin/../lib/gcc/nios2-elf/4.1.2/libgcc.a(_pack_sf.o)
 .debug_line    0x0001b707      0x1c5 ../G4Capstone_bsp//libucosii_bsp.a(alt_dcache_flush.o)
 .debug_line    0x0001b8cc      0x2dc ../G4Capstone_bsp//libucosii_bsp.a(alt_flash_dev.o)
 .debug_line    0x0001bba8      0x315 ../G4Capstone_bsp//libucosii_bsp.a(alt_fstat.o)
 .debug_line    0x0001bebd      0x381 ../G4Capstone_bsp//libucosii_bsp.a(alt_irq_register.o)
 .debug_line    0x0001c23e       0x72 ../G4Capstone_bsp//libucosii_bsp.a(alt_irq_vars.o)
 .debug_line    0x0001c2b0      0x316 ../G4Capstone_bsp//libucosii_bsp.a(alt_isatty.o)
 .debug_line    0x0001c5c6      0x315 ../G4Capstone_bsp//libucosii_bsp.a(alt_lseek.o)
 .debug_line    0x0001c8db      0x35d ../G4Capstone_bsp//libucosii_bsp.a(alt_main.o)
 .debug_line    0x0001cc38      0x373 ../G4Capstone_bsp//libucosii_bsp.a(alt_open.o)
 .debug_line    0x0001cfab      0x28d ../G4Capstone_bsp//libucosii_bsp.a(alt_release_fd.o)
 .debug_line    0x0001d238      0x275 ../G4Capstone_bsp//libucosii_bsp.a(alt_sbrk.o)
 .debug_line    0x0001d4ad      0x32a ../G4Capstone_bsp//libucosii_bsp.a(alt_tick.o)
 .debug_line    0x0001d7d7      0x2c1 ../G4Capstone_bsp//libucosii_bsp.a(alt_usleep.o)
 .debug_line    0x0001da98      0x2d3 ../G4Capstone_bsp//libucosii_bsp.a(alt_env_lock.o)
 .debug_line    0x0001dd6b      0x38f ../G4Capstone_bsp//libucosii_bsp.a(alt_malloc_lock.o)
 .debug_line    0x0001e0fa     0x1677 ../G4Capstone_bsp//libucosii_bsp.a(os_core.o)
 .debug_line    0x0001f771      0x39c ../G4Capstone_bsp//libucosii_bsp.a(os_dbg.o)
 .debug_line    0x0001fb0d     0x11fb ../G4Capstone_bsp//libucosii_bsp.a(os_flag.o)
 .debug_line    0x00020d08      0xaca ../G4Capstone_bsp//libucosii_bsp.a(os_mbox.o)
 .debug_line    0x000217d2      0x79e ../G4Capstone_bsp//libucosii_bsp.a(os_mem.o)
 .debug_line    0x00021f70      0xe7f ../G4Capstone_bsp//libucosii_bsp.a(os_q.o)
 .debug_line    0x00022def      0xa37 ../G4Capstone_bsp//libucosii_bsp.a(os_sem.o)
 .debug_line    0x00023826     0x1140 ../G4Capstone_bsp//libucosii_bsp.a(os_task.o)
 .debug_line    0x00024966      0x543 ../G4Capstone_bsp//libucosii_bsp.a(os_time.o)
 .debug_line    0x00024ea9      0x38b ../G4Capstone_bsp//libucosii_bsp.a(alt_sys_init.o)
 .debug_line    0x00025234      0x32d ../G4Capstone_bsp//libucosii_bsp.a(altera_avalon_jtag_uart_fd.o)
 .debug_line    0x00025561      0x5ac ../G4Capstone_bsp//libucosii_bsp.a(altera_avalon_jtag_uart_init.o)
 .debug_line    0x00025b0d      0x36a ../G4Capstone_bsp//libucosii_bsp.a(altera_avalon_jtag_uart_ioctl.o)
 .debug_line    0x00025e77      0x4a8 ../G4Capstone_bsp//libucosii_bsp.a(altera_avalon_jtag_uart_read.o)
 .debug_line    0x0002631f      0x4b6 ../G4Capstone_bsp//libucosii_bsp.a(altera_avalon_jtag_uart_write.o)
 .debug_line    0x000267d5      0x2c7 ../G4Capstone_bsp//libucosii_bsp.a(altera_avalon_timer_sc.o)
 .debug_line    0x00026a9c      0x836 ../G4Capstone_bsp//libucosii_bsp.a(altera_ro_zipfs.o)
 .debug_line    0x000272d2      0x5bb ../G4Capstone_bsp//libucosii_bsp.a(altera_up_avalon_audio_and_video_config.o)
 .debug_line    0x0002788d      0x4d9 ../G4Capstone_bsp//libucosii_bsp.a(altera_up_avalon_character_lcd.o)
 .debug_line    0x00027d66      0x35b ../G4Capstone_bsp//libucosii_bsp.a(alt_iniche_close.o)
 .debug_line    0x000280c1      0x3fe ../G4Capstone_bsp//libucosii_bsp.a(alt_iniche_dev.o)
 .debug_line    0x000284bf      0x35a ../G4Capstone_bsp//libucosii_bsp.a(alt_iniche_read.o)
 .debug_line    0x00028819      0x36b ../G4Capstone_bsp//libucosii_bsp.a(alt_iniche_write.o)
 .debug_line    0x00028b84      0x7ba ../G4Capstone_bsp//libucosii_bsp.a(ipnet.o)
 .debug_line    0x0002933e      0x4fb ../G4Capstone_bsp//libucosii_bsp.a(ipstart.o)
 .debug_line    0x00029839      0x930 ../G4Capstone_bsp//libucosii_bsp.a(igmp_cmn.o)
 .debug_line    0x0002a169      0x6db ../G4Capstone_bsp//libucosii_bsp.a(bsdsock.o)
 .debug_line    0x0002a844      0x31e ../G4Capstone_bsp//libucosii_bsp.a(cksum.o)
 .debug_line    0x0002ab62      0x7bd ../G4Capstone_bsp//libucosii_bsp.a(in_utils.o)
 .debug_line    0x0002b31f      0x453 ../G4Capstone_bsp//libucosii_bsp.a(netmain.o)
 .debug_line    0x0002b772      0x5bc ../G4Capstone_bsp//libucosii_bsp.a(tk_crnos.o)
 .debug_line    0x0002bd2e     0x107d ../G4Capstone_bsp//libucosii_bsp.a(dhcpclnt.o)
 .debug_line    0x0002cdab      0x313 ../G4Capstone_bsp//libucosii_bsp.a(dhcputil.o)
 .debug_line    0x0002d0be      0x65d ../G4Capstone_bsp//libucosii_bsp.a(pktalloc.o)
 .debug_line    0x0002d71b      0x3ef ../G4Capstone_bsp//libucosii_bsp.a(q.o)
 .debug_line    0x0002db0a      0x482 ../G4Capstone_bsp//libucosii_bsp.a(udp_open.o)
 .debug_line    0x0002df8c       0xaf ../G4Capstone_bsp//libucosii_bsp.a(asm_cksum.o)
 .debug_line    0x0002e03b      0x486 ../G4Capstone_bsp//libucosii_bsp.a(brdutils.o)
 .debug_line    0x0002e4c1      0x513 ../G4Capstone_bsp//libucosii_bsp.a(osportco.o)
 .debug_line    0x0002e9d4      0x652 ../G4Capstone_bsp//libucosii_bsp.a(targnios.o)
 .debug_line    0x0002f026      0xf37 ../G4Capstone_bsp//libucosii_bsp.a(nptcp.o)
 .debug_line    0x0002ff5d      0x85c ../G4Capstone_bsp//libucosii_bsp.a(rawsock.o)
 .debug_line    0x000307b9      0xe4a ../G4Capstone_bsp//libucosii_bsp.a(sockcall.o)
 .debug_line    0x00031603     0x12cc ../G4Capstone_bsp//libucosii_bsp.a(socket.o)
 .debug_line    0x000328cf      0xc00 ../G4Capstone_bsp//libucosii_bsp.a(socket2.o)
 .debug_line    0x000334cf      0x741 ../G4Capstone_bsp//libucosii_bsp.a(soselect.o)
 .debug_line    0x00033c10     0x1602 ../G4Capstone_bsp//libucosii_bsp.a(tcp_in.o)
 .debug_line    0x00035212      0xa6d ../G4Capstone_bsp//libucosii_bsp.a(tcp_out.o)
 .debug_line    0x00035c7f      0x7d7 ../G4Capstone_bsp//libucosii_bsp.a(tcp_subr.o)
 .debug_line    0x00036456      0x627 ../G4Capstone_bsp//libucosii_bsp.a(tcp_timr.o)
 .debug_line    0x00036a7d      0x8b6 ../G4Capstone_bsp//libucosii_bsp.a(tcp_usr.o)
 .debug_line    0x00037333      0x353 ../G4Capstone_bsp//libucosii_bsp.a(tcpport.o)
 .debug_line    0x00037686      0x96d ../G4Capstone_bsp//libucosii_bsp.a(udpsock.o)
 .debug_line    0x00037ff3      0x2f0 ../G4Capstone_bsp//libucosii_bsp.a(alt_alarm_start.o)
 .debug_line    0x000382e3      0x27a ../G4Capstone_bsp//libucosii_bsp.a(alt_busy_sleep.o)
 .debug_line    0x0003855d      0x30d ../G4Capstone_bsp//libucosii_bsp.a(alt_close.o)
 .debug_line    0x0003886a      0x2ce ../G4Capstone_bsp//libucosii_bsp.a(alt_dev.o)
 .debug_line    0x00038b38      0x26e ../G4Capstone_bsp//libucosii_bsp.a(alt_dev_llist_insert.o)
 .debug_line    0x00038da6       0x83 ../G4Capstone_bsp//libucosii_bsp.a(alt_do_ctors.o)
 .debug_line    0x00038e29       0x83 ../G4Capstone_bsp//libucosii_bsp.a(alt_do_dtors.o)
 .debug_line    0x00038eac      0x1be ../G4Capstone_bsp//libucosii_bsp.a(alt_errno.o)
 .debug_line    0x0003906a      0x2ee ../G4Capstone_bsp//libucosii_bsp.a(alt_find_dev.o)
 .debug_line    0x00039358      0x2ff ../G4Capstone_bsp//libucosii_bsp.a(alt_find_file.o)
 .debug_line    0x00039657      0x2b7 ../G4Capstone_bsp//libucosii_bsp.a(alt_fs_reg.o)
 .debug_line    0x0003990e      0x32f ../G4Capstone_bsp//libucosii_bsp.a(alt_get_fd.o)
 .debug_line    0x00039c3d      0x2dc ../G4Capstone_bsp//libucosii_bsp.a(alt_iic.o)
 .debug_line    0x00039f19      0x25d ../G4Capstone_bsp//libucosii_bsp.a(alt_iic_isr_register.o)
 .debug_line    0x0003a176      0x337 ../G4Capstone_bsp//libucosii_bsp.a(alt_io_redirect.o)
 .debug_line    0x0003a4ad       0x6b ../G4Capstone_bsp//libucosii_bsp.a(alt_irq_entry.o)
 .debug_line    0x0003a518      0x2d8 ../G4Capstone_bsp//libucosii_bsp.a(alt_irq_handler.o)
 .debug_line    0x0003a7f0      0x33c ../G4Capstone_bsp//libucosii_bsp.a(alt_read.o)
 .debug_line    0x0003ab2c      0x1cd ../G4Capstone_bsp//libucosii_bsp.a(alt_remap_cached.o)
 .debug_line    0x0003acf9      0x1d7 ../G4Capstone_bsp//libucosii_bsp.a(alt_remap_uncached.o)
 .debug_line    0x0003aed0      0x33d ../G4Capstone_bsp//libucosii_bsp.a(alt_write.o)
 .debug_line    0x0003b20d      0x1e2 ../G4Capstone_bsp//libucosii_bsp.a(altera_nios2_qsys_irq.o)
 .debug_line    0x0003b3ef       0x86 ../G4Capstone_bsp//libucosii_bsp.a(os_cpu_a.o)
 .debug_line    0x0003b475      0x344 ../G4Capstone_bsp//libucosii_bsp.a(os_cpu_c.o)
 .debug_line    0x0003b7b9      0x533 ../G4Capstone_bsp//libucosii_bsp.a(allports.o)
 .debug_line    0x0003bcec      0x497 ../G4Capstone_bsp//libucosii_bsp.a(timeouts.o)
 .debug_line    0x0003c183      0x384 ../G4Capstone_bsp//libucosii_bsp.a(tk_misc.o)
 .debug_line    0x0003c507      0x3a3 ../G4Capstone_bsp//libucosii_bsp.a(alt_iniche_fcntl.o)
 .debug_line    0x0003c8aa      0xcb6 ../G4Capstone_bsp//libucosii_bsp.a(et_arp.o)
 .debug_line    0x0003d560      0x48d ../G4Capstone_bsp//libucosii_bsp.a(iface.o)
 .debug_line    0x0003d9ed      0xfa9 ../G4Capstone_bsp//libucosii_bsp.a(ip.o)
 .debug_line    0x0003e996      0xf90 ../G4Capstone_bsp//libucosii_bsp.a(ip_reasm.o)
 .debug_line    0x0003f926      0x79a ../G4Capstone_bsp//libucosii_bsp.a(ipdemux.o)
 .debug_line    0x000400c0      0x47c ../G4Capstone_bsp//libucosii_bsp.a(ipmc.o)
 .debug_line    0x0004053c      0x34c ../G4Capstone_bsp//libucosii_bsp.a(ipport.o)
 .debug_line    0x00040888      0x5cd ../G4Capstone_bsp//libucosii_bsp.a(ipraw.o)
 .debug_line    0x00040e55      0x5cf ../G4Capstone_bsp//libucosii_bsp.a(iproute.o)
 .debug_line    0x00041424      0x80a ../G4Capstone_bsp//libucosii_bsp.a(udp.o)
 .debug_line    0x00041c2e      0x44e ../G4Capstone_bsp//libucosii_bsp.a(igmp.o)
 .debug_line    0x0004207c      0x641 ../G4Capstone_bsp//libucosii_bsp.a(igmp2.o)
 .debug_line    0x000426bd      0x725 ../G4Capstone_bsp//libucosii_bsp.a(ipopt.o)
 .debug_line    0x00042de2      0x60f ../G4Capstone_bsp//libucosii_bsp.a(u_mctest.o)
 .debug_line    0x000433f1      0x453 ../G4Capstone_bsp//libucosii_bsp.a(dhcsetup.o)
 .debug_line    0x00043844      0x45d ../G4Capstone_bsp//libucosii_bsp.a(memdev.o)
 .debug_line    0x00043ca1      0x661 ../G4Capstone_bsp//libucosii_bsp.a(parseip.o)
 .debug_line    0x00044302      0x3cd ../G4Capstone_bsp//libucosii_bsp.a(tcpcksum.o)
 .debug_line    0x000446cf      0x781 ../G4Capstone_bsp//libucosii_bsp.a(in_pcb.o)
 .debug_line    0x00044e50     0x100b ../G4Capstone_bsp//libucosii_bsp.a(vfsfiles.o)
 .debug_line    0x00045e5b      0x2d8 ../G4Capstone_bsp//libucosii_bsp.a(vfsport.o)
 .debug_line    0x00046133       0xab ../G4Capstone_bsp//libucosii_bsp.a(alt_exception_entry.o)
 .debug_line    0x000461de      0x36c ../G4Capstone_bsp//libucosii_bsp.a(alt_fcntl.o)
 .debug_line    0x0004654a      0x96c ../G4Capstone_bsp//libucosii_bsp.a(icmp.o)
 .debug_line    0x00046eb6      0x200 /OPT/altera/12.1/tools/nios2eds/bin/gnu/H-i686-pc-linux-gnu/bin/../lib/gcc/nios2-elf/4.1.2/../../../../nios2-elf/lib/libc.a(lib_a-atexit.o)
 .debug_line    0x000470b6      0x20c /OPT/altera/12.1/tools/nios2eds/bin/gnu/H-i686-pc-linux-gnu/bin/../lib/gcc/nios2-elf/4.1.2/../../../../nios2-elf/lib/libc.a(lib_a-calloc.o)
 .debug_line    0x000472c2      0x238 /OPT/altera/12.1/tools/nios2eds/bin/gnu/H-i686-pc-linux-gnu/bin/../lib/gcc/nios2-elf/4.1.2/../../../../nios2-elf/lib/libc.a(lib_a-exit.o)
 .debug_line    0x000474fa      0x2a4 /OPT/altera/12.1/tools/nios2eds/bin/gnu/H-i686-pc-linux-gnu/bin/../lib/gcc/nios2-elf/4.1.2/../../../../nios2-elf/lib/libc.a(lib_a-getc.o)
 .debug_line    0x0004779e      0x24b /OPT/altera/12.1/tools/nios2eds/bin/gnu/H-i686-pc-linux-gnu/bin/../lib/gcc/nios2-elf/4.1.2/../../../../nios2-elf/lib/libc.a(lib_a-malloc.o)
 .debug_line    0x000479e9      0x28d /OPT/altera/12.1/tools/nios2eds/bin/gnu/H-i686-pc-linux-gnu/bin/../lib/gcc/nios2-elf/4.1.2/../../../../nios2-elf/lib/libc.a(lib_a-rget.o)
 .debug_line    0x00047c76      0x26f /OPT/altera/12.1/tools/nios2eds/bin/gnu/H-i686-pc-linux-gnu/bin/../lib/gcc/nios2-elf/4.1.2/../../../../nios2-elf/lib/libc.a(lib_a-vprintf.o)
 .debug_line    0x00047ee5      0x2d9 /OPT/altera/12.1/tools/nios2eds/bin/gnu/H-i686-pc-linux-gnu/bin/../lib/gcc/nios2-elf/4.1.2/../../../../nios2-elf/lib/libc.a(lib_a-vsprintf.o)
 .debug_line    0x000481be      0x313 /OPT/altera/12.1/tools/nios2eds/bin/gnu/H-i686-pc-linux-gnu/bin/../lib/gcc/nios2-elf/4.1.2/../../../../nios2-elf/lib/libc.a(lib_a-__atexit.o)
 .debug_line    0x000484d1      0x367 /OPT/altera/12.1/tools/nios2eds/bin/gnu/H-i686-pc-linux-gnu/bin/../lib/gcc/nios2-elf/4.1.2/../../../../nios2-elf/lib/libc.a(lib_a-__call_atexit.o)
 .debug_line    0x00048838      0x28a ../G4Capstone_bsp//libucosii_bsp.a(alt_exit.o)

.debug_frame    0x00000000     0x6ca8
 *(.debug_frame)
 .debug_frame   0x00000000       0x2c obj/default/alt_error_handler.o
 .debug_frame   0x0000002c      0x198 obj/default/dm9000a.o
 .debug_frame   0x000001c4      0x2a0 obj/default/http.o
 .debug_frame   0x00000464       0xf0 obj/default/network_utilities.o
 .debug_frame   0x00000554       0x70 obj/default/srec_flash.o
 .debug_frame   0x000005c4       0x9c obj/default/web_server.o
 .debug_frame   0x00000660       0x70 /OPT/altera/12.1/tools/nios2eds/bin/gnu/H-i686-pc-linux-gnu/bin/../lib/gcc/nios2-elf/4.1.2/libgcc.a(lib2-divmod.o)
 .debug_frame   0x000006d0       0x30 /OPT/altera/12.1/tools/nios2eds/bin/gnu/H-i686-pc-linux-gnu/bin/../lib/gcc/nios2-elf/4.1.2/../../../../nios2-elf/lib/libc.a(lib_a-atoi.o)
 .debug_frame   0x00000700       0x3c /OPT/altera/12.1/tools/nios2eds/bin/gnu/H-i686-pc-linux-gnu/bin/../lib/gcc/nios2-elf/4.1.2/../../../../nios2-elf/lib/libc.a(lib_a-fclose.o)
 .debug_frame   0x0000073c       0x40 /OPT/altera/12.1/tools/nios2eds/bin/gnu/H-i686-pc-linux-gnu/bin/../lib/gcc/nios2-elf/4.1.2/../../../../nios2-elf/lib/libc.a(lib_a-fflush.o)
 .debug_frame   0x0000077c       0x38 /OPT/altera/12.1/tools/nios2eds/bin/gnu/H-i686-pc-linux-gnu/bin/../lib/gcc/nios2-elf/4.1.2/../../../../nios2-elf/lib/libc.a(lib_a-fgetpos.o)
 .debug_frame   0x000007b4      0x118 /OPT/altera/12.1/tools/nios2eds/bin/gnu/H-i686-pc-linux-gnu/bin/../lib/gcc/nios2-elf/4.1.2/../../../../nios2-elf/lib/libc.a(lib_a-findfp.o)
 .debug_frame   0x000008cc       0x40 /OPT/altera/12.1/tools/nios2eds/bin/gnu/H-i686-pc-linux-gnu/bin/../lib/gcc/nios2-elf/4.1.2/../../../../nios2-elf/lib/libc.a(lib_a-fopen.o)
 .debug_frame   0x0000090c       0x40 /OPT/altera/12.1/tools/nios2eds/bin/gnu/H-i686-pc-linux-gnu/bin/../lib/gcc/nios2-elf/4.1.2/../../../../nios2-elf/lib/libc.a(lib_a-fprintf.o)
 .debug_frame   0x0000094c       0x54 /OPT/altera/12.1/tools/nios2eds/bin/gnu/H-i686-pc-linux-gnu/bin/../lib/gcc/nios2-elf/4.1.2/../../../../nios2-elf/lib/libc.a(lib_a-fread.o)
 .debug_frame   0x000009a0       0x4c /OPT/altera/12.1/tools/nios2eds/bin/gnu/H-i686-pc-linux-gnu/bin/../lib/gcc/nios2-elf/4.1.2/../../../../nios2-elf/lib/libc.a(lib_a-freer.o)
 .debug_frame   0x000009ec       0x48 /OPT/altera/12.1/tools/nios2eds/bin/gnu/H-i686-pc-linux-gnu/bin/../lib/gcc/nios2-elf/4.1.2/../../../../nios2-elf/lib/libc.a(lib_a-fseek.o)
 .debug_frame   0x00000a34       0x2c /OPT/altera/12.1/tools/nios2eds/bin/gnu/H-i686-pc-linux-gnu/bin/../lib/gcc/nios2-elf/4.1.2/../../../../nios2-elf/lib/libc.a(lib_a-fstatr.o)
 .debug_frame   0x00000a60       0x3c /OPT/altera/12.1/tools/nios2eds/bin/gnu/H-i686-pc-linux-gnu/bin/../lib/gcc/nios2-elf/4.1.2/../../../../nios2-elf/lib/libc.a(lib_a-ftell.o)
 .debug_frame   0x00000a9c       0x60 /OPT/altera/12.1/tools/nios2eds/bin/gnu/H-i686-pc-linux-gnu/bin/../lib/gcc/nios2-elf/4.1.2/../../../../nios2-elf/lib/libc.a(lib_a-fwalk.o)
 .debug_frame   0x00000afc       0x48 /OPT/altera/12.1/tools/nios2eds/bin/gnu/H-i686-pc-linux-gnu/bin/../lib/gcc/nios2-elf/4.1.2/../../../../nios2-elf/lib/libc.a(lib_a-fwrite.o)
 .debug_frame   0x00000b44       0x2c /OPT/altera/12.1/tools/nios2eds/bin/gnu/H-i686-pc-linux-gnu/bin/../lib/gcc/nios2-elf/4.1.2/../../../../nios2-elf/lib/libc.a(lib_a-makebuf.o)
 .debug_frame   0x00000b70       0x38 /OPT/altera/12.1/tools/nios2eds/bin/gnu/H-i686-pc-linux-gnu/bin/../lib/gcc/nios2-elf/4.1.2/../../../../nios2-elf/lib/libc.a(lib_a-mallocr.o)
 .debug_frame   0x00000ba8       0x20 /OPT/altera/12.1/tools/nios2eds/bin/gnu/H-i686-pc-linux-gnu/bin/../lib/gcc/nios2-elf/4.1.2/../../../../nios2-elf/lib/libc.a(lib_a-memcpy.o)
 .debug_frame   0x00000bc8       0x20 /OPT/altera/12.1/tools/nios2eds/bin/gnu/H-i686-pc-linux-gnu/bin/../lib/gcc/nios2-elf/4.1.2/../../../../nios2-elf/lib/libc.a(lib_a-memmove.o)
 .debug_frame   0x00000be8       0x20 /OPT/altera/12.1/tools/nios2eds/bin/gnu/H-i686-pc-linux-gnu/bin/../lib/gcc/nios2-elf/4.1.2/../../../../nios2-elf/lib/libc.a(lib_a-memset.o)
 .debug_frame   0x00000c08       0x2c /OPT/altera/12.1/tools/nios2eds/bin/gnu/H-i686-pc-linux-gnu/bin/../lib/gcc/nios2-elf/4.1.2/../../../../nios2-elf/lib/libc.a(lib_a-openr.o)
 .debug_frame   0x00000c34       0x38 /OPT/altera/12.1/tools/nios2eds/bin/gnu/H-i686-pc-linux-gnu/bin/../lib/gcc/nios2-elf/4.1.2/../../../../nios2-elf/lib/libc.a(lib_a-perror.o)
 .debug_frame   0x00000c6c       0x40 /OPT/altera/12.1/tools/nios2eds/bin/gnu/H-i686-pc-linux-gnu/bin/../lib/gcc/nios2-elf/4.1.2/../../../../nios2-elf/lib/libc.a(lib_a-printf.o)
 .debug_frame   0x00000cac       0x3c /OPT/altera/12.1/tools/nios2eds/bin/gnu/H-i686-pc-linux-gnu/bin/../lib/gcc/nios2-elf/4.1.2/../../../../nios2-elf/lib/libc.a(lib_a-puts.o)
 .debug_frame   0x00000ce8       0x3c /OPT/altera/12.1/tools/nios2eds/bin/gnu/H-i686-pc-linux-gnu/bin/../lib/gcc/nios2-elf/4.1.2/../../../../nios2-elf/lib/libc.a(lib_a-refill.o)
 .debug_frame   0x00000d24       0x2c /OPT/altera/12.1/tools/nios2eds/bin/gnu/H-i686-pc-linux-gnu/bin/../lib/gcc/nios2-elf/4.1.2/../../../../nios2-elf/lib/libc.a(lib_a-sbrkr.o)
 .debug_frame   0x00000d50       0x40 /OPT/altera/12.1/tools/nios2eds/bin/gnu/H-i686-pc-linux-gnu/bin/../lib/gcc/nios2-elf/4.1.2/../../../../nios2-elf/lib/libc.a(lib_a-sprintf.o)
 .debug_frame   0x00000d90       0x54 /OPT/altera/12.1/tools/nios2eds/bin/gnu/H-i686-pc-linux-gnu/bin/../lib/gcc/nios2-elf/4.1.2/../../../../nios2-elf/lib/libc.a(lib_a-sscanf.o)
 .debug_frame   0x00000de4       0x78 /OPT/altera/12.1/tools/nios2eds/bin/gnu/H-i686-pc-linux-gnu/bin/../lib/gcc/nios2-elf/4.1.2/../../../../nios2-elf/lib/libc.a(lib_a-stdio.o)
 .debug_frame   0x00000e5c       0x20 /OPT/altera/12.1/tools/nios2eds/bin/gnu/H-i686-pc-linux-gnu/bin/../lib/gcc/nios2-elf/4.1.2/../../../../nios2-elf/lib/libc.a(lib_a-strcasecmp.o)
 .debug_frame   0x00000e7c       0x28 /OPT/altera/12.1/tools/nios2eds/bin/gnu/H-i686-pc-linux-gnu/bin/../lib/gcc/nios2-elf/4.1.2/../../../../nios2-elf/lib/libc.a(lib_a-strcat.o)
 .debug_frame   0x00000ea4       0x20 /OPT/altera/12.1/tools/nios2eds/bin/gnu/H-i686-pc-linux-gnu/bin/../lib/gcc/nios2-elf/4.1.2/../../../../nios2-elf/lib/libc.a(lib_a-strchr.o)
 .debug_frame   0x00000ec4       0x20 /OPT/altera/12.1/tools/nios2eds/bin/gnu/H-i686-pc-linux-gnu/bin/../lib/gcc/nios2-elf/4.1.2/../../../../nios2-elf/lib/libc.a(lib_a-strcmp.o)
 .debug_frame   0x00000ee4       0x20 /OPT/altera/12.1/tools/nios2eds/bin/gnu/H-i686-pc-linux-gnu/bin/../lib/gcc/nios2-elf/4.1.2/../../../../nios2-elf/lib/libc.a(lib_a-strcpy.o)
 .debug_frame   0x00000f04       0x28 /OPT/altera/12.1/tools/nios2eds/bin/gnu/H-i686-pc-linux-gnu/bin/../lib/gcc/nios2-elf/4.1.2/../../../../nios2-elf/lib/libc.a(lib_a-strerror.o)
 .debug_frame   0x00000f2c       0x20 /OPT/altera/12.1/tools/nios2eds/bin/gnu/H-i686-pc-linux-gnu/bin/../lib/gcc/nios2-elf/4.1.2/../../../../nios2-elf/lib/libc.a(lib_a-strlen.o)
 .debug_frame   0x00000f4c       0x20 /OPT/altera/12.1/tools/nios2eds/bin/gnu/H-i686-pc-linux-gnu/bin/../lib/gcc/nios2-elf/4.1.2/../../../../nios2-elf/lib/libc.a(lib_a-strncmp.o)
 .debug_frame   0x00000f6c       0x20 /OPT/altera/12.1/tools/nios2eds/bin/gnu/H-i686-pc-linux-gnu/bin/../lib/gcc/nios2-elf/4.1.2/../../../../nios2-elf/lib/libc.a(lib_a-strncpy.o)
 .debug_frame   0x00000f8c       0x4c /OPT/altera/12.1/tools/nios2eds/bin/gnu/H-i686-pc-linux-gnu/bin/../lib/gcc/nios2-elf/4.1.2/../../../../nios2-elf/lib/libc.a(lib_a-strstr.o)
 .debug_frame   0x00000fd8       0x20 /OPT/altera/12.1/tools/nios2eds/bin/gnu/H-i686-pc-linux-gnu/bin/../lib/gcc/nios2-elf/4.1.2/../../../../nios2-elf/lib/libc.a(lib_a-strtok.o)
 .debug_frame   0x00000ff8       0x30 /OPT/altera/12.1/tools/nios2eds/bin/gnu/H-i686-pc-linux-gnu/bin/../lib/gcc/nios2-elf/4.1.2/../../../../nios2-elf/lib/libc.a(lib_a-strtok_r.o)
 .debug_frame   0x00001028       0x4c /OPT/altera/12.1/tools/nios2eds/bin/gnu/H-i686-pc-linux-gnu/bin/../lib/gcc/nios2-elf/4.1.2/../../../../nios2-elf/lib/libc.a(lib_a-strtol.o)
 .debug_frame   0x00001074       0x20 /OPT/altera/12.1/tools/nios2eds/bin/gnu/H-i686-pc-linux-gnu/bin/../lib/gcc/nios2-elf/4.1.2/../../../../nios2-elf/lib/libc.a(lib_a-u_strerr.o)
 .debug_frame   0x00001094       0x64 /OPT/altera/12.1/tools/nios2eds/bin/gnu/H-i686-pc-linux-gnu/bin/../lib/gcc/nios2-elf/4.1.2/../../../../nios2-elf/lib/libc.a(lib_a-vfprintf.o)
 .debug_frame   0x000010f8       0x8c /OPT/altera/12.1/tools/nios2eds/bin/gnu/H-i686-pc-linux-gnu/bin/../lib/gcc/nios2-elf/4.1.2/../../../../nios2-elf/lib/libc.a(lib_a-vfscanf.o)
 .debug_frame   0x00001184       0x2c /OPT/altera/12.1/tools/nios2eds/bin/gnu/H-i686-pc-linux-gnu/bin/../lib/gcc/nios2-elf/4.1.2/../../../../nios2-elf/lib/libc.a(lib_a-writer.o)
 .debug_frame   0x000011b0       0x2c /OPT/altera/12.1/tools/nios2eds/bin/gnu/H-i686-pc-linux-gnu/bin/../lib/gcc/nios2-elf/4.1.2/../../../../nios2-elf/lib/libc.a(lib_a-wsetup.o)
 .debug_frame   0x000011dc       0x2c /OPT/altera/12.1/tools/nios2eds/bin/gnu/H-i686-pc-linux-gnu/bin/../lib/gcc/nios2-elf/4.1.2/../../../../nios2-elf/lib/libc.a(lib_a-closer.o)
 .debug_frame   0x00001208       0x64 /OPT/altera/12.1/tools/nios2eds/bin/gnu/H-i686-pc-linux-gnu/bin/../lib/gcc/nios2-elf/4.1.2/../../../../nios2-elf/lib/libc.a(lib_a-dtoa.o)
 .debug_frame   0x0000126c       0x20 /OPT/altera/12.1/tools/nios2eds/bin/gnu/H-i686-pc-linux-gnu/bin/../lib/gcc/nios2-elf/4.1.2/../../../../nios2-elf/lib/libc.a(lib_a-flags.o)
 .debug_frame   0x0000128c       0x4c /OPT/altera/12.1/tools/nios2eds/bin/gnu/H-i686-pc-linux-gnu/bin/../lib/gcc/nios2-elf/4.1.2/../../../../nios2-elf/lib/libc.a(lib_a-fputc.o)
 .debug_frame   0x000012d8       0x3c /OPT/altera/12.1/tools/nios2eds/bin/gnu/H-i686-pc-linux-gnu/bin/../lib/gcc/nios2-elf/4.1.2/../../../../nios2-elf/lib/libc.a(lib_a-fputs.o)
 .debug_frame   0x00001314       0x38 /OPT/altera/12.1/tools/nios2eds/bin/gnu/H-i686-pc-linux-gnu/bin/../lib/gcc/nios2-elf/4.1.2/../../../../nios2-elf/lib/libc.a(lib_a-fvwrite.o)
 .debug_frame   0x0000134c       0x2c /OPT/altera/12.1/tools/nios2eds/bin/gnu/H-i686-pc-linux-gnu/bin/../lib/gcc/nios2-elf/4.1.2/../../../../nios2-elf/lib/libc.a(lib_a-isattyr.o)
 .debug_frame   0x00001378       0x20 /OPT/altera/12.1/tools/nios2eds/bin/gnu/H-i686-pc-linux-gnu/bin/../lib/gcc/nios2-elf/4.1.2/../../../../nios2-elf/lib/libc.a(lib_a-iswspace.o)
 .debug_frame   0x00001398       0x70 /OPT/altera/12.1/tools/nios2eds/bin/gnu/H-i686-pc-linux-gnu/bin/../lib/gcc/nios2-elf/4.1.2/../../../../nios2-elf/lib/libc.a(lib_a-locale.o)
 .debug_frame   0x00001408       0x2c /OPT/altera/12.1/tools/nios2eds/bin/gnu/H-i686-pc-linux-gnu/bin/../lib/gcc/nios2-elf/4.1.2/../../../../nios2-elf/lib/libc.a(lib_a-lseekr.o)
 .debug_frame   0x00001434       0x44 /OPT/altera/12.1/tools/nios2eds/bin/gnu/H-i686-pc-linux-gnu/bin/../lib/gcc/nios2-elf/4.1.2/../../../../nios2-elf/lib/libc.a(lib_a-mbrtowc.o)
 .debug_frame   0x00001478       0x24 /OPT/altera/12.1/tools/nios2eds/bin/gnu/H-i686-pc-linux-gnu/bin/../lib/gcc/nios2-elf/4.1.2/../../../../nios2-elf/lib/libc.a(lib_a-mbtowc_r.o)
 .debug_frame   0x0000149c       0x20 /OPT/altera/12.1/tools/nios2eds/bin/gnu/H-i686-pc-linux-gnu/bin/../lib/gcc/nios2-elf/4.1.2/../../../../nios2-elf/lib/libc.a(lib_a-memchr.o)
 .debug_frame   0x000014bc       0x20 /OPT/altera/12.1/tools/nios2eds/bin/gnu/H-i686-pc-linux-gnu/bin/../lib/gcc/nios2-elf/4.1.2/../../../../nios2-elf/lib/libc.a(lib_a-memcmp.o)
 .debug_frame   0x000014dc      0x218 /OPT/altera/12.1/tools/nios2eds/bin/gnu/H-i686-pc-linux-gnu/bin/../lib/gcc/nios2-elf/4.1.2/../../../../nios2-elf/lib/libc.a(lib_a-mprec.o)
 .debug_frame   0x000016f4       0x4c /OPT/altera/12.1/tools/nios2eds/bin/gnu/H-i686-pc-linux-gnu/bin/../lib/gcc/nios2-elf/4.1.2/../../../../nios2-elf/lib/libc.a(lib_a-putc.o)
 .debug_frame   0x00001740       0x2c /OPT/altera/12.1/tools/nios2eds/bin/gnu/H-i686-pc-linux-gnu/bin/../lib/gcc/nios2-elf/4.1.2/../../../../nios2-elf/lib/libc.a(lib_a-readr.o)
 .debug_frame   0x0000176c       0x38 /OPT/altera/12.1/tools/nios2eds/bin/gnu/H-i686-pc-linux-gnu/bin/../lib/gcc/nios2-elf/4.1.2/../../../../nios2-elf/lib/libc.a(lib_a-reallocr.o)
 .debug_frame   0x000017a4       0x20 /OPT/altera/12.1/tools/nios2eds/bin/gnu/H-i686-pc-linux-gnu/bin/../lib/gcc/nios2-elf/4.1.2/../../../../nios2-elf/lib/libc.a(lib_a-s_isinfd.o)
 .debug_frame   0x000017c4       0x20 /OPT/altera/12.1/tools/nios2eds/bin/gnu/H-i686-pc-linux-gnu/bin/../lib/gcc/nios2-elf/4.1.2/../../../../nios2-elf/lib/libc.a(lib_a-s_isnand.o)
 .debug_frame   0x000017e4       0x20 /OPT/altera/12.1/tools/nios2eds/bin/gnu/H-i686-pc-linux-gnu/bin/../lib/gcc/nios2-elf/4.1.2/../../../../nios2-elf/lib/libc.a(lib_a-sccl.o)
 .debug_frame   0x00001804       0x20 /OPT/altera/12.1/tools/nios2eds/bin/gnu/H-i686-pc-linux-gnu/bin/../lib/gcc/nios2-elf/4.1.2/../../../../nios2-elf/lib/libc.a(lib_a-sf_nan.o)
 .debug_frame   0x00001824       0x80 /OPT/altera/12.1/tools/nios2eds/bin/gnu/H-i686-pc-linux-gnu/bin/../lib/gcc/nios2-elf/4.1.2/../../../../nios2-elf/lib/libc.a(lib_a-strtod.o)
 .debug_frame   0x000018a4       0x3c /OPT/altera/12.1/tools/nios2eds/bin/gnu/H-i686-pc-linux-gnu/bin/../lib/gcc/nios2-elf/4.1.2/../../../../nios2-elf/lib/libc.a(lib_a-strtoll_r.o)
 .debug_frame   0x000018e0       0x4c /OPT/altera/12.1/tools/nios2eds/bin/gnu/H-i686-pc-linux-gnu/bin/../lib/gcc/nios2-elf/4.1.2/../../../../nios2-elf/lib/libc.a(lib_a-strtoul.o)
 .debug_frame   0x0000192c       0x3c /OPT/altera/12.1/tools/nios2eds/bin/gnu/H-i686-pc-linux-gnu/bin/../lib/gcc/nios2-elf/4.1.2/../../../../nios2-elf/lib/libc.a(lib_a-strtoull_r.o)
 .debug_frame   0x00001968       0x60 /OPT/altera/12.1/tools/nios2eds/bin/gnu/H-i686-pc-linux-gnu/bin/../lib/gcc/nios2-elf/4.1.2/../../../../nios2-elf/lib/libc.a(lib_a-ungetc.o)
 .debug_frame   0x000019c8       0x3c /OPT/altera/12.1/tools/nios2eds/bin/gnu/H-i686-pc-linux-gnu/bin/../lib/gcc/nios2-elf/4.1.2/../../../../nios2-elf/lib/libc.a(lib_a-wbuf.o)
 .debug_frame   0x00001a04       0x28 /OPT/altera/12.1/tools/nios2eds/bin/gnu/H-i686-pc-linux-gnu/bin/../lib/gcc/nios2-elf/4.1.2/../../../../nios2-elf/lib/libc.a(lib_a-callocr.o)
 .debug_frame   0x00001a2c       0x74 /OPT/altera/12.1/tools/nios2eds/bin/gnu/H-i686-pc-linux-gnu/bin/../lib/gcc/nios2-elf/4.1.2/../../../../nios2-elf/lib/libc.a(lib_a-gdtoa-gethex.o)
 .debug_frame   0x00001aa0       0x4c /OPT/altera/12.1/tools/nios2eds/bin/gnu/H-i686-pc-linux-gnu/bin/../lib/gcc/nios2-elf/4.1.2/../../../../nios2-elf/lib/libc.a(lib_a-gdtoa-hexnan.o)
 .debug_frame   0x00001aec       0x2c /OPT/altera/12.1/tools/nios2eds/bin/gnu/H-i686-pc-linux-gnu/bin/../lib/gcc/nios2-elf/4.1.2/libgcc.a(_muldi3.o)
 .debug_frame   0x00001b18       0x30 /OPT/altera/12.1/tools/nios2eds/bin/gnu/H-i686-pc-linux-gnu/bin/../lib/gcc/nios2-elf/4.1.2/libgcc.a(_fixunsdfsi.o)
 .debug_frame   0x00001b48       0x38 /OPT/altera/12.1/tools/nios2eds/bin/gnu/H-i686-pc-linux-gnu/bin/../lib/gcc/nios2-elf/4.1.2/libgcc.a(_udivdi3.o)
 .debug_frame   0x00001b80       0x38 /OPT/altera/12.1/tools/nios2eds/bin/gnu/H-i686-pc-linux-gnu/bin/../lib/gcc/nios2-elf/4.1.2/libgcc.a(_umoddi3.o)
 .debug_frame   0x00001bb8       0x2c /OPT/altera/12.1/tools/nios2eds/bin/gnu/H-i686-pc-linux-gnu/bin/../lib/gcc/nios2-elf/4.1.2/libgcc.a(_ne_sf.o)
 .debug_frame   0x00001be4       0x2c /OPT/altera/12.1/tools/nios2eds/bin/gnu/H-i686-pc-linux-gnu/bin/../lib/gcc/nios2-elf/4.1.2/libgcc.a(_gt_sf.o)
 .debug_frame   0x00001c10       0x2c /OPT/altera/12.1/tools/nios2eds/bin/gnu/H-i686-pc-linux-gnu/bin/../lib/gcc/nios2-elf/4.1.2/libgcc.a(_lt_sf.o)
 .debug_frame   0x00001c3c       0x70 /OPT/altera/12.1/tools/nios2eds/bin/gnu/H-i686-pc-linux-gnu/bin/../lib/gcc/nios2-elf/4.1.2/libgcc.a(_addsub_df.o)
 .debug_frame   0x00001cac       0x3c /OPT/altera/12.1/tools/nios2eds/bin/gnu/H-i686-pc-linux-gnu/bin/../lib/gcc/nios2-elf/4.1.2/libgcc.a(_mul_df.o)
 .debug_frame   0x00001ce8       0x30 /OPT/altera/12.1/tools/nios2eds/bin/gnu/H-i686-pc-linux-gnu/bin/../lib/gcc/nios2-elf/4.1.2/libgcc.a(_div_df.o)
 .debug_frame   0x00001d18       0x2c /OPT/altera/12.1/tools/nios2eds/bin/gnu/H-i686-pc-linux-gnu/bin/../lib/gcc/nios2-elf/4.1.2/libgcc.a(_eq_df.o)
 .debug_frame   0x00001d44       0x2c /OPT/altera/12.1/tools/nios2eds/bin/gnu/H-i686-pc-linux-gnu/bin/../lib/gcc/nios2-elf/4.1.2/libgcc.a(_ne_df.o)
 .debug_frame   0x00001d70       0x2c /OPT/altera/12.1/tools/nios2eds/bin/gnu/H-i686-pc-linux-gnu/bin/../lib/gcc/nios2-elf/4.1.2/libgcc.a(_gt_df.o)
 .debug_frame   0x00001d9c       0x2c /OPT/altera/12.1/tools/nios2eds/bin/gnu/H-i686-pc-linux-gnu/bin/../lib/gcc/nios2-elf/4.1.2/libgcc.a(_ge_df.o)
 .debug_frame   0x00001dc8       0x2c /OPT/altera/12.1/tools/nios2eds/bin/gnu/H-i686-pc-linux-gnu/bin/../lib/gcc/nios2-elf/4.1.2/libgcc.a(_lt_df.o)
 .debug_frame   0x00001df4       0x2c /OPT/altera/12.1/tools/nios2eds/bin/gnu/H-i686-pc-linux-gnu/bin/../lib/gcc/nios2-elf/4.1.2/libgcc.a(_le_df.o)
 .debug_frame   0x00001e20       0x30 /OPT/altera/12.1/tools/nios2eds/bin/gnu/H-i686-pc-linux-gnu/bin/../lib/gcc/nios2-elf/4.1.2/libgcc.a(_si_to_df.o)
 .debug_frame   0x00001e50       0x28 /OPT/altera/12.1/tools/nios2eds/bin/gnu/H-i686-pc-linux-gnu/bin/../lib/gcc/nios2-elf/4.1.2/libgcc.a(_df_to_si.o)
 .debug_frame   0x00001e78       0x28 /OPT/altera/12.1/tools/nios2eds/bin/gnu/H-i686-pc-linux-gnu/bin/../lib/gcc/nios2-elf/4.1.2/libgcc.a(_df_to_sf.o)
 .debug_frame   0x00001ea0       0x38 /OPT/altera/12.1/tools/nios2eds/bin/gnu/H-i686-pc-linux-gnu/bin/../lib/gcc/nios2-elf/4.1.2/libgcc.a(_usi_to_df.o)
 .debug_frame   0x00001ed8       0x20 /OPT/altera/12.1/tools/nios2eds/bin/gnu/H-i686-pc-linux-gnu/bin/../lib/gcc/nios2-elf/4.1.2/libgcc.a(_clzsi2.o)
 .debug_frame   0x00001ef8       0x20 /OPT/altera/12.1/tools/nios2eds/bin/gnu/H-i686-pc-linux-gnu/bin/../lib/gcc/nios2-elf/4.1.2/libgcc.a(_unpack_sf.o)
 .debug_frame   0x00001f18       0x20 /OPT/altera/12.1/tools/nios2eds/bin/gnu/H-i686-pc-linux-gnu/bin/../lib/gcc/nios2-elf/4.1.2/libgcc.a(_fpcmp_parts_sf.o)
 .debug_frame   0x00001f38       0x28 /OPT/altera/12.1/tools/nios2eds/bin/gnu/H-i686-pc-linux-gnu/bin/../lib/gcc/nios2-elf/4.1.2/libgcc.a(_make_sf.o)
 .debug_frame   0x00001f60       0x2c /OPT/altera/12.1/tools/nios2eds/bin/gnu/H-i686-pc-linux-gnu/bin/../lib/gcc/nios2-elf/4.1.2/libgcc.a(_pack_df.o)
 .debug_frame   0x00001f8c       0x20 /OPT/altera/12.1/tools/nios2eds/bin/gnu/H-i686-pc-linux-gnu/bin/../lib/gcc/nios2-elf/4.1.2/libgcc.a(_unpack_df.o)
 .debug_frame   0x00001fac       0x20 /OPT/altera/12.1/tools/nios2eds/bin/gnu/H-i686-pc-linux-gnu/bin/../lib/gcc/nios2-elf/4.1.2/libgcc.a(_fpcmp_parts_df.o)
 .debug_frame   0x00001fcc       0x20 /OPT/altera/12.1/tools/nios2eds/bin/gnu/H-i686-pc-linux-gnu/bin/../lib/gcc/nios2-elf/4.1.2/libgcc.a(_pack_sf.o)
 .debug_frame   0x00001fec       0x2c ../G4Capstone_bsp//libucosii_bsp.a(alt_dcache_flush.o)
 .debug_frame   0x00002018       0x48 ../G4Capstone_bsp//libucosii_bsp.a(alt_flash_dev.o)
 .debug_frame   0x00002060       0x48 ../G4Capstone_bsp//libucosii_bsp.a(alt_fstat.o)
 .debug_frame   0x000020a8       0x2c ../G4Capstone_bsp//libucosii_bsp.a(alt_irq_register.o)
 .debug_frame   0x000020d4       0x48 ../G4Capstone_bsp//libucosii_bsp.a(alt_isatty.o)
 .debug_frame   0x0000211c       0x48 ../G4Capstone_bsp//libucosii_bsp.a(alt_lseek.o)
 .debug_frame   0x00002164       0x2c ../G4Capstone_bsp//libucosii_bsp.a(alt_main.o)
 .debug_frame   0x00002190       0x64 ../G4Capstone_bsp//libucosii_bsp.a(alt_open.o)
 .debug_frame   0x000021f4       0x2c ../G4Capstone_bsp//libucosii_bsp.a(alt_release_fd.o)
 .debug_frame   0x00002220       0x2c ../G4Capstone_bsp//libucosii_bsp.a(alt_sbrk.o)
 .debug_frame   0x0000224c       0x48 ../G4Capstone_bsp//libucosii_bsp.a(alt_tick.o)
 .debug_frame   0x00002294       0x30 ../G4Capstone_bsp//libucosii_bsp.a(alt_usleep.o)
 .debug_frame   0x000022c4       0x4c ../G4Capstone_bsp//libucosii_bsp.a(alt_env_lock.o)
 .debug_frame   0x00002310       0x4c ../G4Capstone_bsp//libucosii_bsp.a(alt_malloc_lock.o)
 .debug_frame   0x0000235c      0x3e4 ../G4Capstone_bsp//libucosii_bsp.a(os_core.o)
 .debug_frame   0x00002740       0x2c ../G4Capstone_bsp//libucosii_bsp.a(os_dbg.o)
 .debug_frame   0x0000276c      0x180 ../G4Capstone_bsp//libucosii_bsp.a(os_flag.o)
 .debug_frame   0x000028ec       0xf0 ../G4Capstone_bsp//libucosii_bsp.a(os_mbox.o)
 .debug_frame   0x000029dc       0xd4 ../G4Capstone_bsp//libucosii_bsp.a(os_mem.o)
 .debug_frame   0x00002ab0      0x144 ../G4Capstone_bsp//libucosii_bsp.a(os_q.o)
 .debug_frame   0x00002bf4       0xf0 ../G4Capstone_bsp//libucosii_bsp.a(os_sem.o)
 .debug_frame   0x00002ce4      0x160 ../G4Capstone_bsp//libucosii_bsp.a(os_task.o)
 .debug_frame   0x00002e44       0xa0 ../G4Capstone_bsp//libucosii_bsp.a(os_time.o)
 .debug_frame   0x00002ee4       0x64 ../G4Capstone_bsp//libucosii_bsp.a(alt_sys_init.o)
 .debug_frame   0x00002f48       0x80 ../G4Capstone_bsp//libucosii_bsp.a(altera_avalon_jtag_uart_fd.o)
 .debug_frame   0x00002fc8       0x80 ../G4Capstone_bsp//libucosii_bsp.a(altera_avalon_jtag_uart_init.o)
 .debug_frame   0x00003048       0x2c ../G4Capstone_bsp//libucosii_bsp.a(altera_avalon_jtag_uart_ioctl.o)
 .debug_frame   0x00003074       0x2c ../G4Capstone_bsp//libucosii_bsp.a(altera_avalon_jtag_uart_read.o)
 .debug_frame   0x000030a0       0x2c ../G4Capstone_bsp//libucosii_bsp.a(altera_avalon_jtag_uart_write.o)
 .debug_frame   0x000030cc       0x48 ../G4Capstone_bsp//libucosii_bsp.a(altera_avalon_timer_sc.o)
 .debug_frame   0x00003114      0x1b4 ../G4Capstone_bsp//libucosii_bsp.a(altera_ro_zipfs.o)
 .debug_frame   0x000032c8      0x1ec ../G4Capstone_bsp//libucosii_bsp.a(altera_up_avalon_audio_and_video_config.o)
 .debug_frame   0x000034b4      0x17c ../G4Capstone_bsp//libucosii_bsp.a(altera_up_avalon_character_lcd.o)
 .debug_frame   0x00003630       0x2c ../G4Capstone_bsp//libucosii_bsp.a(alt_iniche_close.o)
 .debug_frame   0x0000365c       0x2c ../G4Capstone_bsp//libucosii_bsp.a(alt_iniche_dev.o)
 .debug_frame   0x00003688       0x2c ../G4Capstone_bsp//libucosii_bsp.a(alt_iniche_read.o)
 .debug_frame   0x000036b4       0x2c ../G4Capstone_bsp//libucosii_bsp.a(alt_iniche_write.o)
 .debug_frame   0x000036e0       0xb8 ../G4Capstone_bsp//libucosii_bsp.a(ipnet.o)
 .debug_frame   0x00003798       0x80 ../G4Capstone_bsp//libucosii_bsp.a(ipstart.o)
 .debug_frame   0x00003818       0xf4 ../G4Capstone_bsp//libucosii_bsp.a(igmp_cmn.o)
 .debug_frame   0x0000390c      0x128 ../G4Capstone_bsp//libucosii_bsp.a(bsdsock.o)
 .debug_frame   0x00003a34       0x48 ../G4Capstone_bsp//libucosii_bsp.a(cksum.o)
 .debug_frame   0x00003a7c      0x164 ../G4Capstone_bsp//libucosii_bsp.a(in_utils.o)
 .debug_frame   0x00003be0       0x64 ../G4Capstone_bsp//libucosii_bsp.a(netmain.o)
 .debug_frame   0x00003c44       0xd4 ../G4Capstone_bsp//libucosii_bsp.a(tk_crnos.o)
 .debug_frame   0x00003d18      0x24c ../G4Capstone_bsp//libucosii_bsp.a(dhcpclnt.o)
 .debug_frame   0x00003f64       0x2c ../G4Capstone_bsp//libucosii_bsp.a(dhcputil.o)
 .debug_frame   0x00003f90       0xb8 ../G4Capstone_bsp//libucosii_bsp.a(pktalloc.o)
 .debug_frame   0x00004048       0x64 ../G4Capstone_bsp//libucosii_bsp.a(q.o)
 .debug_frame   0x000040ac       0x48 ../G4Capstone_bsp//libucosii_bsp.a(udp_open.o)
 .debug_frame   0x000040f4       0xf0 ../G4Capstone_bsp//libucosii_bsp.a(brdutils.o)
 .debug_frame   0x000041e4       0x9c ../G4Capstone_bsp//libucosii_bsp.a(osportco.o)
 .debug_frame   0x00004280      0x110 ../G4Capstone_bsp//libucosii_bsp.a(targnios.o)
 .debug_frame   0x00004390      0x208 ../G4Capstone_bsp//libucosii_bsp.a(nptcp.o)
 .debug_frame   0x00004598       0x68 ../G4Capstone_bsp//libucosii_bsp.a(rawsock.o)
 .debug_frame   0x00004600      0x224 ../G4Capstone_bsp//libucosii_bsp.a(sockcall.o)
 .debug_frame   0x00004824      0x1d0 ../G4Capstone_bsp//libucosii_bsp.a(socket.o)
 .debug_frame   0x000049f4      0x294 ../G4Capstone_bsp//libucosii_bsp.a(socket2.o)
 .debug_frame   0x00004c88      0x110 ../G4Capstone_bsp//libucosii_bsp.a(soselect.o)
 .debug_frame   0x00004d98       0xd8 ../G4Capstone_bsp//libucosii_bsp.a(tcp_in.o)
 .debug_frame   0x00004e70       0x68 ../G4Capstone_bsp//libucosii_bsp.a(tcp_out.o)
 .debug_frame   0x00004ed8      0x10c ../G4Capstone_bsp//libucosii_bsp.a(tcp_subr.o)
 .debug_frame   0x00004fe4       0x64 ../G4Capstone_bsp//libucosii_bsp.a(tcp_timr.o)
 .debug_frame   0x00005048       0x80 ../G4Capstone_bsp//libucosii_bsp.a(tcp_usr.o)
 .debug_frame   0x000050c8       0x2c ../G4Capstone_bsp//libucosii_bsp.a(tcpport.o)
 .debug_frame   0x000050f4       0xbc ../G4Capstone_bsp//libucosii_bsp.a(udpsock.o)
 .debug_frame   0x000051b0       0x2c ../G4Capstone_bsp//libucosii_bsp.a(alt_alarm_start.o)
 .debug_frame   0x000051dc       0x2c ../G4Capstone_bsp//libucosii_bsp.a(alt_busy_sleep.o)
 .debug_frame   0x00005208       0x48 ../G4Capstone_bsp//libucosii_bsp.a(alt_close.o)
 .debug_frame   0x00005250       0x2c ../G4Capstone_bsp//libucosii_bsp.a(alt_dev.o)
 .debug_frame   0x0000527c       0x48 ../G4Capstone_bsp//libucosii_bsp.a(alt_dev_llist_insert.o)
 .debug_frame   0x000052c4       0x2c ../G4Capstone_bsp//libucosii_bsp.a(alt_do_ctors.o)
 .debug_frame   0x000052f0       0x2c ../G4Capstone_bsp//libucosii_bsp.a(alt_do_dtors.o)
 .debug_frame   0x0000531c       0x2c ../G4Capstone_bsp//libucosii_bsp.a(alt_find_dev.o)
 .debug_frame   0x00005348       0x2c ../G4Capstone_bsp//libucosii_bsp.a(alt_find_file.o)
 .debug_frame   0x00005374       0x2c ../G4Capstone_bsp//libucosii_bsp.a(alt_fs_reg.o)
 .debug_frame   0x000053a0       0x2c ../G4Capstone_bsp//libucosii_bsp.a(alt_get_fd.o)
 .debug_frame   0x000053cc       0x80 ../G4Capstone_bsp//libucosii_bsp.a(alt_iic.o)
 .debug_frame   0x0000544c       0x2c ../G4Capstone_bsp//libucosii_bsp.a(alt_iic_isr_register.o)
 .debug_frame   0x00005478       0x48 ../G4Capstone_bsp//libucosii_bsp.a(alt_io_redirect.o)
 .debug_frame   0x000054c0       0x2c ../G4Capstone_bsp//libucosii_bsp.a(alt_irq_handler.o)
 .debug_frame   0x000054ec       0x48 ../G4Capstone_bsp//libucosii_bsp.a(alt_read.o)
 .debug_frame   0x00005534       0x2c ../G4Capstone_bsp//libucosii_bsp.a(alt_remap_cached.o)
 .debug_frame   0x00005560       0x2c ../G4Capstone_bsp//libucosii_bsp.a(alt_remap_uncached.o)
 .debug_frame   0x0000558c       0x48 ../G4Capstone_bsp//libucosii_bsp.a(alt_write.o)
 .debug_frame   0x000055d4       0x2c ../G4Capstone_bsp//libucosii_bsp.a(altera_nios2_qsys_irq.o)
 .debug_frame   0x00005600      0x128 ../G4Capstone_bsp//libucosii_bsp.a(os_cpu_c.o)
 .debug_frame   0x00005728       0xe0 ../G4Capstone_bsp//libucosii_bsp.a(allports.o)
 .debug_frame   0x00005808       0x84 ../G4Capstone_bsp//libucosii_bsp.a(timeouts.o)
 .debug_frame   0x0000588c       0x48 ../G4Capstone_bsp//libucosii_bsp.a(tk_misc.o)
 .debug_frame   0x000058d4       0x2c ../G4Capstone_bsp//libucosii_bsp.a(alt_iniche_fcntl.o)
 .debug_frame   0x00005900      0x160 ../G4Capstone_bsp//libucosii_bsp.a(et_arp.o)
 .debug_frame   0x00005a60       0x80 ../G4Capstone_bsp//libucosii_bsp.a(iface.o)
 .debug_frame   0x00005ae0      0x160 ../G4Capstone_bsp//libucosii_bsp.a(ip.o)
 .debug_frame   0x00005c40      0x1d4 ../G4Capstone_bsp//libucosii_bsp.a(ip_reasm.o)
 .debug_frame   0x00005e14       0x68 ../G4Capstone_bsp//libucosii_bsp.a(ipdemux.o)
 .debug_frame   0x00005e7c       0x64 ../G4Capstone_bsp//libucosii_bsp.a(ipmc.o)
 .debug_frame   0x00005ee0       0x64 ../G4Capstone_bsp//libucosii_bsp.a(ipport.o)
 .debug_frame   0x00005f44       0xb8 ../G4Capstone_bsp//libucosii_bsp.a(ipraw.o)
 .debug_frame   0x00005ffc       0x64 ../G4Capstone_bsp//libucosii_bsp.a(iproute.o)
 .debug_frame   0x00006060       0xd4 ../G4Capstone_bsp//libucosii_bsp.a(udp.o)
 .debug_frame   0x00006134       0x2c ../G4Capstone_bsp//libucosii_bsp.a(igmp.o)
 .debug_frame   0x00006160       0x9c ../G4Capstone_bsp//libucosii_bsp.a(igmp2.o)
 .debug_frame   0x000061fc       0x84 ../G4Capstone_bsp//libucosii_bsp.a(ipopt.o)
 .debug_frame   0x00006280       0x4c ../G4Capstone_bsp//libucosii_bsp.a(u_mctest.o)
 .debug_frame   0x000062cc       0x48 ../G4Capstone_bsp//libucosii_bsp.a(dhcsetup.o)
 .debug_frame   0x00006314      0x10c ../G4Capstone_bsp//libucosii_bsp.a(memdev.o)
 .debug_frame   0x00006420      0x10c ../G4Capstone_bsp//libucosii_bsp.a(parseip.o)
 .debug_frame   0x0000652c       0x2c ../G4Capstone_bsp//libucosii_bsp.a(tcpcksum.o)
 .debug_frame   0x00006558       0xf0 ../G4Capstone_bsp//libucosii_bsp.a(in_pcb.o)
 .debug_frame   0x00006648      0x320 ../G4Capstone_bsp//libucosii_bsp.a(vfsfiles.o)
 .debug_frame   0x00006968       0x2c ../G4Capstone_bsp//libucosii_bsp.a(vfsport.o)
 .debug_frame   0x00006994       0x48 ../G4Capstone_bsp//libucosii_bsp.a(alt_fcntl.o)
 .debug_frame   0x000069dc       0x84 ../G4Capstone_bsp//libucosii_bsp.a(icmp.o)
 .debug_frame   0x00006a60       0x20 /OPT/altera/12.1/tools/nios2eds/bin/gnu/H-i686-pc-linux-gnu/bin/../lib/gcc/nios2-elf/4.1.2/../../../../nios2-elf/lib/libc.a(lib_a-atexit.o)
 .debug_frame   0x00006a80       0x20 /OPT/altera/12.1/tools/nios2eds/bin/gnu/H-i686-pc-linux-gnu/bin/../lib/gcc/nios2-elf/4.1.2/../../../../nios2-elf/lib/libc.a(lib_a-calloc.o)
 .debug_frame   0x00006aa0       0x28 /OPT/altera/12.1/tools/nios2eds/bin/gnu/H-i686-pc-linux-gnu/bin/../lib/gcc/nios2-elf/4.1.2/../../../../nios2-elf/lib/libc.a(lib_a-exit.o)
 .debug_frame   0x00006ac8       0x48 /OPT/altera/12.1/tools/nios2eds/bin/gnu/H-i686-pc-linux-gnu/bin/../lib/gcc/nios2-elf/4.1.2/../../../../nios2-elf/lib/libc.a(lib_a-getc.o)
 .debug_frame   0x00006b10       0x30 /OPT/altera/12.1/tools/nios2eds/bin/gnu/H-i686-pc-linux-gnu/bin/../lib/gcc/nios2-elf/4.1.2/../../../../nios2-elf/lib/libc.a(lib_a-malloc.o)
 .debug_frame   0x00006b40       0x38 /OPT/altera/12.1/tools/nios2eds/bin/gnu/H-i686-pc-linux-gnu/bin/../lib/gcc/nios2-elf/4.1.2/../../../../nios2-elf/lib/libc.a(lib_a-rget.o)
 .debug_frame   0x00006b78       0x30 /OPT/altera/12.1/tools/nios2eds/bin/gnu/H-i686-pc-linux-gnu/bin/../lib/gcc/nios2-elf/4.1.2/../../../../nios2-elf/lib/libc.a(lib_a-vprintf.o)
 .debug_frame   0x00006ba8       0x38 /OPT/altera/12.1/tools/nios2eds/bin/gnu/H-i686-pc-linux-gnu/bin/../lib/gcc/nios2-elf/4.1.2/../../../../nios2-elf/lib/libc.a(lib_a-vsprintf.o)
 .debug_frame   0x00006be0       0x34 /OPT/altera/12.1/tools/nios2eds/bin/gnu/H-i686-pc-linux-gnu/bin/../lib/gcc/nios2-elf/4.1.2/../../../../nios2-elf/lib/libc.a(lib_a-__atexit.o)
 .debug_frame   0x00006c14       0x4c /OPT/altera/12.1/tools/nios2eds/bin/gnu/H-i686-pc-linux-gnu/bin/../lib/gcc/nios2-elf/4.1.2/../../../../nios2-elf/lib/libc.a(lib_a-__call_atexit.o)
 .debug_frame   0x00006c60       0x48 ../G4Capstone_bsp//libucosii_bsp.a(alt_exit.o)

.debug_str      0x00000000     0x3f6d
 *(.debug_str)
 .debug_str     0x00000000       0x20 obj/default/alt_error_handler.o
 .debug_str     0x00000020       0x33 obj/default/dm9000a.o
 .debug_str     0x00000053       0xaf obj/default/http.o
 .debug_str     0x00000102       0x4e obj/default/network_utilities.o
 .debug_str     0x00000150       0x6f obj/default/srec_flash.o
 .debug_str     0x000001bf       0x4b obj/default/web_server.o
 .debug_str     0x0000020a      0x16c /OPT/altera/12.1/tools/nios2eds/bin/gnu/H-i686-pc-linux-gnu/bin/../lib/gcc/nios2-elf/4.1.2/libgcc.a(lib2-divmod.o)
                                0x1b9 (size before relaxing)
 .debug_str     0x00000376      0x438 /OPT/altera/12.1/tools/nios2eds/bin/gnu/H-i686-pc-linux-gnu/bin/../lib/gcc/nios2-elf/4.1.2/../../../../nios2-elf/lib/libc.a(lib_a-atoi.o)
                                0x501 (size before relaxing)
 .debug_str     0x000007ae       0xe7 /OPT/altera/12.1/tools/nios2eds/bin/gnu/H-i686-pc-linux-gnu/bin/../lib/gcc/nios2-elf/4.1.2/../../../../nios2-elf/lib/libc.a(lib_a-ctype_.o)
                                0x10a (size before relaxing)
 .debug_str     0x00000895       0xe0 /OPT/altera/12.1/tools/nios2eds/bin/gnu/H-i686-pc-linux-gnu/bin/../lib/gcc/nios2-elf/4.1.2/../../../../nios2-elf/lib/libc.a(lib_a-fclose.o)
                                0x51b (size before relaxing)
 .debug_str     0x00000975       0x65 /OPT/altera/12.1/tools/nios2eds/bin/gnu/H-i686-pc-linux-gnu/bin/../lib/gcc/nios2-elf/4.1.2/../../../../nios2-elf/lib/libc.a(lib_a-fflush.o)
                                0x537 (size before relaxing)
 .debug_str     0x000009da       0x4e /OPT/altera/12.1/tools/nios2eds/bin/gnu/H-i686-pc-linux-gnu/bin/../lib/gcc/nios2-elf/4.1.2/../../../../nios2-elf/lib/libc.a(lib_a-fgetpos.o)
                                0x519 (size before relaxing)
 .debug_str     0x00000a28      0x102 /OPT/altera/12.1/tools/nios2eds/bin/gnu/H-i686-pc-linux-gnu/bin/../lib/gcc/nios2-elf/4.1.2/../../../../nios2-elf/lib/libc.a(lib_a-findfp.o)
                                0x5f9 (size before relaxing)
 .debug_str     0x00000b2a       0x4f /OPT/altera/12.1/tools/nios2eds/bin/gnu/H-i686-pc-linux-gnu/bin/../lib/gcc/nios2-elf/4.1.2/../../../../nios2-elf/lib/libc.a(lib_a-fopen.o)
                                0x52a (size before relaxing)
 .debug_str     0x00000b79       0x5d /OPT/altera/12.1/tools/nios2eds/bin/gnu/H-i686-pc-linux-gnu/bin/../lib/gcc/nios2-elf/4.1.2/../../../../nios2-elf/lib/libc.a(lib_a-fprintf.o)
                                0x524 (size before relaxing)
 .debug_str     0x00000bd6       0x6a /OPT/altera/12.1/tools/nios2eds/bin/gnu/H-i686-pc-linux-gnu/bin/../lib/gcc/nios2-elf/4.1.2/../../../../nios2-elf/lib/libc.a(lib_a-fread.o)
                                0x553 (size before relaxing)
 .debug_str     0x00000c40      0x15b /OPT/altera/12.1/tools/nios2eds/bin/gnu/H-i686-pc-linux-gnu/bin/../lib/gcc/nios2-elf/4.1.2/../../../../nios2-elf/lib/libc.a(lib_a-freer.o)
                                0x648 (size before relaxing)
 .debug_str     0x00000d9b      0x13a /OPT/altera/12.1/tools/nios2eds/bin/gnu/H-i686-pc-linux-gnu/bin/../lib/gcc/nios2-elf/4.1.2/../../../../nios2-elf/lib/libc.a(lib_a-fseek.o)
                                0x637 (size before relaxing)
 .debug_str     0x00000ed5       0xd9 /OPT/altera/12.1/tools/nios2eds/bin/gnu/H-i686-pc-linux-gnu/bin/../lib/gcc/nios2-elf/4.1.2/../../../../nios2-elf/lib/libc.a(lib_a-fstatr.o)
                                0x5f6 (size before relaxing)
 .debug_str     0x00000fae       0x48 /OPT/altera/12.1/tools/nios2eds/bin/gnu/H-i686-pc-linux-gnu/bin/../lib/gcc/nios2-elf/4.1.2/../../../../nios2-elf/lib/libc.a(lib_a-ftell.o)
                                0x513 (size before relaxing)
 .debug_str     0x00000ff6       0x5e /OPT/altera/12.1/tools/nios2eds/bin/gnu/H-i686-pc-linux-gnu/bin/../lib/gcc/nios2-elf/4.1.2/../../../../nios2-elf/lib/libc.a(lib_a-fwalk.o)
                                0x53a (size before relaxing)
 .debug_str     0x00001054       0x87 /OPT/altera/12.1/tools/nios2eds/bin/gnu/H-i686-pc-linux-gnu/bin/../lib/gcc/nios2-elf/4.1.2/../../../../nios2-elf/lib/libc.a(lib_a-fwrite.o)
                                0x564 (size before relaxing)
 .debug_str     0x000010db       0x46 /OPT/altera/12.1/tools/nios2eds/bin/gnu/H-i686-pc-linux-gnu/bin/../lib/gcc/nios2-elf/4.1.2/../../../../nios2-elf/lib/libc.a(lib_a-impure.o)
                                0x51f (size before relaxing)
 .debug_str     0x00001121       0x3d /OPT/altera/12.1/tools/nios2eds/bin/gnu/H-i686-pc-linux-gnu/bin/../lib/gcc/nios2-elf/4.1.2/../../../../nios2-elf/lib/libc.a(lib_a-int_errno.o)
                                0x168 (size before relaxing)
 .debug_str     0x0000115e       0x53 /OPT/altera/12.1/tools/nios2eds/bin/gnu/H-i686-pc-linux-gnu/bin/../lib/gcc/nios2-elf/4.1.2/../../../../nios2-elf/lib/libc.a(lib_a-makebuf.o)
                                0x60b (size before relaxing)
 .debug_str     0x000011b1       0xe9 /OPT/altera/12.1/tools/nios2eds/bin/gnu/H-i686-pc-linux-gnu/bin/../lib/gcc/nios2-elf/4.1.2/../../../../nios2-elf/lib/libc.a(lib_a-mallocr.o)
                                0x6f6 (size before relaxing)
 .debug_str     0x0000129a       0xfa /OPT/altera/12.1/tools/nios2eds/bin/gnu/H-i686-pc-linux-gnu/bin/../lib/gcc/nios2-elf/4.1.2/../../../../nios2-elf/lib/libc.a(lib_a-memcpy.o)
                                0x12d (size before relaxing)
 .debug_str     0x00001394       0x5d /OPT/altera/12.1/tools/nios2eds/bin/gnu/H-i686-pc-linux-gnu/bin/../lib/gcc/nios2-elf/4.1.2/../../../../nios2-elf/lib/libc.a(lib_a-memmove.o)
                                0x1a2 (size before relaxing)
 .debug_str     0x000013f1       0x56 /OPT/altera/12.1/tools/nios2eds/bin/gnu/H-i686-pc-linux-gnu/bin/../lib/gcc/nios2-elf/4.1.2/../../../../nios2-elf/lib/libc.a(lib_a-memset.o)
                                0x183 (size before relaxing)
 .debug_str     0x00001447       0x41 /OPT/altera/12.1/tools/nios2eds/bin/gnu/H-i686-pc-linux-gnu/bin/../lib/gcc/nios2-elf/4.1.2/../../../../nios2-elf/lib/libc.a(lib_a-openr.o)
                                0x511 (size before relaxing)
 .debug_str     0x00001488       0x4b /OPT/altera/12.1/tools/nios2eds/bin/gnu/H-i686-pc-linux-gnu/bin/../lib/gcc/nios2-elf/4.1.2/../../../../nios2-elf/lib/libc.a(lib_a-perror.o)
                                0x517 (size before relaxing)
 .debug_str     0x000014d3       0x44 /OPT/altera/12.1/tools/nios2eds/bin/gnu/H-i686-pc-linux-gnu/bin/../lib/gcc/nios2-elf/4.1.2/../../../../nios2-elf/lib/libc.a(lib_a-printf.o)
                                0x528 (size before relaxing)
 .debug_str     0x00001517       0x40 /OPT/altera/12.1/tools/nios2eds/bin/gnu/H-i686-pc-linux-gnu/bin/../lib/gcc/nios2-elf/4.1.2/../../../../nios2-elf/lib/libc.a(lib_a-puts.o)
                                0x54e (size before relaxing)
 .debug_str     0x00001557       0x4d /OPT/altera/12.1/tools/nios2eds/bin/gnu/H-i686-pc-linux-gnu/bin/../lib/gcc/nios2-elf/4.1.2/../../../../nios2-elf/lib/libc.a(lib_a-refill.o)
                                0x51f (size before relaxing)
 .debug_str     0x000015a4       0x50 /OPT/altera/12.1/tools/nios2eds/bin/gnu/H-i686-pc-linux-gnu/bin/../lib/gcc/nios2-elf/4.1.2/../../../../nios2-elf/lib/libc.a(lib_a-sbrkr.o)
                                0x510 (size before relaxing)
 .debug_str     0x000015f4       0x46 /OPT/altera/12.1/tools/nios2eds/bin/gnu/H-i686-pc-linux-gnu/bin/../lib/gcc/nios2-elf/4.1.2/../../../../nios2-elf/lib/libc.a(lib_a-sprintf.o)
                                0x530 (size before relaxing)
 .debug_str     0x0000163a       0x53 /OPT/altera/12.1/tools/nios2eds/bin/gnu/H-i686-pc-linux-gnu/bin/../lib/gcc/nios2-elf/4.1.2/../../../../nios2-elf/lib/libc.a(lib_a-sscanf.o)
                                0x53c (size before relaxing)
 .debug_str     0x0000168d       0x5b /OPT/altera/12.1/tools/nios2eds/bin/gnu/H-i686-pc-linux-gnu/bin/../lib/gcc/nios2-elf/4.1.2/../../../../nios2-elf/lib/libc.a(lib_a-stdio.o)
                                0x536 (size before relaxing)
 .debug_str     0x000016e8       0x4a /OPT/altera/12.1/tools/nios2eds/bin/gnu/H-i686-pc-linux-gnu/bin/../lib/gcc/nios2-elf/4.1.2/../../../../nios2-elf/lib/libc.a(lib_a-strcasecmp.o)
                                0x17c (size before relaxing)
 .debug_str     0x00001732       0x4d /OPT/altera/12.1/tools/nios2eds/bin/gnu/H-i686-pc-linux-gnu/bin/../lib/gcc/nios2-elf/4.1.2/../../../../nios2-elf/lib/libc.a(lib_a-strcat.o)
                                0x173 (size before relaxing)
 .debug_str     0x0000177f       0x47 /OPT/altera/12.1/tools/nios2eds/bin/gnu/H-i686-pc-linux-gnu/bin/../lib/gcc/nios2-elf/4.1.2/../../../../nios2-elf/lib/libc.a(lib_a-strchr.o)
                                0x17a (size before relaxing)
 .debug_str     0x000017c6       0x42 /OPT/altera/12.1/tools/nios2eds/bin/gnu/H-i686-pc-linux-gnu/bin/../lib/gcc/nios2-elf/4.1.2/../../../../nios2-elf/lib/libc.a(lib_a-strcmp.o)
                                0x168 (size before relaxing)
 .debug_str     0x00001808       0x42 /OPT/altera/12.1/tools/nios2eds/bin/gnu/H-i686-pc-linux-gnu/bin/../lib/gcc/nios2-elf/4.1.2/../../../../nios2-elf/lib/libc.a(lib_a-strcpy.o)
                                0x18a (size before relaxing)
 .debug_str     0x0000184a       0x44 /OPT/altera/12.1/tools/nios2eds/bin/gnu/H-i686-pc-linux-gnu/bin/../lib/gcc/nios2-elf/4.1.2/../../../../nios2-elf/lib/libc.a(lib_a-strerror.o)
                                0x179 (size before relaxing)
 .debug_str     0x0000188e       0x42 /OPT/altera/12.1/tools/nios2eds/bin/gnu/H-i686-pc-linux-gnu/bin/../lib/gcc/nios2-elf/4.1.2/../../../../nios2-elf/lib/libc.a(lib_a-strlen.o)
                                0x182 (size before relaxing)
 .debug_str     0x000018d0       0x44 /OPT/altera/12.1/tools/nios2eds/bin/gnu/H-i686-pc-linux-gnu/bin/../lib/gcc/nios2-elf/4.1.2/../../../../nios2-elf/lib/libc.a(lib_a-strncmp.o)
                                0x171 (size before relaxing)
 .debug_str     0x00001914       0x44 /OPT/altera/12.1/tools/nios2eds/bin/gnu/H-i686-pc-linux-gnu/bin/../lib/gcc/nios2-elf/4.1.2/../../../../nios2-elf/lib/libc.a(lib_a-strncpy.o)
                                0x199 (size before relaxing)
 .debug_str     0x00001958       0xe8 /OPT/altera/12.1/tools/nios2eds/bin/gnu/H-i686-pc-linux-gnu/bin/../lib/gcc/nios2-elf/4.1.2/../../../../nios2-elf/lib/libc.a(lib_a-strstr.o)
                                0x229 (size before relaxing)
 .debug_str     0x00001a40       0x42 /OPT/altera/12.1/tools/nios2eds/bin/gnu/H-i686-pc-linux-gnu/bin/../lib/gcc/nios2-elf/4.1.2/../../../../nios2-elf/lib/libc.a(lib_a-strtok.o)
                                0x50f (size before relaxing)
 .debug_str     0x00001a82       0x6c /OPT/altera/12.1/tools/nios2eds/bin/gnu/H-i686-pc-linux-gnu/bin/../lib/gcc/nios2-elf/4.1.2/../../../../nios2-elf/lib/libc.a(lib_a-strtok_r.o)
                                0x1a1 (size before relaxing)
 .debug_str     0x00001aee       0x61 /OPT/altera/12.1/tools/nios2eds/bin/gnu/H-i686-pc-linux-gnu/bin/../lib/gcc/nios2-elf/4.1.2/../../../../nios2-elf/lib/libc.a(lib_a-strtol.o)
                                0x543 (size before relaxing)
 .debug_str     0x00001b4f       0x4c /OPT/altera/12.1/tools/nios2eds/bin/gnu/H-i686-pc-linux-gnu/bin/../lib/gcc/nios2-elf/4.1.2/../../../../nios2-elf/lib/libc.a(lib_a-u_strerr.o)
                                 0xf5 (size before relaxing)
 .debug_str     0x00001b9b      0x167 /OPT/altera/12.1/tools/nios2eds/bin/gnu/H-i686-pc-linux-gnu/bin/../lib/gcc/nios2-elf/4.1.2/../../../../nios2-elf/lib/libc.a(lib_a-vfprintf.o)
                                0x6fd (size before relaxing)
 .debug_str     0x00001d02      0x144 /OPT/altera/12.1/tools/nios2eds/bin/gnu/H-i686-pc-linux-gnu/bin/../lib/gcc/nios2-elf/4.1.2/../../../../nios2-elf/lib/libc.a(lib_a-vfscanf.o)
                                0x696 (size before relaxing)
 .debug_str     0x00001e46       0x4c /OPT/altera/12.1/tools/nios2eds/bin/gnu/H-i686-pc-linux-gnu/bin/../lib/gcc/nios2-elf/4.1.2/../../../../nios2-elf/lib/libc.a(lib_a-writer.o)
                                0x513 (size before relaxing)
 .debug_str     0x00001e92       0x46 /OPT/altera/12.1/tools/nios2eds/bin/gnu/H-i686-pc-linux-gnu/bin/../lib/gcc/nios2-elf/4.1.2/../../../../nios2-elf/lib/libc.a(lib_a-wsetup.o)
                                0x511 (size before relaxing)
 .debug_str     0x00001ed8       0x43 /OPT/altera/12.1/tools/nios2eds/bin/gnu/H-i686-pc-linux-gnu/bin/../lib/gcc/nios2-elf/4.1.2/../../../../nios2-elf/lib/libc.a(lib_a-closer.o)
                                0x503 (size before relaxing)
 .debug_str     0x00001f1b       0xfc /OPT/altera/12.1/tools/nios2eds/bin/gnu/H-i686-pc-linux-gnu/bin/../lib/gcc/nios2-elf/4.1.2/../../../../nios2-elf/lib/libc.a(lib_a-dtoa.o)
                                0x606 (size before relaxing)
 .debug_str     0x00002017       0x47 /OPT/altera/12.1/tools/nios2eds/bin/gnu/H-i686-pc-linux-gnu/bin/../lib/gcc/nios2-elf/4.1.2/../../../../nios2-elf/lib/libc.a(lib_a-flags.o)
                                0x506 (size before relaxing)
 .debug_str     0x0000205e       0x48 /OPT/altera/12.1/tools/nios2eds/bin/gnu/H-i686-pc-linux-gnu/bin/../lib/gcc/nios2-elf/4.1.2/../../../../nios2-elf/lib/libc.a(lib_a-fputc.o)
                                0x51f (size before relaxing)
 .debug_str     0x000020a6       0x48 /OPT/altera/12.1/tools/nios2eds/bin/gnu/H-i686-pc-linux-gnu/bin/../lib/gcc/nios2-elf/4.1.2/../../../../nios2-elf/lib/libc.a(lib_a-fputs.o)
                                0x55d (size before relaxing)
 .debug_str     0x000020ee       0x66 /OPT/altera/12.1/tools/nios2eds/bin/gnu/H-i686-pc-linux-gnu/bin/../lib/gcc/nios2-elf/4.1.2/../../../../nios2-elf/lib/libc.a(lib_a-fvwrite.o)
                                0x568 (size before relaxing)
 .debug_str     0x00002154       0x45 /OPT/altera/12.1/tools/nios2eds/bin/gnu/H-i686-pc-linux-gnu/bin/../lib/gcc/nios2-elf/4.1.2/../../../../nios2-elf/lib/libc.a(lib_a-isattyr.o)
                                0x505 (size before relaxing)
 .debug_str     0x00002199       0x58 /OPT/altera/12.1/tools/nios2eds/bin/gnu/H-i686-pc-linux-gnu/bin/../lib/gcc/nios2-elf/4.1.2/../../../../nios2-elf/lib/libc.a(lib_a-iswspace.o)
                                0x190 (size before relaxing)
 .debug_str     0x000021f1      0x212 /OPT/altera/12.1/tools/nios2eds/bin/gnu/H-i686-pc-linux-gnu/bin/../lib/gcc/nios2-elf/4.1.2/../../../../nios2-elf/lib/libc.a(lib_a-locale.o)
                                0x6ae (size before relaxing)
 .debug_str     0x00002403       0x43 /OPT/altera/12.1/tools/nios2eds/bin/gnu/H-i686-pc-linux-gnu/bin/../lib/gcc/nios2-elf/4.1.2/../../../../nios2-elf/lib/libc.a(lib_a-lseekr.o)
                                0x511 (size before relaxing)
 .debug_str     0x00002446       0x56 /OPT/altera/12.1/tools/nios2eds/bin/gnu/H-i686-pc-linux-gnu/bin/../lib/gcc/nios2-elf/4.1.2/../../../../nios2-elf/lib/libc.a(lib_a-mbrtowc.o)
                                0x536 (size before relaxing)
 .debug_str     0x0000249c       0x4d /OPT/altera/12.1/tools/nios2eds/bin/gnu/H-i686-pc-linux-gnu/bin/../lib/gcc/nios2-elf/4.1.2/../../../../nios2-elf/lib/libc.a(lib_a-mbtowc_r.o)
                                0x527 (size before relaxing)
 .debug_str     0x000024e9       0x47 /OPT/altera/12.1/tools/nios2eds/bin/gnu/H-i686-pc-linux-gnu/bin/../lib/gcc/nios2-elf/4.1.2/../../../../nios2-elf/lib/libc.a(lib_a-memchr.o)
                                0x190 (size before relaxing)
 .debug_str     0x00002530       0x42 /OPT/altera/12.1/tools/nios2eds/bin/gnu/H-i686-pc-linux-gnu/bin/../lib/gcc/nios2-elf/4.1.2/../../../../nios2-elf/lib/libc.a(lib_a-memcmp.o)
                                0x16f (size before relaxing)
 .debug_str     0x00002572       0xf8 /OPT/altera/12.1/tools/nios2eds/bin/gnu/H-i686-pc-linux-gnu/bin/../lib/gcc/nios2-elf/4.1.2/../../../../nios2-elf/lib/libc.a(lib_a-mprec.o)
                                0x613 (size before relaxing)
 .debug_str     0x0000266a       0x40 /OPT/altera/12.1/tools/nios2eds/bin/gnu/H-i686-pc-linux-gnu/bin/../lib/gcc/nios2-elf/4.1.2/../../../../nios2-elf/lib/libc.a(lib_a-putc.o)
                                0x517 (size before relaxing)
 .debug_str     0x000026aa       0x41 /OPT/altera/12.1/tools/nios2eds/bin/gnu/H-i686-pc-linux-gnu/bin/../lib/gcc/nios2-elf/4.1.2/../../../../nios2-elf/lib/libc.a(lib_a-readr.o)
                                0x511 (size before relaxing)
 .debug_str     0x000026eb       0x59 /OPT/altera/12.1/tools/nios2eds/bin/gnu/H-i686-pc-linux-gnu/bin/../lib/gcc/nios2-elf/4.1.2/../../../../nios2-elf/lib/libc.a(lib_a-reallocr.o)
                                0x5c8 (size before relaxing)
 .debug_str     0x00002744       0xe1 /OPT/altera/12.1/tools/nios2eds/bin/gnu/H-i686-pc-linux-gnu/bin/../lib/gcc/nios2-elf/4.1.2/../../../../nios2-elf/lib/libc.a(lib_a-s_isinfd.o)
                                0x18f (size before relaxing)
 .debug_str     0x00002825       0x46 /OPT/altera/12.1/tools/nios2eds/bin/gnu/H-i686-pc-linux-gnu/bin/../lib/gcc/nios2-elf/4.1.2/../../../../nios2-elf/lib/libc.a(lib_a-s_isnand.o)
                                0x18f (size before relaxing)
 .debug_str     0x0000286b       0x4f /OPT/altera/12.1/tools/nios2eds/bin/gnu/H-i686-pc-linux-gnu/bin/../lib/gcc/nios2-elf/4.1.2/../../../../nios2-elf/lib/libc.a(lib_a-sccl.o)
                                0x174 (size before relaxing)
 .debug_str     0x000028ba       0x40 /OPT/altera/12.1/tools/nios2eds/bin/gnu/H-i686-pc-linux-gnu/bin/../lib/gcc/nios2-elf/4.1.2/../../../../nios2-elf/lib/libc.a(lib_a-sf_nan.o)
                                0x186 (size before relaxing)
 .debug_str     0x000028fa       0xef /OPT/altera/12.1/tools/nios2eds/bin/gnu/H-i686-pc-linux-gnu/bin/../lib/gcc/nios2-elf/4.1.2/../../../../nios2-elf/lib/libc.a(lib_a-strtod.o)
                                0x626 (size before relaxing)
 .debug_str     0x000029e9       0x49 /OPT/altera/12.1/tools/nios2eds/bin/gnu/H-i686-pc-linux-gnu/bin/../lib/gcc/nios2-elf/4.1.2/../../../../nios2-elf/lib/libc.a(lib_a-strtoll_r.o)
                                0x534 (size before relaxing)
 .debug_str     0x00002a32       0x4f /OPT/altera/12.1/tools/nios2eds/bin/gnu/H-i686-pc-linux-gnu/bin/../lib/gcc/nios2-elf/4.1.2/../../../../nios2-elf/lib/libc.a(lib_a-strtoul.o)
                                0x546 (size before relaxing)
 .debug_str     0x00002a81       0x4b /OPT/altera/12.1/tools/nios2eds/bin/gnu/H-i686-pc-linux-gnu/bin/../lib/gcc/nios2-elf/4.1.2/../../../../nios2-elf/lib/libc.a(lib_a-strtoull_r.o)
                                0x536 (size before relaxing)
 .debug_str     0x00002acc       0x55 /OPT/altera/12.1/tools/nios2eds/bin/gnu/H-i686-pc-linux-gnu/bin/../lib/gcc/nios2-elf/4.1.2/../../../../nios2-elf/lib/libc.a(lib_a-ungetc.o)
                                0x525 (size before relaxing)
 .debug_str     0x00002b21       0x4a /OPT/altera/12.1/tools/nios2eds/bin/gnu/H-i686-pc-linux-gnu/bin/../lib/gcc/nios2-elf/4.1.2/../../../../nios2-elf/lib/libc.a(lib_a-wbuf.o)
                                0x515 (size before relaxing)
 .debug_str     0x00002b6b       0x19 /OPT/altera/12.1/tools/nios2eds/bin/gnu/H-i686-pc-linux-gnu/bin/../lib/gcc/nios2-elf/4.1.2/../../../../nios2-elf/lib/libc.a(lib_a-callocr.o)
                                0x547 (size before relaxing)
 .debug_str     0x00002b84       0x9e /OPT/altera/12.1/tools/nios2eds/bin/gnu/H-i686-pc-linux-gnu/bin/../lib/gcc/nios2-elf/4.1.2/../../../../nios2-elf/lib/libc.a(lib_a-gdtoa-gethex.o)
                                0x5c1 (size before relaxing)
 .debug_str     0x00002c22       0x52 /OPT/altera/12.1/tools/nios2eds/bin/gnu/H-i686-pc-linux-gnu/bin/../lib/gcc/nios2-elf/4.1.2/../../../../nios2-elf/lib/libc.a(lib_a-gdtoa-hexnan.o)
                                0x1d4 (size before relaxing)
 .debug_str     0x00002c74       0x67 /OPT/altera/12.1/tools/nios2eds/bin/gnu/H-i686-pc-linux-gnu/bin/../lib/gcc/nios2-elf/4.1.2/libgcc.a(_muldi3.o)
                                0x1b1 (size before relaxing)
 .debug_str     0x00002cdb       0x14 /OPT/altera/12.1/tools/nios2eds/bin/gnu/H-i686-pc-linux-gnu/bin/../lib/gcc/nios2-elf/4.1.2/libgcc.a(_fixunsdfsi.o)
                                0x170 (size before relaxing)
 .debug_str     0x00002cef       0x54 /OPT/altera/12.1/tools/nios2eds/bin/gnu/H-i686-pc-linux-gnu/bin/../lib/gcc/nios2-elf/4.1.2/libgcc.a(_udivdi3.o)
                                0x1fc (size before relaxing)
 .debug_str     0x00002d43        0xa /OPT/altera/12.1/tools/nios2eds/bin/gnu/H-i686-pc-linux-gnu/bin/../lib/gcc/nios2-elf/4.1.2/libgcc.a(_umoddi3.o)
                                0x1fc (size before relaxing)
 .debug_str     0x00002d4d       0xcd /OPT/altera/12.1/tools/nios2eds/bin/gnu/H-i686-pc-linux-gnu/bin/../lib/gcc/nios2-elf/4.1.2/libgcc.a(_ne_sf.o)
                                0x1fd (size before relaxing)
 .debug_str     0x00002e1a        0x8 /OPT/altera/12.1/tools/nios2eds/bin/gnu/H-i686-pc-linux-gnu/bin/../lib/gcc/nios2-elf/4.1.2/libgcc.a(_gt_sf.o)
                                0x1fd (size before relaxing)
 .debug_str     0x00002e22        0x8 /OPT/altera/12.1/tools/nios2eds/bin/gnu/H-i686-pc-linux-gnu/bin/../lib/gcc/nios2-elf/4.1.2/libgcc.a(_lt_sf.o)
                                0x1fd (size before relaxing)
 .debug_str     0x00002e2a       0x8f /OPT/altera/12.1/tools/nios2eds/bin/gnu/H-i686-pc-linux-gnu/bin/../lib/gcc/nios2-elf/4.1.2/libgcc.a(_addsub_df.o)
                                0x274 (size before relaxing)
 .debug_str     0x00002eb9       0x40 /OPT/altera/12.1/tools/nios2eds/bin/gnu/H-i686-pc-linux-gnu/bin/../lib/gcc/nios2-elf/4.1.2/libgcc.a(_mul_df.o)
                                0x246 (size before relaxing)
 .debug_str     0x00002ef9       0x35 /OPT/altera/12.1/tools/nios2eds/bin/gnu/H-i686-pc-linux-gnu/bin/../lib/gcc/nios2-elf/4.1.2/libgcc.a(_div_df.o)
                                0x236 (size before relaxing)
 .debug_str     0x00002f2e        0x8 /OPT/altera/12.1/tools/nios2eds/bin/gnu/H-i686-pc-linux-gnu/bin/../lib/gcc/nios2-elf/4.1.2/libgcc.a(_eq_df.o)
                                0x203 (size before relaxing)
 .debug_str     0x00002f36        0x8 /OPT/altera/12.1/tools/nios2eds/bin/gnu/H-i686-pc-linux-gnu/bin/../lib/gcc/nios2-elf/4.1.2/libgcc.a(_ne_df.o)
                                0x203 (size before relaxing)
 .debug_str     0x00002f3e        0x8 /OPT/altera/12.1/tools/nios2eds/bin/gnu/H-i686-pc-linux-gnu/bin/../lib/gcc/nios2-elf/4.1.2/libgcc.a(_gt_df.o)
                                0x203 (size before relaxing)
 .debug_str     0x00002f46        0x8 /OPT/altera/12.1/tools/nios2eds/bin/gnu/H-i686-pc-linux-gnu/bin/../lib/gcc/nios2-elf/4.1.2/libgcc.a(_ge_df.o)
                                0x203 (size before relaxing)
 .debug_str     0x00002f4e        0x8 /OPT/altera/12.1/tools/nios2eds/bin/gnu/H-i686-pc-linux-gnu/bin/../lib/gcc/nios2-elf/4.1.2/libgcc.a(_lt_df.o)
                                0x203 (size before relaxing)
 .debug_str     0x00002f56        0x8 /OPT/altera/12.1/tools/nios2eds/bin/gnu/H-i686-pc-linux-gnu/bin/../lib/gcc/nios2-elf/4.1.2/libgcc.a(_le_df.o)
                                0x203 (size before relaxing)
 .debug_str     0x00002f5e       0x18 /OPT/altera/12.1/tools/nios2eds/bin/gnu/H-i686-pc-linux-gnu/bin/../lib/gcc/nios2-elf/4.1.2/libgcc.a(_si_to_df.o)
                                0x1e3 (size before relaxing)
 .debug_str     0x00002f76        0xa /OPT/altera/12.1/tools/nios2eds/bin/gnu/H-i686-pc-linux-gnu/bin/../lib/gcc/nios2-elf/4.1.2/libgcc.a(_df_to_si.o)
                                0x20c (size before relaxing)
 .debug_str     0x00002f80       0x14 /OPT/altera/12.1/tools/nios2eds/bin/gnu/H-i686-pc-linux-gnu/bin/../lib/gcc/nios2-elf/4.1.2/libgcc.a(_df_to_sf.o)
                                0x203 (size before relaxing)
 .debug_str     0x00000000      0x1a8 /OPT/altera/12.1/tools/nios2eds/bin/gnu/H-i686-pc-linux-gnu/bin/../lib/gcc/nios2-elf/4.1.2/libgcc.a(_thenan_df.o)
 .debug_str     0x00002f94       0x14 /OPT/altera/12.1/tools/nios2eds/bin/gnu/H-i686-pc-linux-gnu/bin/../lib/gcc/nios2-elf/4.1.2/libgcc.a(_usi_to_df.o)
                                0x1df (size before relaxing)
 .debug_str     0x00000000      0x166 /OPT/altera/12.1/tools/nios2eds/bin/gnu/H-i686-pc-linux-gnu/bin/../lib/gcc/nios2-elf/4.1.2/libgcc.a(_clz.o)
 .debug_str     0x00002fa8        0x9 /OPT/altera/12.1/tools/nios2eds/bin/gnu/H-i686-pc-linux-gnu/bin/../lib/gcc/nios2-elf/4.1.2/libgcc.a(_clzsi2.o)
                                0x183 (size before relaxing)
 .debug_str     0x00002fb1        0xb /OPT/altera/12.1/tools/nios2eds/bin/gnu/H-i686-pc-linux-gnu/bin/../lib/gcc/nios2-elf/4.1.2/libgcc.a(_unpack_sf.o)
                                0x1e7 (size before relaxing)
 .debug_str     0x00002fbc       0x10 /OPT/altera/12.1/tools/nios2eds/bin/gnu/H-i686-pc-linux-gnu/bin/../lib/gcc/nios2-elf/4.1.2/libgcc.a(_fpcmp_parts_sf.o)
                                0x1cb (size before relaxing)
 .debug_str     0x00002fcc        0xa /OPT/altera/12.1/tools/nios2eds/bin/gnu/H-i686-pc-linux-gnu/bin/../lib/gcc/nios2-elf/4.1.2/libgcc.a(_make_sf.o)
                                0x1be (size before relaxing)
 .debug_str     0x00002fd6       0x10 /OPT/altera/12.1/tools/nios2eds/bin/gnu/H-i686-pc-linux-gnu/bin/../lib/gcc/nios2-elf/4.1.2/libgcc.a(_pack_df.o)
                                0x20b (size before relaxing)
 .debug_str     0x00002fe6        0xb /OPT/altera/12.1/tools/nios2eds/bin/gnu/H-i686-pc-linux-gnu/bin/../lib/gcc/nios2-elf/4.1.2/libgcc.a(_unpack_df.o)
                                0x1ed (size before relaxing)
 .debug_str     0x00002ff1       0x10 /OPT/altera/12.1/tools/nios2eds/bin/gnu/H-i686-pc-linux-gnu/bin/../lib/gcc/nios2-elf/4.1.2/libgcc.a(_fpcmp_parts_df.o)
                                0x1cb (size before relaxing)
 .debug_str     0x00003001        0x9 /OPT/altera/12.1/tools/nios2eds/bin/gnu/H-i686-pc-linux-gnu/bin/../lib/gcc/nios2-elf/4.1.2/libgcc.a(_pack_sf.o)
                                0x205 (size before relaxing)
 .debug_str     0x0000300a       0x12 ../G4Capstone_bsp//libucosii_bsp.a(alt_dcache_flush.o)
 .debug_str     0x0000301c       0x2d ../G4Capstone_bsp//libucosii_bsp.a(alt_flash_dev.o)
 .debug_str     0x00003049       0x12 ../G4Capstone_bsp//libucosii_bsp.a(alt_fstat.o)
 .debug_str     0x0000305b       0x21 ../G4Capstone_bsp//libucosii_bsp.a(alt_irq_register.o)
 .debug_str     0x0000307c       0x12 ../G4Capstone_bsp//libucosii_bsp.a(alt_isatty.o)
 .debug_str     0x0000308e       0x12 ../G4Capstone_bsp//libucosii_bsp.a(alt_lseek.o)
 .debug_str     0x000030a0       0x12 ../G4Capstone_bsp//libucosii_bsp.a(alt_main.o)
 .debug_str     0x000030b2       0x12 ../G4Capstone_bsp//libucosii_bsp.a(alt_open.o)
 .debug_str     0x000030c4       0x12 ../G4Capstone_bsp//libucosii_bsp.a(alt_release_fd.o)
 .debug_str     0x000030d6       0x1a ../G4Capstone_bsp//libucosii_bsp.a(alt_sbrk.o)
 .debug_str     0x000030f0       0x1a ../G4Capstone_bsp//libucosii_bsp.a(alt_tick.o)
 .debug_str     0x0000310a       0x12 ../G4Capstone_bsp//libucosii_bsp.a(alt_usleep.o)
 .debug_str     0x0000311c       0x36 ../G4Capstone_bsp//libucosii_bsp.a(alt_env_lock.o)
 .debug_str     0x00003152       0x36 ../G4Capstone_bsp//libucosii_bsp.a(alt_malloc_lock.o)
 .debug_str     0x00003188       0x46 ../G4Capstone_bsp//libucosii_bsp.a(os_core.o)
 .debug_str     0x000031ce       0x2b ../G4Capstone_bsp//libucosii_bsp.a(os_dbg.o)
 .debug_str     0x000031f9       0x4e ../G4Capstone_bsp//libucosii_bsp.a(os_flag.o)
 .debug_str     0x00003247       0x36 ../G4Capstone_bsp//libucosii_bsp.a(os_mbox.o)
 .debug_str     0x0000327d       0x2c ../G4Capstone_bsp//libucosii_bsp.a(os_mem.o)
 .debug_str     0x000032a9       0x36 ../G4Capstone_bsp//libucosii_bsp.a(os_q.o)
 .debug_str     0x000032df       0x36 ../G4Capstone_bsp//libucosii_bsp.a(os_sem.o)
 .debug_str     0x00003315       0x23 ../G4Capstone_bsp//libucosii_bsp.a(os_task.o)
 .debug_str     0x00003338       0x1f ../G4Capstone_bsp//libucosii_bsp.a(os_time.o)
 .debug_str     0x00003357       0x40 ../G4Capstone_bsp//libucosii_bsp.a(alt_sys_init.o)
 .debug_str     0x00003397       0x12 ../G4Capstone_bsp//libucosii_bsp.a(altera_avalon_jtag_uart_fd.o)
 .debug_str     0x000033a9       0x1a ../G4Capstone_bsp//libucosii_bsp.a(altera_avalon_jtag_uart_init.o)
 .debug_str     0x000033c3       0x12 ../G4Capstone_bsp//libucosii_bsp.a(altera_avalon_jtag_uart_ioctl.o)
 .debug_str     0x000033d5       0x22 ../G4Capstone_bsp//libucosii_bsp.a(altera_avalon_jtag_uart_read.o)
 .debug_str     0x000033f7       0x22 ../G4Capstone_bsp//libucosii_bsp.a(altera_avalon_jtag_uart_write.o)
 .debug_str     0x00003419       0x12 ../G4Capstone_bsp//libucosii_bsp.a(altera_avalon_timer_sc.o)
 .debug_str     0x0000342b       0x95 ../G4Capstone_bsp//libucosii_bsp.a(altera_ro_zipfs.o)
 .debug_str     0x000034c0       0x46 ../G4Capstone_bsp//libucosii_bsp.a(altera_up_avalon_audio_and_video_config.o)
 .debug_str     0x00003506       0x55 ../G4Capstone_bsp//libucosii_bsp.a(altera_up_avalon_character_lcd.o)
 .debug_str     0x0000355b       0x12 ../G4Capstone_bsp//libucosii_bsp.a(alt_iniche_close.o)
 .debug_str     0x0000356d       0x12 ../G4Capstone_bsp//libucosii_bsp.a(alt_iniche_dev.o)
 .debug_str     0x0000357f       0x12 ../G4Capstone_bsp//libucosii_bsp.a(alt_iniche_read.o)
 .debug_str     0x00003591       0x12 ../G4Capstone_bsp//libucosii_bsp.a(alt_iniche_write.o)
 .debug_str     0x000035a3       0x12 ../G4Capstone_bsp//libucosii_bsp.a(ipnet.o)
 .debug_str     0x000035b5       0x12 ../G4Capstone_bsp//libucosii_bsp.a(ipstart.o)
 .debug_str     0x000035c7       0x12 ../G4Capstone_bsp//libucosii_bsp.a(igmp_cmn.o)
 .debug_str     0x000035d9       0x20 ../G4Capstone_bsp//libucosii_bsp.a(bsdsock.o)
 .debug_str     0x000035f9       0x12 ../G4Capstone_bsp//libucosii_bsp.a(cksum.o)
 .debug_str     0x0000360b       0x12 ../G4Capstone_bsp//libucosii_bsp.a(in_utils.o)
 .debug_str     0x0000361d       0x12 ../G4Capstone_bsp//libucosii_bsp.a(netmain.o)
 .debug_str     0x0000362f       0x12 ../G4Capstone_bsp//libucosii_bsp.a(tk_crnos.o)
 .debug_str     0x00003641       0x2e ../G4Capstone_bsp//libucosii_bsp.a(dhcpclnt.o)
 .debug_str     0x0000366f       0x12 ../G4Capstone_bsp//libucosii_bsp.a(dhcputil.o)
 .debug_str     0x00003681       0x12 ../G4Capstone_bsp//libucosii_bsp.a(pktalloc.o)
 .debug_str     0x00003693       0x12 ../G4Capstone_bsp//libucosii_bsp.a(q.o)
 .debug_str     0x000036a5       0x12 ../G4Capstone_bsp//libucosii_bsp.a(udp_open.o)
 .debug_str     0x000036b7       0x20 ../G4Capstone_bsp//libucosii_bsp.a(brdutils.o)
 .debug_str     0x000036d7       0x22 ../G4Capstone_bsp//libucosii_bsp.a(osportco.o)
 .debug_str     0x000036f9       0x12 ../G4Capstone_bsp//libucosii_bsp.a(targnios.o)
 .debug_str     0x0000370b       0x1e ../G4Capstone_bsp//libucosii_bsp.a(nptcp.o)
 .debug_str     0x00003729       0x12 ../G4Capstone_bsp//libucosii_bsp.a(rawsock.o)
 .debug_str     0x0000373b       0x34 ../G4Capstone_bsp//libucosii_bsp.a(sockcall.o)
 .debug_str     0x0000376f       0x18 ../G4Capstone_bsp//libucosii_bsp.a(socket.o)
 .debug_str     0x00003787       0x12 ../G4Capstone_bsp//libucosii_bsp.a(socket2.o)
 .debug_str     0x00003799       0x12 ../G4Capstone_bsp//libucosii_bsp.a(soselect.o)
 .debug_str     0x000037ab       0x12 ../G4Capstone_bsp//libucosii_bsp.a(tcp_in.o)
 .debug_str     0x000037bd       0x12 ../G4Capstone_bsp//libucosii_bsp.a(tcp_out.o)
 .debug_str     0x000037cf       0x12 ../G4Capstone_bsp//libucosii_bsp.a(tcp_subr.o)
 .debug_str     0x000037e1       0x12 ../G4Capstone_bsp//libucosii_bsp.a(tcp_timr.o)
 .debug_str     0x000037f3       0x12 ../G4Capstone_bsp//libucosii_bsp.a(tcp_usr.o)
 .debug_str     0x00003805       0x12 ../G4Capstone_bsp//libucosii_bsp.a(tcpport.o)
 .debug_str     0x00003817       0x1a ../G4Capstone_bsp//libucosii_bsp.a(udpsock.o)
 .debug_str     0x00003831       0x23 ../G4Capstone_bsp//libucosii_bsp.a(alt_alarm_start.o)
 .debug_str     0x00003854       0x12 ../G4Capstone_bsp//libucosii_bsp.a(alt_busy_sleep.o)
 .debug_str     0x00003866       0x12 ../G4Capstone_bsp//libucosii_bsp.a(alt_close.o)
 .debug_str     0x00003878       0x12 ../G4Capstone_bsp//libucosii_bsp.a(alt_dev.o)
 .debug_str     0x0000388a       0x12 ../G4Capstone_bsp//libucosii_bsp.a(alt_dev_llist_insert.o)
 .debug_str     0x0000389c       0x12 ../G4Capstone_bsp//libucosii_bsp.a(alt_errno.o)
 .debug_str     0x000038ae       0x12 ../G4Capstone_bsp//libucosii_bsp.a(alt_find_dev.o)
 .debug_str     0x000038c0       0x12 ../G4Capstone_bsp//libucosii_bsp.a(alt_find_file.o)
 .debug_str     0x000038d2       0x12 ../G4Capstone_bsp//libucosii_bsp.a(alt_fs_reg.o)
 .debug_str     0x000038e4       0x12 ../G4Capstone_bsp//libucosii_bsp.a(alt_get_fd.o)
 .debug_str     0x000038f6       0x18 ../G4Capstone_bsp//libucosii_bsp.a(alt_iic.o)
 .debug_str     0x0000390e       0x1a ../G4Capstone_bsp//libucosii_bsp.a(alt_iic_isr_register.o)
 .debug_str     0x00003928       0x12 ../G4Capstone_bsp//libucosii_bsp.a(alt_io_redirect.o)
 .debug_str     0x0000393a       0x12 ../G4Capstone_bsp//libucosii_bsp.a(alt_irq_handler.o)
 .debug_str     0x0000394c       0x12 ../G4Capstone_bsp//libucosii_bsp.a(alt_read.o)
 .debug_str     0x0000395e       0x12 ../G4Capstone_bsp//libucosii_bsp.a(alt_remap_cached.o)
 .debug_str     0x00003970       0x12 ../G4Capstone_bsp//libucosii_bsp.a(alt_remap_uncached.o)
 .debug_str     0x00003982       0x12 ../G4Capstone_bsp//libucosii_bsp.a(alt_write.o)
 .debug_str     0x00003994       0x12 ../G4Capstone_bsp//libucosii_bsp.a(altera_nios2_qsys_irq.o)
 .debug_str     0x000039a6       0x20 ../G4Capstone_bsp//libucosii_bsp.a(os_cpu_c.o)
 .debug_str     0x000039c6       0x12 ../G4Capstone_bsp//libucosii_bsp.a(allports.o)
 .debug_str     0x000039d8       0x1b ../G4Capstone_bsp//libucosii_bsp.a(timeouts.o)
 .debug_str     0x000039f3       0x12 ../G4Capstone_bsp//libucosii_bsp.a(tk_misc.o)
 .debug_str     0x00003a05       0x12 ../G4Capstone_bsp//libucosii_bsp.a(alt_iniche_fcntl.o)
 .debug_str     0x00003a17       0x3d ../G4Capstone_bsp//libucosii_bsp.a(et_arp.o)
 .debug_str     0x00003a54       0x12 ../G4Capstone_bsp//libucosii_bsp.a(iface.o)
 .debug_str     0x00003a66       0x2c ../G4Capstone_bsp//libucosii_bsp.a(ip.o)
 .debug_str     0x00003a92       0x4e ../G4Capstone_bsp//libucosii_bsp.a(ip_reasm.o)
 .debug_str     0x00003ae0       0x12 ../G4Capstone_bsp//libucosii_bsp.a(ipdemux.o)
 .debug_str     0x00003af2       0x12 ../G4Capstone_bsp//libucosii_bsp.a(ipmc.o)
 .debug_str     0x00003b04       0x12 ../G4Capstone_bsp//libucosii_bsp.a(ipport.o)
 .debug_str     0x00003b16       0x12 ../G4Capstone_bsp//libucosii_bsp.a(ipraw.o)
 .debug_str     0x00003b28       0x12 ../G4Capstone_bsp//libucosii_bsp.a(iproute.o)
 .debug_str     0x00003b3a       0x12 ../G4Capstone_bsp//libucosii_bsp.a(udp.o)
 .debug_str     0x00003b4c       0x12 ../G4Capstone_bsp//libucosii_bsp.a(igmp.o)
 .debug_str     0x00003b5e       0x20 ../G4Capstone_bsp//libucosii_bsp.a(igmp2.o)
 .debug_str     0x00003b7e       0x12 ../G4Capstone_bsp//libucosii_bsp.a(ipopt.o)
 .debug_str     0x00003b90       0x12 ../G4Capstone_bsp//libucosii_bsp.a(u_mctest.o)
 .debug_str     0x00003ba2       0x12 ../G4Capstone_bsp//libucosii_bsp.a(dhcsetup.o)
 .debug_str     0x00003bb4       0x1b ../G4Capstone_bsp//libucosii_bsp.a(memdev.o)
 .debug_str     0x00003bcf       0x12 ../G4Capstone_bsp//libucosii_bsp.a(parseip.o)
 .debug_str     0x00003be1       0x12 ../G4Capstone_bsp//libucosii_bsp.a(tcpcksum.o)
 .debug_str     0x00003bf3       0x12 ../G4Capstone_bsp//libucosii_bsp.a(in_pcb.o)
 .debug_str     0x00003c05       0x2b ../G4Capstone_bsp//libucosii_bsp.a(vfsfiles.o)
 .debug_str     0x00003c30       0x12 ../G4Capstone_bsp//libucosii_bsp.a(vfsport.o)
 .debug_str     0x00003c42       0x12 ../G4Capstone_bsp//libucosii_bsp.a(alt_fcntl.o)
 .debug_str     0x00003c54       0x12 ../G4Capstone_bsp//libucosii_bsp.a(icmp.o)
 .debug_str     0x00003c66       0x3b /OPT/altera/12.1/tools/nios2eds/bin/gnu/H-i686-pc-linux-gnu/bin/../lib/gcc/nios2-elf/4.1.2/../../../../nios2-elf/lib/libc.a(lib_a-atexit.o)
                                0x1c4 (size before relaxing)
 .debug_str     0x00003ca1       0x42 /OPT/altera/12.1/tools/nios2eds/bin/gnu/H-i686-pc-linux-gnu/bin/../lib/gcc/nios2-elf/4.1.2/../../../../nios2-elf/lib/libc.a(lib_a-calloc.o)
                                0x515 (size before relaxing)
 .debug_str     0x00003ce3       0x39 /OPT/altera/12.1/tools/nios2eds/bin/gnu/H-i686-pc-linux-gnu/bin/../lib/gcc/nios2-elf/4.1.2/../../../../nios2-elf/lib/libc.a(lib_a-exit.o)
                                0x511 (size before relaxing)
 .debug_str     0x00003d1c       0x40 /OPT/altera/12.1/tools/nios2eds/bin/gnu/H-i686-pc-linux-gnu/bin/../lib/gcc/nios2-elf/4.1.2/../../../../nios2-elf/lib/libc.a(lib_a-getc.o)
                                0x517 (size before relaxing)
 .debug_str     0x00003d5c       0x40 /OPT/altera/12.1/tools/nios2eds/bin/gnu/H-i686-pc-linux-gnu/bin/../lib/gcc/nios2-elf/4.1.2/../../../../nios2-elf/lib/libc.a(lib_a-malloc.o)
                                0x521 (size before relaxing)
 .debug_str     0x00003d9c       0x4a /OPT/altera/12.1/tools/nios2eds/bin/gnu/H-i686-pc-linux-gnu/bin/../lib/gcc/nios2-elf/4.1.2/../../../../nios2-elf/lib/libc.a(lib_a-rget.o)
                                0x515 (size before relaxing)
 .debug_str     0x00003de6       0x4e /OPT/altera/12.1/tools/nios2eds/bin/gnu/H-i686-pc-linux-gnu/bin/../lib/gcc/nios2-elf/4.1.2/../../../../nios2-elf/lib/libc.a(lib_a-vprintf.o)
                                0x52b (size before relaxing)
 .debug_str     0x00003e34       0x51 /OPT/altera/12.1/tools/nios2eds/bin/gnu/H-i686-pc-linux-gnu/bin/../lib/gcc/nios2-elf/4.1.2/../../../../nios2-elf/lib/libc.a(lib_a-vsprintf.o)
                                0x533 (size before relaxing)
 .debug_str     0x00003e85       0x51 /OPT/altera/12.1/tools/nios2eds/bin/gnu/H-i686-pc-linux-gnu/bin/../lib/gcc/nios2-elf/4.1.2/../../../../nios2-elf/lib/libc.a(lib_a-__atexit.o)
                                0x529 (size before relaxing)
 .debug_str     0x00003ed6       0x7b /OPT/altera/12.1/tools/nios2eds/bin/gnu/H-i686-pc-linux-gnu/bin/../lib/gcc/nios2-elf/4.1.2/../../../../nios2-elf/lib/libc.a(lib_a-__call_atexit.o)
                                0x553 (size before relaxing)
 .debug_str     0x00003f51       0x1c ../G4Capstone_bsp//libucosii_bsp.a(alt_exit.o)

.debug_loc      0x00000000    0x1a8b6
 *(.debug_loc)
 .debug_loc     0x00000000       0x2b obj/default/alt_error_handler.o
 .debug_loc     0x0000002b      0x25a obj/default/dm9000a.o
 .debug_loc     0x00000285      0x3e0 obj/default/http.o
 .debug_loc     0x00000665      0x159 obj/default/network_utilities.o
 .debug_loc     0x000007be       0x84 obj/default/srec_flash.o
 .debug_loc     0x00000842       0xd8 obj/default/web_server.o
 .debug_loc     0x0000091a      0x1d2 /OPT/altera/12.1/tools/nios2eds/bin/gnu/H-i686-pc-linux-gnu/bin/../lib/gcc/nios2-elf/4.1.2/libgcc.a(lib2-divmod.o)
 .debug_loc     0x00000aec       0x39 /OPT/altera/12.1/tools/nios2eds/bin/gnu/H-i686-pc-linux-gnu/bin/../lib/gcc/nios2-elf/4.1.2/../../../../nios2-elf/lib/libc.a(lib_a-atoi.o)
 .debug_loc     0x00000b25       0xe4 /OPT/altera/12.1/tools/nios2eds/bin/gnu/H-i686-pc-linux-gnu/bin/../lib/gcc/nios2-elf/4.1.2/../../../../nios2-elf/lib/libc.a(lib_a-fclose.o)
 .debug_loc     0x00000c09      0x1f6 /OPT/altera/12.1/tools/nios2eds/bin/gnu/H-i686-pc-linux-gnu/bin/../lib/gcc/nios2-elf/4.1.2/../../../../nios2-elf/lib/libc.a(lib_a-fflush.o)
 .debug_loc     0x00000dff       0x9f /OPT/altera/12.1/tools/nios2eds/bin/gnu/H-i686-pc-linux-gnu/bin/../lib/gcc/nios2-elf/4.1.2/../../../../nios2-elf/lib/libc.a(lib_a-fgetpos.o)
 .debug_loc     0x00000e9e      0x19f /OPT/altera/12.1/tools/nios2eds/bin/gnu/H-i686-pc-linux-gnu/bin/../lib/gcc/nios2-elf/4.1.2/../../../../nios2-elf/lib/libc.a(lib_a-findfp.o)
 .debug_loc     0x0000103d      0x1c9 /OPT/altera/12.1/tools/nios2eds/bin/gnu/H-i686-pc-linux-gnu/bin/../lib/gcc/nios2-elf/4.1.2/../../../../nios2-elf/lib/libc.a(lib_a-fopen.o)
 .debug_loc     0x00001206       0xf1 /OPT/altera/12.1/tools/nios2eds/bin/gnu/H-i686-pc-linux-gnu/bin/../lib/gcc/nios2-elf/4.1.2/../../../../nios2-elf/lib/libc.a(lib_a-fprintf.o)
 .debug_loc     0x000012f7      0x303 /OPT/altera/12.1/tools/nios2eds/bin/gnu/H-i686-pc-linux-gnu/bin/../lib/gcc/nios2-elf/4.1.2/../../../../nios2-elf/lib/libc.a(lib_a-fread.o)
 .debug_loc     0x000015fa      0x4a7 /OPT/altera/12.1/tools/nios2eds/bin/gnu/H-i686-pc-linux-gnu/bin/../lib/gcc/nios2-elf/4.1.2/../../../../nios2-elf/lib/libc.a(lib_a-freer.o)
 .debug_loc     0x00001aa1      0x348 /OPT/altera/12.1/tools/nios2eds/bin/gnu/H-i686-pc-linux-gnu/bin/../lib/gcc/nios2-elf/4.1.2/../../../../nios2-elf/lib/libc.a(lib_a-fseek.o)
 .debug_loc     0x00001de9       0x79 /OPT/altera/12.1/tools/nios2eds/bin/gnu/H-i686-pc-linux-gnu/bin/../lib/gcc/nios2-elf/4.1.2/../../../../nios2-elf/lib/libc.a(lib_a-fstatr.o)
 .debug_loc     0x00001e62       0xe4 /OPT/altera/12.1/tools/nios2eds/bin/gnu/H-i686-pc-linux-gnu/bin/../lib/gcc/nios2-elf/4.1.2/../../../../nios2-elf/lib/libc.a(lib_a-ftell.o)
 .debug_loc     0x00001f46      0x1d2 /OPT/altera/12.1/tools/nios2eds/bin/gnu/H-i686-pc-linux-gnu/bin/../lib/gcc/nios2-elf/4.1.2/../../../../nios2-elf/lib/libc.a(lib_a-fwalk.o)
 .debug_loc     0x00002118      0x18e /OPT/altera/12.1/tools/nios2eds/bin/gnu/H-i686-pc-linux-gnu/bin/../lib/gcc/nios2-elf/4.1.2/../../../../nios2-elf/lib/libc.a(lib_a-fwrite.o)
 .debug_loc     0x000022a6      0x11c /OPT/altera/12.1/tools/nios2eds/bin/gnu/H-i686-pc-linux-gnu/bin/../lib/gcc/nios2-elf/4.1.2/../../../../nios2-elf/lib/libc.a(lib_a-makebuf.o)
 .debug_loc     0x000023c2      0xaeb /OPT/altera/12.1/tools/nios2eds/bin/gnu/H-i686-pc-linux-gnu/bin/../lib/gcc/nios2-elf/4.1.2/../../../../nios2-elf/lib/libc.a(lib_a-mallocr.o)
 .debug_loc     0x00002ead       0xca /OPT/altera/12.1/tools/nios2eds/bin/gnu/H-i686-pc-linux-gnu/bin/../lib/gcc/nios2-elf/4.1.2/../../../../nios2-elf/lib/libc.a(lib_a-memcpy.o)
 .debug_loc     0x00002f77      0x117 /OPT/altera/12.1/tools/nios2eds/bin/gnu/H-i686-pc-linux-gnu/bin/../lib/gcc/nios2-elf/4.1.2/../../../../nios2-elf/lib/libc.a(lib_a-memmove.o)
 .debug_loc     0x0000308e       0xa1 /OPT/altera/12.1/tools/nios2eds/bin/gnu/H-i686-pc-linux-gnu/bin/../lib/gcc/nios2-elf/4.1.2/../../../../nios2-elf/lib/libc.a(lib_a-memset.o)
 .debug_loc     0x0000312f       0x97 /OPT/altera/12.1/tools/nios2eds/bin/gnu/H-i686-pc-linux-gnu/bin/../lib/gcc/nios2-elf/4.1.2/../../../../nios2-elf/lib/libc.a(lib_a-openr.o)
 .debug_loc     0x000031c6       0xa2 /OPT/altera/12.1/tools/nios2eds/bin/gnu/H-i686-pc-linux-gnu/bin/../lib/gcc/nios2-elf/4.1.2/../../../../nios2-elf/lib/libc.a(lib_a-perror.o)
 .debug_loc     0x00003268       0xcb /OPT/altera/12.1/tools/nios2eds/bin/gnu/H-i686-pc-linux-gnu/bin/../lib/gcc/nios2-elf/4.1.2/../../../../nios2-elf/lib/libc.a(lib_a-printf.o)
 .debug_loc     0x00003333       0xa2 /OPT/altera/12.1/tools/nios2eds/bin/gnu/H-i686-pc-linux-gnu/bin/../lib/gcc/nios2-elf/4.1.2/../../../../nios2-elf/lib/libc.a(lib_a-puts.o)
 .debug_loc     0x000033d5       0xd1 /OPT/altera/12.1/tools/nios2eds/bin/gnu/H-i686-pc-linux-gnu/bin/../lib/gcc/nios2-elf/4.1.2/../../../../nios2-elf/lib/libc.a(lib_a-refill.o)
 .debug_loc     0x000034a6       0x5b /OPT/altera/12.1/tools/nios2eds/bin/gnu/H-i686-pc-linux-gnu/bin/../lib/gcc/nios2-elf/4.1.2/../../../../nios2-elf/lib/libc.a(lib_a-sbrkr.o)
 .debug_loc     0x00003501       0xc0 /OPT/altera/12.1/tools/nios2eds/bin/gnu/H-i686-pc-linux-gnu/bin/../lib/gcc/nios2-elf/4.1.2/../../../../nios2-elf/lib/libc.a(lib_a-sprintf.o)
 .debug_loc     0x000035c1       0xc0 /OPT/altera/12.1/tools/nios2eds/bin/gnu/H-i686-pc-linux-gnu/bin/../lib/gcc/nios2-elf/4.1.2/../../../../nios2-elf/lib/libc.a(lib_a-sscanf.o)
 .debug_loc     0x00003681      0x21f /OPT/altera/12.1/tools/nios2eds/bin/gnu/H-i686-pc-linux-gnu/bin/../lib/gcc/nios2-elf/4.1.2/../../../../nios2-elf/lib/libc.a(lib_a-stdio.o)
 .debug_loc     0x000038a0       0x88 /OPT/altera/12.1/tools/nios2eds/bin/gnu/H-i686-pc-linux-gnu/bin/../lib/gcc/nios2-elf/4.1.2/../../../../nios2-elf/lib/libc.a(lib_a-strcasecmp.o)
 .debug_loc     0x00003928       0x8f /OPT/altera/12.1/tools/nios2eds/bin/gnu/H-i686-pc-linux-gnu/bin/../lib/gcc/nios2-elf/4.1.2/../../../../nios2-elf/lib/libc.a(lib_a-strcat.o)
 .debug_loc     0x000039b7       0xf3 /OPT/altera/12.1/tools/nios2eds/bin/gnu/H-i686-pc-linux-gnu/bin/../lib/gcc/nios2-elf/4.1.2/../../../../nios2-elf/lib/libc.a(lib_a-strchr.o)
 .debug_loc     0x00003aaa       0x65 /OPT/altera/12.1/tools/nios2eds/bin/gnu/H-i686-pc-linux-gnu/bin/../lib/gcc/nios2-elf/4.1.2/../../../../nios2-elf/lib/libc.a(lib_a-strcmp.o)
 .debug_loc     0x00003b0f       0x8b /OPT/altera/12.1/tools/nios2eds/bin/gnu/H-i686-pc-linux-gnu/bin/../lib/gcc/nios2-elf/4.1.2/../../../../nios2-elf/lib/libc.a(lib_a-strcpy.o)
 .debug_loc     0x00003b9a      0x418 /OPT/altera/12.1/tools/nios2eds/bin/gnu/H-i686-pc-linux-gnu/bin/../lib/gcc/nios2-elf/4.1.2/../../../../nios2-elf/lib/libc.a(lib_a-strerror.o)
 .debug_loc     0x00003fb2       0x3c /OPT/altera/12.1/tools/nios2eds/bin/gnu/H-i686-pc-linux-gnu/bin/../lib/gcc/nios2-elf/4.1.2/../../../../nios2-elf/lib/libc.a(lib_a-strlen.o)
 .debug_loc     0x00003fee       0x78 /OPT/altera/12.1/tools/nios2eds/bin/gnu/H-i686-pc-linux-gnu/bin/../lib/gcc/nios2-elf/4.1.2/../../../../nios2-elf/lib/libc.a(lib_a-strncmp.o)
 .debug_loc     0x00004066       0xeb /OPT/altera/12.1/tools/nios2eds/bin/gnu/H-i686-pc-linux-gnu/bin/../lib/gcc/nios2-elf/4.1.2/../../../../nios2-elf/lib/libc.a(lib_a-strncpy.o)
 .debug_loc     0x00004151      0xa24 /OPT/altera/12.1/tools/nios2eds/bin/gnu/H-i686-pc-linux-gnu/bin/../lib/gcc/nios2-elf/4.1.2/../../../../nios2-elf/lib/libc.a(lib_a-strstr.o)
 .debug_loc     0x00004b75       0x26 /OPT/altera/12.1/tools/nios2eds/bin/gnu/H-i686-pc-linux-gnu/bin/../lib/gcc/nios2-elf/4.1.2/../../../../nios2-elf/lib/libc.a(lib_a-strtok.o)
 .debug_loc     0x00004b9b       0xc7 /OPT/altera/12.1/tools/nios2eds/bin/gnu/H-i686-pc-linux-gnu/bin/../lib/gcc/nios2-elf/4.1.2/../../../../nios2-elf/lib/libc.a(lib_a-strtok_r.o)
 .debug_loc     0x00004c62      0x346 /OPT/altera/12.1/tools/nios2eds/bin/gnu/H-i686-pc-linux-gnu/bin/../lib/gcc/nios2-elf/4.1.2/../../../../nios2-elf/lib/libc.a(lib_a-strtol.o)
 .debug_loc     0x00004fa8     0x1e0d /OPT/altera/12.1/tools/nios2eds/bin/gnu/H-i686-pc-linux-gnu/bin/../lib/gcc/nios2-elf/4.1.2/../../../../nios2-elf/lib/libc.a(lib_a-vfprintf.o)
 .debug_loc     0x00006db5     0x13ff /OPT/altera/12.1/tools/nios2eds/bin/gnu/H-i686-pc-linux-gnu/bin/../lib/gcc/nios2-elf/4.1.2/../../../../nios2-elf/lib/libc.a(lib_a-vfscanf.o)
 .debug_loc     0x000081b4       0x97 /OPT/altera/12.1/tools/nios2eds/bin/gnu/H-i686-pc-linux-gnu/bin/../lib/gcc/nios2-elf/4.1.2/../../../../nios2-elf/lib/libc.a(lib_a-writer.o)
 .debug_loc     0x0000824b       0x7c /OPT/altera/12.1/tools/nios2eds/bin/gnu/H-i686-pc-linux-gnu/bin/../lib/gcc/nios2-elf/4.1.2/../../../../nios2-elf/lib/libc.a(lib_a-wsetup.o)
 .debug_loc     0x000082c7       0x5b /OPT/altera/12.1/tools/nios2eds/bin/gnu/H-i686-pc-linux-gnu/bin/../lib/gcc/nios2-elf/4.1.2/../../../../nios2-elf/lib/libc.a(lib_a-closer.o)
 .debug_loc     0x00008322     0x1dfa /OPT/altera/12.1/tools/nios2eds/bin/gnu/H-i686-pc-linux-gnu/bin/../lib/gcc/nios2-elf/4.1.2/../../../../nios2-elf/lib/libc.a(lib_a-dtoa.o)
 .debug_loc     0x0000a11c       0xa4 /OPT/altera/12.1/tools/nios2eds/bin/gnu/H-i686-pc-linux-gnu/bin/../lib/gcc/nios2-elf/4.1.2/../../../../nios2-elf/lib/libc.a(lib_a-flags.o)
 .debug_loc     0x0000a1c0      0x14d /OPT/altera/12.1/tools/nios2eds/bin/gnu/H-i686-pc-linux-gnu/bin/../lib/gcc/nios2-elf/4.1.2/../../../../nios2-elf/lib/libc.a(lib_a-fputc.o)
 .debug_loc     0x0000a30d       0xcb /OPT/altera/12.1/tools/nios2eds/bin/gnu/H-i686-pc-linux-gnu/bin/../lib/gcc/nios2-elf/4.1.2/../../../../nios2-elf/lib/libc.a(lib_a-fputs.o)
 .debug_loc     0x0000a3d8      0x4e4 /OPT/altera/12.1/tools/nios2eds/bin/gnu/H-i686-pc-linux-gnu/bin/../lib/gcc/nios2-elf/4.1.2/../../../../nios2-elf/lib/libc.a(lib_a-fvwrite.o)
 .debug_loc     0x0000a8bc       0x5b /OPT/altera/12.1/tools/nios2eds/bin/gnu/H-i686-pc-linux-gnu/bin/../lib/gcc/nios2-elf/4.1.2/../../../../nios2-elf/lib/libc.a(lib_a-isattyr.o)
 .debug_loc     0x0000a917       0xe1 /OPT/altera/12.1/tools/nios2eds/bin/gnu/H-i686-pc-linux-gnu/bin/../lib/gcc/nios2-elf/4.1.2/../../../../nios2-elf/lib/libc.a(lib_a-locale.o)
 .debug_loc     0x0000a9f8       0x97 /OPT/altera/12.1/tools/nios2eds/bin/gnu/H-i686-pc-linux-gnu/bin/../lib/gcc/nios2-elf/4.1.2/../../../../nios2-elf/lib/libc.a(lib_a-lseekr.o)
 .debug_loc     0x0000aa8f      0x182 /OPT/altera/12.1/tools/nios2eds/bin/gnu/H-i686-pc-linux-gnu/bin/../lib/gcc/nios2-elf/4.1.2/../../../../nios2-elf/lib/libc.a(lib_a-mbrtowc.o)
 .debug_loc     0x0000ac11       0x1f /OPT/altera/12.1/tools/nios2eds/bin/gnu/H-i686-pc-linux-gnu/bin/../lib/gcc/nios2-elf/4.1.2/../../../../nios2-elf/lib/libc.a(lib_a-mbtowc_r.o)
 .debug_loc     0x0000ac30      0x106 /OPT/altera/12.1/tools/nios2eds/bin/gnu/H-i686-pc-linux-gnu/bin/../lib/gcc/nios2-elf/4.1.2/../../../../nios2-elf/lib/libc.a(lib_a-memchr.o)
 .debug_loc     0x0000ad36      0x114 /OPT/altera/12.1/tools/nios2eds/bin/gnu/H-i686-pc-linux-gnu/bin/../lib/gcc/nios2-elf/4.1.2/../../../../nios2-elf/lib/libc.a(lib_a-memcmp.o)
 .debug_loc     0x0000ae4a     0x14d6 /OPT/altera/12.1/tools/nios2eds/bin/gnu/H-i686-pc-linux-gnu/bin/../lib/gcc/nios2-elf/4.1.2/../../../../nios2-elf/lib/libc.a(lib_a-mprec.o)
 .debug_loc     0x0000c320      0x20d /OPT/altera/12.1/tools/nios2eds/bin/gnu/H-i686-pc-linux-gnu/bin/../lib/gcc/nios2-elf/4.1.2/../../../../nios2-elf/lib/libc.a(lib_a-putc.o)
 .debug_loc     0x0000c52d       0x97 /OPT/altera/12.1/tools/nios2eds/bin/gnu/H-i686-pc-linux-gnu/bin/../lib/gcc/nios2-elf/4.1.2/../../../../nios2-elf/lib/libc.a(lib_a-readr.o)
 .debug_loc     0x0000c5c4      0x8c0 /OPT/altera/12.1/tools/nios2eds/bin/gnu/H-i686-pc-linux-gnu/bin/../lib/gcc/nios2-elf/4.1.2/../../../../nios2-elf/lib/libc.a(lib_a-reallocr.o)
 .debug_loc     0x0000ce84       0x36 /OPT/altera/12.1/tools/nios2eds/bin/gnu/H-i686-pc-linux-gnu/bin/../lib/gcc/nios2-elf/4.1.2/../../../../nios2-elf/lib/libc.a(lib_a-s_isinfd.o)
 .debug_loc     0x0000ceba       0x18 /OPT/altera/12.1/tools/nios2eds/bin/gnu/H-i686-pc-linux-gnu/bin/../lib/gcc/nios2-elf/4.1.2/../../../../nios2-elf/lib/libc.a(lib_a-s_isnand.o)
 .debug_loc     0x0000ced2       0xdb /OPT/altera/12.1/tools/nios2eds/bin/gnu/H-i686-pc-linux-gnu/bin/../lib/gcc/nios2-elf/4.1.2/../../../../nios2-elf/lib/libc.a(lib_a-sccl.o)
 .debug_loc     0x0000cfad     0x243e /OPT/altera/12.1/tools/nios2eds/bin/gnu/H-i686-pc-linux-gnu/bin/../lib/gcc/nios2-elf/4.1.2/../../../../nios2-elf/lib/libc.a(lib_a-strtod.o)
 .debug_loc     0x0000f3eb      0x30f /OPT/altera/12.1/tools/nios2eds/bin/gnu/H-i686-pc-linux-gnu/bin/../lib/gcc/nios2-elf/4.1.2/../../../../nios2-elf/lib/libc.a(lib_a-strtoll_r.o)
 .debug_loc     0x0000f6fa      0x263 /OPT/altera/12.1/tools/nios2eds/bin/gnu/H-i686-pc-linux-gnu/bin/../lib/gcc/nios2-elf/4.1.2/../../../../nios2-elf/lib/libc.a(lib_a-strtoul.o)
 .debug_loc     0x0000f95d      0x282 /OPT/altera/12.1/tools/nios2eds/bin/gnu/H-i686-pc-linux-gnu/bin/../lib/gcc/nios2-elf/4.1.2/../../../../nios2-elf/lib/libc.a(lib_a-strtoull_r.o)
 .debug_loc     0x0000fbdf      0x207 /OPT/altera/12.1/tools/nios2eds/bin/gnu/H-i686-pc-linux-gnu/bin/../lib/gcc/nios2-elf/4.1.2/../../../../nios2-elf/lib/libc.a(lib_a-ungetc.o)
 .debug_loc     0x0000fde6      0x157 /OPT/altera/12.1/tools/nios2eds/bin/gnu/H-i686-pc-linux-gnu/bin/../lib/gcc/nios2-elf/4.1.2/../../../../nios2-elf/lib/libc.a(lib_a-wbuf.o)
 .debug_loc     0x0000ff3d       0xe9 /OPT/altera/12.1/tools/nios2eds/bin/gnu/H-i686-pc-linux-gnu/bin/../lib/gcc/nios2-elf/4.1.2/../../../../nios2-elf/lib/libc.a(lib_a-callocr.o)
 .debug_loc     0x00010026      0xad2 /OPT/altera/12.1/tools/nios2eds/bin/gnu/H-i686-pc-linux-gnu/bin/../lib/gcc/nios2-elf/4.1.2/../../../../nios2-elf/lib/libc.a(lib_a-gdtoa-gethex.o)
 .debug_loc     0x00010af8      0x2a6 /OPT/altera/12.1/tools/nios2eds/bin/gnu/H-i686-pc-linux-gnu/bin/../lib/gcc/nios2-elf/4.1.2/../../../../nios2-elf/lib/libc.a(lib_a-gdtoa-hexnan.o)
 .debug_loc     0x00010d9e       0xc4 /OPT/altera/12.1/tools/nios2eds/bin/gnu/H-i686-pc-linux-gnu/bin/../lib/gcc/nios2-elf/4.1.2/libgcc.a(_muldi3.o)
 .debug_loc     0x00010e62       0x87 /OPT/altera/12.1/tools/nios2eds/bin/gnu/H-i686-pc-linux-gnu/bin/../lib/gcc/nios2-elf/4.1.2/libgcc.a(_fixunsdfsi.o)
 .debug_loc     0x00010ee9      0xc12 /OPT/altera/12.1/tools/nios2eds/bin/gnu/H-i686-pc-linux-gnu/bin/../lib/gcc/nios2-elf/4.1.2/libgcc.a(_udivdi3.o)
 .debug_loc     0x00011afb      0xc26 /OPT/altera/12.1/tools/nios2eds/bin/gnu/H-i686-pc-linux-gnu/bin/../lib/gcc/nios2-elf/4.1.2/libgcc.a(_umoddi3.o)
 .debug_loc     0x00012721       0x45 /OPT/altera/12.1/tools/nios2eds/bin/gnu/H-i686-pc-linux-gnu/bin/../lib/gcc/nios2-elf/4.1.2/libgcc.a(_ne_sf.o)
 .debug_loc     0x00012766       0x45 /OPT/altera/12.1/tools/nios2eds/bin/gnu/H-i686-pc-linux-gnu/bin/../lib/gcc/nios2-elf/4.1.2/libgcc.a(_gt_sf.o)
 .debug_loc     0x000127ab       0x45 /OPT/altera/12.1/tools/nios2eds/bin/gnu/H-i686-pc-linux-gnu/bin/../lib/gcc/nios2-elf/4.1.2/libgcc.a(_lt_sf.o)
 .debug_loc     0x000127f0      0x47a /OPT/altera/12.1/tools/nios2eds/bin/gnu/H-i686-pc-linux-gnu/bin/../lib/gcc/nios2-elf/4.1.2/libgcc.a(_addsub_df.o)
 .debug_loc     0x00012c6a      0x3b4 /OPT/altera/12.1/tools/nios2eds/bin/gnu/H-i686-pc-linux-gnu/bin/../lib/gcc/nios2-elf/4.1.2/libgcc.a(_mul_df.o)
 .debug_loc     0x0001301e      0x1df /OPT/altera/12.1/tools/nios2eds/bin/gnu/H-i686-pc-linux-gnu/bin/../lib/gcc/nios2-elf/4.1.2/libgcc.a(_div_df.o)
 .debug_loc     0x000131fd       0x70 /OPT/altera/12.1/tools/nios2eds/bin/gnu/H-i686-pc-linux-gnu/bin/../lib/gcc/nios2-elf/4.1.2/libgcc.a(_eq_df.o)
 .debug_loc     0x0001326d       0x70 /OPT/altera/12.1/tools/nios2eds/bin/gnu/H-i686-pc-linux-gnu/bin/../lib/gcc/nios2-elf/4.1.2/libgcc.a(_ne_df.o)
 .debug_loc     0x000132dd       0x70 /OPT/altera/12.1/tools/nios2eds/bin/gnu/H-i686-pc-linux-gnu/bin/../lib/gcc/nios2-elf/4.1.2/libgcc.a(_gt_df.o)
 .debug_loc     0x0001334d       0x70 /OPT/altera/12.1/tools/nios2eds/bin/gnu/H-i686-pc-linux-gnu/bin/../lib/gcc/nios2-elf/4.1.2/libgcc.a(_ge_df.o)
 .debug_loc     0x000133bd       0x70 /OPT/altera/12.1/tools/nios2eds/bin/gnu/H-i686-pc-linux-gnu/bin/../lib/gcc/nios2-elf/4.1.2/libgcc.a(_lt_df.o)
 .debug_loc     0x0001342d       0x70 /OPT/altera/12.1/tools/nios2eds/bin/gnu/H-i686-pc-linux-gnu/bin/../lib/gcc/nios2-elf/4.1.2/libgcc.a(_le_df.o)
 .debug_loc     0x0001349d       0x9a /OPT/altera/12.1/tools/nios2eds/bin/gnu/H-i686-pc-linux-gnu/bin/../lib/gcc/nios2-elf/4.1.2/libgcc.a(_si_to_df.o)
 .debug_loc     0x00013537       0x8b /OPT/altera/12.1/tools/nios2eds/bin/gnu/H-i686-pc-linux-gnu/bin/../lib/gcc/nios2-elf/4.1.2/libgcc.a(_df_to_si.o)
 .debug_loc     0x000135c2       0x6a /OPT/altera/12.1/tools/nios2eds/bin/gnu/H-i686-pc-linux-gnu/bin/../lib/gcc/nios2-elf/4.1.2/libgcc.a(_df_to_sf.o)
 .debug_loc     0x0001362c       0x5b /OPT/altera/12.1/tools/nios2eds/bin/gnu/H-i686-pc-linux-gnu/bin/../lib/gcc/nios2-elf/4.1.2/libgcc.a(_usi_to_df.o)
 .debug_loc     0x00013687       0x1e /OPT/altera/12.1/tools/nios2eds/bin/gnu/H-i686-pc-linux-gnu/bin/../lib/gcc/nios2-elf/4.1.2/libgcc.a(_clzsi2.o)
 .debug_loc     0x000136a5       0x31 /OPT/altera/12.1/tools/nios2eds/bin/gnu/H-i686-pc-linux-gnu/bin/../lib/gcc/nios2-elf/4.1.2/libgcc.a(_unpack_sf.o)
 .debug_loc     0x000136d6       0x3c /OPT/altera/12.1/tools/nios2eds/bin/gnu/H-i686-pc-linux-gnu/bin/../lib/gcc/nios2-elf/4.1.2/libgcc.a(_fpcmp_parts_sf.o)
 .debug_loc     0x00013712       0x6b /OPT/altera/12.1/tools/nios2eds/bin/gnu/H-i686-pc-linux-gnu/bin/../lib/gcc/nios2-elf/4.1.2/libgcc.a(_make_sf.o)
 .debug_loc     0x0001377d      0x184 /OPT/altera/12.1/tools/nios2eds/bin/gnu/H-i686-pc-linux-gnu/bin/../lib/gcc/nios2-elf/4.1.2/libgcc.a(_pack_df.o)
 .debug_loc     0x00013901       0xe5 /OPT/altera/12.1/tools/nios2eds/bin/gnu/H-i686-pc-linux-gnu/bin/../lib/gcc/nios2-elf/4.1.2/libgcc.a(_unpack_df.o)
 .debug_loc     0x000139e6       0xf9 /OPT/altera/12.1/tools/nios2eds/bin/gnu/H-i686-pc-linux-gnu/bin/../lib/gcc/nios2-elf/4.1.2/libgcc.a(_pack_sf.o)
 .debug_loc     0x00013adf       0x2b ../G4Capstone_bsp//libucosii_bsp.a(alt_dcache_flush.o)
 .debug_loc     0x00013b0a       0x56 ../G4Capstone_bsp//libucosii_bsp.a(alt_flash_dev.o)
 .debug_loc     0x00013b60       0x56 ../G4Capstone_bsp//libucosii_bsp.a(alt_fstat.o)
 .debug_loc     0x00013bb6       0x2c ../G4Capstone_bsp//libucosii_bsp.a(alt_irq_register.o)
 .debug_loc     0x00013be2       0x57 ../G4Capstone_bsp//libucosii_bsp.a(alt_isatty.o)
 .debug_loc     0x00013c39       0x56 ../G4Capstone_bsp//libucosii_bsp.a(alt_lseek.o)
 .debug_loc     0x00013c8f       0x2b ../G4Capstone_bsp//libucosii_bsp.a(alt_main.o)
 .debug_loc     0x00013cba       0x81 ../G4Capstone_bsp//libucosii_bsp.a(alt_open.o)
 .debug_loc     0x00013d3b       0x2b ../G4Capstone_bsp//libucosii_bsp.a(alt_release_fd.o)
 .debug_loc     0x00013d66       0x2b ../G4Capstone_bsp//libucosii_bsp.a(alt_sbrk.o)
 .debug_loc     0x00013d91       0x56 ../G4Capstone_bsp//libucosii_bsp.a(alt_tick.o)
 .debug_loc     0x00013de7       0x2b ../G4Capstone_bsp//libucosii_bsp.a(alt_usleep.o)
 .debug_loc     0x00013e12       0x57 ../G4Capstone_bsp//libucosii_bsp.a(alt_env_lock.o)
 .debug_loc     0x00013e69       0x57 ../G4Capstone_bsp//libucosii_bsp.a(alt_malloc_lock.o)
 .debug_loc     0x00013ec0      0x5e2 ../G4Capstone_bsp//libucosii_bsp.a(os_core.o)
 .debug_loc     0x000144a2       0x2b ../G4Capstone_bsp//libucosii_bsp.a(os_dbg.o)
 .debug_loc     0x000144cd      0x232 ../G4Capstone_bsp//libucosii_bsp.a(os_flag.o)
 .debug_loc     0x000146ff      0x158 ../G4Capstone_bsp//libucosii_bsp.a(os_mbox.o)
 .debug_loc     0x00014857      0x12d ../G4Capstone_bsp//libucosii_bsp.a(os_mem.o)
 .debug_loc     0x00014984      0x1da ../G4Capstone_bsp//libucosii_bsp.a(os_q.o)
 .debug_loc     0x00014b5e      0x158 ../G4Capstone_bsp//libucosii_bsp.a(os_sem.o)
 .debug_loc     0x00014cb6      0x207 ../G4Capstone_bsp//libucosii_bsp.a(os_task.o)
 .debug_loc     0x00014ebd       0xd7 ../G4Capstone_bsp//libucosii_bsp.a(os_time.o)
 .debug_loc     0x00014f94       0x81 ../G4Capstone_bsp//libucosii_bsp.a(alt_sys_init.o)
 .debug_loc     0x00015015       0xac ../G4Capstone_bsp//libucosii_bsp.a(altera_avalon_jtag_uart_fd.o)
 .debug_loc     0x000150c1       0xac ../G4Capstone_bsp//libucosii_bsp.a(altera_avalon_jtag_uart_init.o)
 .debug_loc     0x0001516d       0x2b ../G4Capstone_bsp//libucosii_bsp.a(altera_avalon_jtag_uart_ioctl.o)
 .debug_loc     0x00015198       0x2c ../G4Capstone_bsp//libucosii_bsp.a(altera_avalon_jtag_uart_read.o)
 .debug_loc     0x000151c4       0x2c ../G4Capstone_bsp//libucosii_bsp.a(altera_avalon_jtag_uart_write.o)
 .debug_loc     0x000151f0       0x56 ../G4Capstone_bsp//libucosii_bsp.a(altera_avalon_timer_sc.o)
 .debug_loc     0x00015246      0x285 ../G4Capstone_bsp//libucosii_bsp.a(altera_ro_zipfs.o)
 .debug_loc     0x000154cb      0x2db ../G4Capstone_bsp//libucosii_bsp.a(altera_up_avalon_audio_and_video_config.o)
 .debug_loc     0x000157a6      0x22f ../G4Capstone_bsp//libucosii_bsp.a(altera_up_avalon_character_lcd.o)
 .debug_loc     0x000159d5       0x2b ../G4Capstone_bsp//libucosii_bsp.a(alt_iniche_close.o)
 .debug_loc     0x00015a00       0x2b ../G4Capstone_bsp//libucosii_bsp.a(alt_iniche_dev.o)
 .debug_loc     0x00015a2b       0x2b ../G4Capstone_bsp//libucosii_bsp.a(alt_iniche_read.o)
 .debug_loc     0x00015a56       0x2b ../G4Capstone_bsp//libucosii_bsp.a(alt_iniche_write.o)
 .debug_loc     0x00015a81      0x102 ../G4Capstone_bsp//libucosii_bsp.a(ipnet.o)
 .debug_loc     0x00015b83       0xac ../G4Capstone_bsp//libucosii_bsp.a(ipstart.o)
 .debug_loc     0x00015c2f      0x159 ../G4Capstone_bsp//libucosii_bsp.a(igmp_cmn.o)
 .debug_loc     0x00015d88      0x1af ../G4Capstone_bsp//libucosii_bsp.a(bsdsock.o)
 .debug_loc     0x00015f37       0x56 ../G4Capstone_bsp//libucosii_bsp.a(cksum.o)
 .debug_loc     0x00015f8d      0x204 ../G4Capstone_bsp//libucosii_bsp.a(in_utils.o)
 .debug_loc     0x00016191       0x81 ../G4Capstone_bsp//libucosii_bsp.a(netmain.o)
 .debug_loc     0x00016212      0x12f ../G4Capstone_bsp//libucosii_bsp.a(tk_crnos.o)
 .debug_loc     0x00016341      0x35c ../G4Capstone_bsp//libucosii_bsp.a(dhcpclnt.o)
 .debug_loc     0x0001669d       0x2b ../G4Capstone_bsp//libucosii_bsp.a(dhcputil.o)
 .debug_loc     0x000166c8      0x102 ../G4Capstone_bsp//libucosii_bsp.a(pktalloc.o)
 .debug_loc     0x000167ca       0x81 ../G4Capstone_bsp//libucosii_bsp.a(q.o)
 .debug_loc     0x0001684b       0x56 ../G4Capstone_bsp//libucosii_bsp.a(udp_open.o)
 .debug_loc     0x000168a1      0x158 ../G4Capstone_bsp//libucosii_bsp.a(brdutils.o)
 .debug_loc     0x000169f9       0xd8 ../G4Capstone_bsp//libucosii_bsp.a(osportco.o)
 .debug_loc     0x00016ad1      0x183 ../G4Capstone_bsp//libucosii_bsp.a(targnios.o)
 .debug_loc     0x00016c54      0x306 ../G4Capstone_bsp//libucosii_bsp.a(nptcp.o)
 .debug_loc     0x00016f5a       0x82 ../G4Capstone_bsp//libucosii_bsp.a(rawsock.o)
 .debug_loc     0x00016fdc      0x332 ../G4Capstone_bsp//libucosii_bsp.a(sockcall.o)
 .debug_loc     0x0001730e      0x2b1 ../G4Capstone_bsp//libucosii_bsp.a(socket.o)
 .debug_loc     0x000175bf      0x3dd ../G4Capstone_bsp//libucosii_bsp.a(socket2.o)
 .debug_loc     0x0001799c      0x184 ../G4Capstone_bsp//libucosii_bsp.a(soselect.o)
 .debug_loc     0x00017b20      0x12e ../G4Capstone_bsp//libucosii_bsp.a(tcp_in.o)
 .debug_loc     0x00017c4e       0x82 ../G4Capstone_bsp//libucosii_bsp.a(tcp_out.o)
 .debug_loc     0x00017cd0      0x183 ../G4Capstone_bsp//libucosii_bsp.a(tcp_subr.o)
 .debug_loc     0x00017e53       0x81 ../G4Capstone_bsp//libucosii_bsp.a(tcp_timr.o)
 .debug_loc     0x00017ed4       0xac ../G4Capstone_bsp//libucosii_bsp.a(tcp_usr.o)
 .debug_loc     0x00017f80       0x2b ../G4Capstone_bsp//libucosii_bsp.a(tcpport.o)
 .debug_loc     0x00017fab      0x102 ../G4Capstone_bsp//libucosii_bsp.a(udpsock.o)
 .debug_loc     0x000180ad       0x2b ../G4Capstone_bsp//libucosii_bsp.a(alt_alarm_start.o)
 .debug_loc     0x000180d8       0x2b ../G4Capstone_bsp//libucosii_bsp.a(alt_busy_sleep.o)
 .debug_loc     0x00018103       0x56 ../G4Capstone_bsp//libucosii_bsp.a(alt_close.o)
 .debug_loc     0x00018159       0x2b ../G4Capstone_bsp//libucosii_bsp.a(alt_dev.o)
 .debug_loc     0x00018184       0x56 ../G4Capstone_bsp//libucosii_bsp.a(alt_dev_llist_insert.o)
 .debug_loc     0x000181da       0x2b ../G4Capstone_bsp//libucosii_bsp.a(alt_do_ctors.o)
 .debug_loc     0x00018205       0x2b ../G4Capstone_bsp//libucosii_bsp.a(alt_do_dtors.o)
 .debug_loc     0x00018230       0x2b ../G4Capstone_bsp//libucosii_bsp.a(alt_find_dev.o)
 .debug_loc     0x0001825b       0x2b ../G4Capstone_bsp//libucosii_bsp.a(alt_find_file.o)
 .debug_loc     0x00018286       0x2b ../G4Capstone_bsp//libucosii_bsp.a(alt_fs_reg.o)
 .debug_loc     0x000182b1       0x2b ../G4Capstone_bsp//libucosii_bsp.a(alt_get_fd.o)
 .debug_loc     0x000182dc       0xac ../G4Capstone_bsp//libucosii_bsp.a(alt_iic.o)
 .debug_loc     0x00018388       0x2b ../G4Capstone_bsp//libucosii_bsp.a(alt_iic_isr_register.o)
 .debug_loc     0x000183b3       0x56 ../G4Capstone_bsp//libucosii_bsp.a(alt_io_redirect.o)
 .debug_loc     0x00018409       0x2b ../G4Capstone_bsp//libucosii_bsp.a(alt_irq_handler.o)
 .debug_loc     0x00018434       0x56 ../G4Capstone_bsp//libucosii_bsp.a(alt_read.o)
 .debug_loc     0x0001848a       0x2b ../G4Capstone_bsp//libucosii_bsp.a(alt_remap_cached.o)
 .debug_loc     0x000184b5       0x2b ../G4Capstone_bsp//libucosii_bsp.a(alt_remap_uncached.o)
 .debug_loc     0x000184e0       0x56 ../G4Capstone_bsp//libucosii_bsp.a(alt_write.o)
 .debug_loc     0x00018536       0x2b ../G4Capstone_bsp//libucosii_bsp.a(altera_nios2_qsys_irq.o)
 .debug_loc     0x00018561      0x1ae ../G4Capstone_bsp//libucosii_bsp.a(os_cpu_c.o)
 .debug_loc     0x0001870f      0x12d ../G4Capstone_bsp//libucosii_bsp.a(allports.o)
 .debug_loc     0x0001883c       0xac ../G4Capstone_bsp//libucosii_bsp.a(timeouts.o)
 .debug_loc     0x000188e8       0x56 ../G4Capstone_bsp//libucosii_bsp.a(tk_misc.o)
 .debug_loc     0x0001893e       0x2b ../G4Capstone_bsp//libucosii_bsp.a(alt_iniche_fcntl.o)
 .debug_loc     0x00018969      0x204 ../G4Capstone_bsp//libucosii_bsp.a(et_arp.o)
 .debug_loc     0x00018b6d       0xac ../G4Capstone_bsp//libucosii_bsp.a(iface.o)
 .debug_loc     0x00018c19      0x207 ../G4Capstone_bsp//libucosii_bsp.a(ip.o)
 .debug_loc     0x00018e20      0x2b2 ../G4Capstone_bsp//libucosii_bsp.a(ip_reasm.o)
 .debug_loc     0x000190d2       0x81 ../G4Capstone_bsp//libucosii_bsp.a(ipdemux.o)
 .debug_loc     0x00019153       0x81 ../G4Capstone_bsp//libucosii_bsp.a(ipmc.o)
 .debug_loc     0x000191d4       0x81 ../G4Capstone_bsp//libucosii_bsp.a(ipport.o)
 .debug_loc     0x00019255      0x102 ../G4Capstone_bsp//libucosii_bsp.a(ipraw.o)
 .debug_loc     0x00019357       0x81 ../G4Capstone_bsp//libucosii_bsp.a(iproute.o)
 .debug_loc     0x000193d8      0x12f ../G4Capstone_bsp//libucosii_bsp.a(udp.o)
 .debug_loc     0x00019507       0x2b ../G4Capstone_bsp//libucosii_bsp.a(igmp.o)
 .debug_loc     0x00019532       0xd7 ../G4Capstone_bsp//libucosii_bsp.a(igmp2.o)
 .debug_loc     0x00019609       0xac ../G4Capstone_bsp//libucosii_bsp.a(ipopt.o)
 .debug_loc     0x000196b5       0x57 ../G4Capstone_bsp//libucosii_bsp.a(u_mctest.o)
 .debug_loc     0x0001970c       0x56 ../G4Capstone_bsp//libucosii_bsp.a(dhcsetup.o)
 .debug_loc     0x00019762      0x183 ../G4Capstone_bsp//libucosii_bsp.a(memdev.o)
 .debug_loc     0x000198e5      0x183 ../G4Capstone_bsp//libucosii_bsp.a(parseip.o)
 .debug_loc     0x00019a68       0x2b ../G4Capstone_bsp//libucosii_bsp.a(tcpcksum.o)
 .debug_loc     0x00019a93      0x158 ../G4Capstone_bsp//libucosii_bsp.a(in_pcb.o)
 .debug_loc     0x00019beb      0x4b4 ../G4Capstone_bsp//libucosii_bsp.a(vfsfiles.o)
 .debug_loc     0x0001a09f       0x2b ../G4Capstone_bsp//libucosii_bsp.a(vfsport.o)
 .debug_loc     0x0001a0ca       0x56 ../G4Capstone_bsp//libucosii_bsp.a(alt_fcntl.o)
 .debug_loc     0x0001a120       0xad ../G4Capstone_bsp//libucosii_bsp.a(icmp.o)
 .debug_loc     0x0001a1cd       0x1e /OPT/altera/12.1/tools/nios2eds/bin/gnu/H-i686-pc-linux-gnu/bin/../lib/gcc/nios2-elf/4.1.2/../../../../nios2-elf/lib/libc.a(lib_a-atexit.o)
 .debug_loc     0x0001a1eb       0x3c /OPT/altera/12.1/tools/nios2eds/bin/gnu/H-i686-pc-linux-gnu/bin/../lib/gcc/nios2-elf/4.1.2/../../../../nios2-elf/lib/libc.a(lib_a-calloc.o)
 .debug_loc     0x0001a227       0x3d /OPT/altera/12.1/tools/nios2eds/bin/gnu/H-i686-pc-linux-gnu/bin/../lib/gcc/nios2-elf/4.1.2/../../../../nios2-elf/lib/libc.a(lib_a-exit.o)
 .debug_loc     0x0001a264      0x10b /OPT/altera/12.1/tools/nios2eds/bin/gnu/H-i686-pc-linux-gnu/bin/../lib/gcc/nios2-elf/4.1.2/../../../../nios2-elf/lib/libc.a(lib_a-getc.o)
 .debug_loc     0x0001a36f       0x3c /OPT/altera/12.1/tools/nios2eds/bin/gnu/H-i686-pc-linux-gnu/bin/../lib/gcc/nios2-elf/4.1.2/../../../../nios2-elf/lib/libc.a(lib_a-malloc.o)
 .debug_loc     0x0001a3ab       0x6e /OPT/altera/12.1/tools/nios2eds/bin/gnu/H-i686-pc-linux-gnu/bin/../lib/gcc/nios2-elf/4.1.2/../../../../nios2-elf/lib/libc.a(lib_a-rget.o)
 .debug_loc     0x0001a419       0x8b /OPT/altera/12.1/tools/nios2eds/bin/gnu/H-i686-pc-linux-gnu/bin/../lib/gcc/nios2-elf/4.1.2/../../../../nios2-elf/lib/libc.a(lib_a-vprintf.o)
 .debug_loc     0x0001a4a4       0xd1 /OPT/altera/12.1/tools/nios2eds/bin/gnu/H-i686-pc-linux-gnu/bin/../lib/gcc/nios2-elf/4.1.2/../../../../nios2-elf/lib/libc.a(lib_a-vsprintf.o)
 .debug_loc     0x0001a575      0x120 /OPT/altera/12.1/tools/nios2eds/bin/gnu/H-i686-pc-linux-gnu/bin/../lib/gcc/nios2-elf/4.1.2/../../../../nios2-elf/lib/libc.a(lib_a-__atexit.o)
 .debug_loc     0x0001a695      0x1cb /OPT/altera/12.1/tools/nios2eds/bin/gnu/H-i686-pc-linux-gnu/bin/../lib/gcc/nios2-elf/4.1.2/../../../../nios2-elf/lib/libc.a(lib_a-__call_atexit.o)
 .debug_loc     0x0001a860       0x56 ../G4Capstone_bsp//libucosii_bsp.a(alt_exit.o)

.debug_macinfo
 *(.debug_macinfo)

.debug_weaknames
 *(.debug_weaknames)

.debug_funcnames
 *(.debug_funcnames)

.debug_typenames
 *(.debug_typenames)

.debug_varnames
 *(.debug_varnames)

.debug_alt_sim_info
                0x00000000       0x40
 *(.debug_alt_sim_info)
 .debug_alt_sim_info
                0x00000000       0x10 ../G4Capstone_bsp//obj/HAL/src/crt0.o
 .debug_alt_sim_info
                0x00000010       0x30 ../G4Capstone_bsp//libucosii_bsp.a(alt_busy_sleep.o)
                0x01000000                __alt_data_end = 0x1000000
                0x01000000                PROVIDE (__alt_stack_pointer, __alt_data_end)
                0x00e38990                PROVIDE (__alt_stack_limit, __alt_stack_base)
                0x00e38990                PROVIDE (__alt_heap_start, end)
                0x01000000                PROVIDE (__alt_heap_limit, 0x1000000)
OUTPUT(G4Capstone.elf elf32-littlenios2)

.debug_ranges   0x00000000      0xd10
 .debug_ranges  0x00000000       0x30 obj/default/srec_flash.o
 .debug_ranges  0x00000030       0x20 /OPT/altera/12.1/tools/nios2eds/bin/gnu/H-i686-pc-linux-gnu/bin/../lib/gcc/nios2-elf/4.1.2/../../../../nios2-elf/lib/libc.a(lib_a-fflush.o)
 .debug_ranges  0x00000050       0x18 /OPT/altera/12.1/tools/nios2eds/bin/gnu/H-i686-pc-linux-gnu/bin/../lib/gcc/nios2-elf/4.1.2/../../../../nios2-elf/lib/libc.a(lib_a-fread.o)
 .debug_ranges  0x00000068       0xa0 /OPT/altera/12.1/tools/nios2eds/bin/gnu/H-i686-pc-linux-gnu/bin/../lib/gcc/nios2-elf/4.1.2/../../../../nios2-elf/lib/libc.a(lib_a-fwalk.o)
 .debug_ranges  0x00000108       0x70 /OPT/altera/12.1/tools/nios2eds/bin/gnu/H-i686-pc-linux-gnu/bin/../lib/gcc/nios2-elf/4.1.2/../../../../nios2-elf/lib/libc.a(lib_a-mallocr.o)
 .debug_ranges  0x00000178      0x1b8 /OPT/altera/12.1/tools/nios2eds/bin/gnu/H-i686-pc-linux-gnu/bin/../lib/gcc/nios2-elf/4.1.2/../../../../nios2-elf/lib/libc.a(lib_a-strstr.o)
 .debug_ranges  0x00000330      0x168 /OPT/altera/12.1/tools/nios2eds/bin/gnu/H-i686-pc-linux-gnu/bin/../lib/gcc/nios2-elf/4.1.2/../../../../nios2-elf/lib/libc.a(lib_a-vfprintf.o)
 .debug_ranges  0x00000498       0xd0 /OPT/altera/12.1/tools/nios2eds/bin/gnu/H-i686-pc-linux-gnu/bin/../lib/gcc/nios2-elf/4.1.2/../../../../nios2-elf/lib/libc.a(lib_a-vfscanf.o)
 .debug_ranges  0x00000568       0x28 /OPT/altera/12.1/tools/nios2eds/bin/gnu/H-i686-pc-linux-gnu/bin/../lib/gcc/nios2-elf/4.1.2/../../../../nios2-elf/lib/libc.a(lib_a-fvwrite.o)
 .debug_ranges  0x00000590      0x110 /OPT/altera/12.1/tools/nios2eds/bin/gnu/H-i686-pc-linux-gnu/bin/../lib/gcc/nios2-elf/4.1.2/../../../../nios2-elf/lib/libc.a(lib_a-reallocr.o)
 .debug_ranges  0x000006a0       0x68 /OPT/altera/12.1/tools/nios2eds/bin/gnu/H-i686-pc-linux-gnu/bin/../lib/gcc/nios2-elf/4.1.2/../../../../nios2-elf/lib/libc.a(lib_a-strtod.o)
 .debug_ranges  0x00000708       0x38 /OPT/altera/12.1/tools/nios2eds/bin/gnu/H-i686-pc-linux-gnu/bin/../lib/gcc/nios2-elf/4.1.2/../../../../nios2-elf/lib/libc.a(lib_a-callocr.o)
 .debug_ranges  0x00000740       0x50 /OPT/altera/12.1/tools/nios2eds/bin/gnu/H-i686-pc-linux-gnu/bin/../lib/gcc/nios2-elf/4.1.2/../../../../nios2-elf/lib/libc.a(lib_a-gdtoa-gethex.o)
 .debug_ranges  0x00000790       0x68 /OPT/altera/12.1/tools/nios2eds/bin/gnu/H-i686-pc-linux-gnu/bin/../lib/gcc/nios2-elf/4.1.2/libgcc.a(_muldi3.o)
 .debug_ranges  0x000007f8      0x188 /OPT/altera/12.1/tools/nios2eds/bin/gnu/H-i686-pc-linux-gnu/bin/../lib/gcc/nios2-elf/4.1.2/libgcc.a(_udivdi3.o)
 .debug_ranges  0x00000980      0x198 /OPT/altera/12.1/tools/nios2eds/bin/gnu/H-i686-pc-linux-gnu/bin/../lib/gcc/nios2-elf/4.1.2/libgcc.a(_umoddi3.o)
 .debug_ranges  0x00000b18       0x30 /OPT/altera/12.1/tools/nios2eds/bin/gnu/H-i686-pc-linux-gnu/bin/../lib/gcc/nios2-elf/4.1.2/libgcc.a(_addsub_df.o)
 .debug_ranges  0x00000b48       0x88 /OPT/altera/12.1/tools/nios2eds/bin/gnu/H-i686-pc-linux-gnu/bin/../lib/gcc/nios2-elf/4.1.2/libgcc.a(_mul_df.o)
 .debug_ranges  0x00000bd0       0x50 /OPT/altera/12.1/tools/nios2eds/bin/gnu/H-i686-pc-linux-gnu/bin/../lib/gcc/nios2-elf/4.1.2/libgcc.a(_div_df.o)
 .debug_ranges  0x00000c20       0x18 /OPT/altera/12.1/tools/nios2eds/bin/gnu/H-i686-pc-linux-gnu/bin/../lib/gcc/nios2-elf/4.1.2/libgcc.a(_usi_to_df.o)
 .debug_ranges  0x00000c38       0x28 /OPT/altera/12.1/tools/nios2eds/bin/gnu/H-i686-pc-linux-gnu/bin/../lib/gcc/nios2-elf/4.1.2/libgcc.a(_clzsi2.o)
 .debug_ranges  0x00000c60       0x28 /OPT/altera/12.1/tools/nios2eds/bin/gnu/H-i686-pc-linux-gnu/bin/../lib/gcc/nios2-elf/4.1.2/libgcc.a(_pack_df.o)
 .debug_ranges  0x00000c88       0x18 ../G4Capstone_bsp//libucosii_bsp.a(altera_avalon_jtag_uart_init.o)
 .debug_ranges  0x00000ca0       0x28 ../G4Capstone_bsp//libucosii_bsp.a(alt_irq_entry.o)
 .debug_ranges  0x00000cc8       0x30 ../G4Capstone_bsp//libucosii_bsp.a(alt_exception_entry.o)
 .debug_ranges  0x00000cf8       0x18 /OPT/altera/12.1/tools/nios2eds/bin/gnu/H-i686-pc-linux-gnu/bin/../lib/gcc/nios2-elf/4.1.2/../../../../nios2-elf/lib/libc.a(lib_a-__call_atexit.o)
