
G4Capstone.elf:     file format elf32-littlenios2
G4Capstone.elf
architecture: nios2, flags 0x00000112:
EXEC_P, HAS_SYMS, D_PAGED
start address 0x00800000

Program Header:
    LOAD off    0x00001000 vaddr 0x00800000 paddr 0x00800000 align 2**12
         filesz 0x00050adc memsz 0x00638990 flags rwx
    LOAD off    0x00052000 vaddr 0x01400000 paddr 0x01400000 align 2**12
         filesz 0x00000000 memsz 0x00000000 flags r-x
    LOAD off    0x00052020 vaddr 0x01904020 paddr 0x01904020 align 2**12
         filesz 0x0000019c memsz 0x0000019c flags r-x

Sections:
Idx Name          Size      VMA       LMA       File off  Algn
  0 .entry        00000000  01400000  01400000  00052000  2**5
                  CONTENTS, ALLOC, LOAD, READONLY, CODE
  1 .exceptions   0000019c  01904020  01904020  00052020  2**2
                  CONTENTS, ALLOC, LOAD, READONLY, CODE
  2 .text         0004a9e0  00800000  00800000  00001000  2**2
                  CONTENTS, ALLOC, LOAD, READONLY, CODE
  3 .rodata       0000427c  0084a9e0  0084a9e0  0004b9e0  2**2
                  CONTENTS, ALLOC, LOAD, READONLY, DATA
  4 .rwdata       00001e80  0084ec5c  0084ec5c  0004fc5c  2**2
                  CONTENTS, ALLOC, LOAD, DATA, SMALL_DATA
  5 .bss          005e818e  00850adc  00850adc  00051adc  2**2
                  ALLOC, SMALL_DATA
  6 .comment      00000026  00000000  00000000  000521bc  2**0
                  CONTENTS, READONLY
  7 .debug_aranges 00001e70  00000000  00000000  000521e8  2**3
                  CONTENTS, READONLY, DEBUGGING
  8 .debug_pubnames 00005a3f  00000000  00000000  00054058  2**0
                  CONTENTS, READONLY, DEBUGGING
  9 .debug_info   00087758  00000000  00000000  00059a97  2**0
                  CONTENTS, READONLY, DEBUGGING
 10 .debug_abbrev 00014a6d  00000000  00000000  000e11ef  2**0
                  CONTENTS, READONLY, DEBUGGING
 11 .debug_line   00048ac2  00000000  00000000  000f5c5c  2**0
                  CONTENTS, READONLY, DEBUGGING
 12 .debug_frame  00006ca8  00000000  00000000  0013e720  2**2
                  CONTENTS, READONLY, DEBUGGING
 13 .debug_str    00003f6d  00000000  00000000  001453c8  2**0
                  CONTENTS, READONLY, DEBUGGING
 14 .debug_loc    0001a8b6  00000000  00000000  00149335  2**0
                  CONTENTS, READONLY, DEBUGGING
 15 .debug_alt_sim_info 00000040  00000000  00000000  00163bec  2**2
                  CONTENTS, READONLY, DEBUGGING
 16 .debug_ranges 00000d10  00000000  00000000  00163c30  2**3
                  CONTENTS, READONLY, DEBUGGING
 17 .thread_model 00000006  00000000  00000000  0016f6ff  2**0
                  CONTENTS, READONLY
 18 .cpu          0000000c  00000000  00000000  0016f705  2**0
                  CONTENTS, READONLY
 19 .qsys         00000001  00000000  00000000  0016f711  2**0
                  CONTENTS, READONLY
 20 .simulation_enabled 00000001  00000000  00000000  0016f712  2**0
                  CONTENTS, READONLY
 21 .sysid_hash   00000004  00000000  00000000  0016f713  2**0
                  CONTENTS, READONLY
 22 .sysid_base   00000004  00000000  00000000  0016f717  2**0
                  CONTENTS, READONLY
 23 .sysid_time   00000004  00000000  00000000  0016f71b  2**0
                  CONTENTS, READONLY
 24 .stderr_dev   0000000b  00000000  00000000  0016f71f  2**0
                  CONTENTS, READONLY
 25 .stdin_dev    0000000b  00000000  00000000  0016f72a  2**0
                  CONTENTS, READONLY
 26 .stdout_dev   0000000b  00000000  00000000  0016f735  2**0
                  CONTENTS, READONLY
 27 .sopc_system_name 0000000d  00000000  00000000  0016f740  2**0
                  CONTENTS, READONLY
 28 .quartus_project_dir 0000002d  00000000  00000000  0016f74d  2**0
                  CONTENTS, READONLY
 29 .jdi          000051db  00000000  00000000  0016f77a  2**0
                  CONTENTS, READONLY
 30 .sopcinfo     000900bc  00000000  00000000  00174955  2**0
                  CONTENTS, READONLY
SYMBOL TABLE:
01400000 l    d  .entry	00000000 .entry
01904020 l    d  .exceptions	00000000 .exceptions
00800000 l    d  .text	00000000 .text
0084a9e0 l    d  .rodata	00000000 .rodata
0084ec5c l    d  .rwdata	00000000 .rwdata
00850adc l    d  .bss	00000000 .bss
00000000 l    d  .comment	00000000 .comment
00000000 l    d  .debug_aranges	00000000 .debug_aranges
00000000 l    d  .debug_pubnames	00000000 .debug_pubnames
00000000 l    d  .debug_info	00000000 .debug_info
00000000 l    d  .debug_abbrev	00000000 .debug_abbrev
00000000 l    d  .debug_line	00000000 .debug_line
00000000 l    d  .debug_frame	00000000 .debug_frame
00000000 l    d  .debug_str	00000000 .debug_str
00000000 l    d  .debug_loc	00000000 .debug_loc
00000000 l    d  .debug_alt_sim_info	00000000 .debug_alt_sim_info
00000000 l    d  .debug_ranges	00000000 .debug_ranges
00800034 l       .text	00000000 alt_after_alt_main
00000000 l    df *ABS*	00000000 alt_irq_handler.c
00000000 l    df *ABS*	00000000 alt_error_handler.c
00000000 l    df *ABS*	00000000 dm9000a.c
00800c74 l     F .text	00000054 dm9000a_rxReady
00800cc8 l     F .text	000003c4 dm9000a_isr
00000000 l    df *ABS*	00000000 http.c
0084b098 l     O .rodata	0000015f canned_http_response
0084b1f8 l     O .rodata	000000eb canned_response2
00850cf8 l     O .bss	0000cb10 conn.5978
00000000 l    df *ABS*	00000000 network_utilities.c
00000000 l    df *ABS*	00000000 srec_flash.c
00000000 l    df *ABS*	00000000 web_server.c
00804d20 l     F .text	000000d0 WSCreateTasks
00000000 l    df *ABS*	00000000 lib2-divmod.c
00804f24 l     F .text	0000007c udivmodsi4
00000000 l    df *ABS*	00000000 atoi.c
00000000 l    df *ABS*	00000000 ctype_.c
0084bded l     O .rodata	00000180 _ctype_b
00000000 l    df *ABS*	00000000 fclose.c
00000000 l    df *ABS*	00000000 fflush.c
00000000 l    df *ABS*	00000000 fgetpos.c
00000000 l    df *ABS*	00000000 findfp.c
00805424 l     F .text	00000058 std
00805530 l     F .text	00000008 __fp_lock
00805538 l     F .text	00000008 __fp_unlock
00000000 l    df *ABS*	00000000 fopen.c
00000000 l    df *ABS*	00000000 fprintf.c
00000000 l    df *ABS*	00000000 fread.c
00000000 l    df *ABS*	00000000 mallocr.c
00000000 l    df *ABS*	00000000 fseek.c
00000000 l    df *ABS*	00000000 fstatr.c
00000000 l    df *ABS*	00000000 ftell.c
00000000 l    df *ABS*	00000000 fwalk.c
00000000 l    df *ABS*	00000000 fwrite.c
00000000 l    df *ABS*	00000000 impure.c
0084ec74 l     O .rwdata	00000400 impure_data
00000000 l    df *ABS*	00000000 int_errno.c
00000000 l    df *ABS*	00000000 makebuf.c
00000000 l    df *ABS*	00000000 mallocr.c
00000000 l    df *ABS*	00000000 memcpy.c
00000000 l    df *ABS*	00000000 memmove.c
00000000 l    df *ABS*	00000000 memset.c
00000000 l    df *ABS*	00000000 openr.c
00000000 l    df *ABS*	00000000 perror.c
00000000 l    df *ABS*	00000000 printf.c
00000000 l    df *ABS*	00000000 puts.c
00000000 l    df *ABS*	00000000 refill.c
008075e0 l     F .text	0000001c lflush
00000000 l    df *ABS*	00000000 sbrkr.c
00000000 l    df *ABS*	00000000 sprintf.c
00000000 l    df *ABS*	00000000 sscanf.c
00807740 l     F .text	00000008 eofread
00000000 l    df *ABS*	00000000 stdio.c
00000000 l    df *ABS*	00000000 strcasecmp.c
00000000 l    df *ABS*	00000000 strcat.c
00000000 l    df *ABS*	00000000 strchr.c
00000000 l    df *ABS*	00000000 strcmp.c
00000000 l    df *ABS*	00000000 strcpy.c
00000000 l    df *ABS*	00000000 strerror.c
00000000 l    df *ABS*	00000000 strlen.c
00000000 l    df *ABS*	00000000 strncmp.c
00000000 l    df *ABS*	00000000 strncpy.c
00000000 l    df *ABS*	00000000 strstr.c
0080859c l     F .text	00000134 critical_factorization
00000000 l    df *ABS*	00000000 strtok.c
00000000 l    df *ABS*	00000000 strtok_r.c
00000000 l    df *ABS*	00000000 strtol.c
00000000 l    df *ABS*	00000000 u_strerr.c
00000000 l    df *ABS*	00000000 vfprintf.c
00809064 l     F .text	00000058 __sprint_r
0084c78e l     O .rodata	00000010 blanks.3452
0084c77e l     O .rodata	00000010 zeroes.3453
00000000 l    df *ABS*	00000000 vfscanf.c
0084c7a6 l     O .rodata	00000022 basefix.3357
00000000 l    df *ABS*	00000000 writer.c
00000000 l    df *ABS*	00000000 wsetup.c
00000000 l    df *ABS*	00000000 closer.c
00000000 l    df *ABS*	00000000 dtoa.c
0080c930 l     F .text	00000218 quorem
00000000 l    df *ABS*	00000000 flags.c
00000000 l    df *ABS*	00000000 fputc.c
00000000 l    df *ABS*	00000000 fputs.c
00000000 l    df *ABS*	00000000 fvwrite.c
00000000 l    df *ABS*	00000000 isattyr.c
00000000 l    df *ABS*	00000000 iswspace.c
00000000 l    df *ABS*	00000000 locale.c
008509b0 l     O .rwdata	00000004 charset
0084c7e8 l     O .rodata	00000030 lconv
00000000 l    df *ABS*	00000000 lseekr.c
00000000 l    df *ABS*	00000000 mbrtowc.c
00000000 l    df *ABS*	00000000 mbtowc_r.c
00000000 l    df *ABS*	00000000 memchr.c
00000000 l    df *ABS*	00000000 memcmp.c
00000000 l    df *ABS*	00000000 mprec.c
0084c930 l     O .rodata	0000000c p05.2458
00000000 l    df *ABS*	00000000 putc.c
00000000 l    df *ABS*	00000000 readr.c
00000000 l    df *ABS*	00000000 mallocr.c
00000000 l    df *ABS*	00000000 s_isinfd.c
00000000 l    df *ABS*	00000000 s_isnand.c
00000000 l    df *ABS*	00000000 sccl.c
00000000 l    df *ABS*	00000000 sf_nan.c
00000000 l    df *ABS*	00000000 strtod.c
00810538 l     F .text	00000048 match
0084f49c l     O .rwdata	00000014 fpi.1950
0084c94c l     O .rodata	00000028 tinytens
0084f488 l     O .rwdata	00000014 fpinan.1986
00000000 l    df *ABS*	00000000 strtoll_r.c
00000000 l    df *ABS*	00000000 strtoul.c
00000000 l    df *ABS*	00000000 strtoull_r.c
00000000 l    df *ABS*	00000000 ungetc.c
00000000 l    df *ABS*	00000000 wbuf.c
00000000 l    df *ABS*	00000000 mallocr.c
00000000 l    df *ABS*	00000000 gdtoa-gethex.c
00812894 l     F .text	00000024 htinit
00812920 l     F .text	000000b0 rshift
00000000 l    df *ABS*	00000000 gdtoa-hexnan.c
00813188 l     F .text	0000004c L_shift
00000000 l    df *ABS*	00000000 libgcc2.c
00000000 l    df *ABS*	00000000 libgcc2.c
00000000 l    df *ABS*	00000000 libgcc2.c
00000000 l    df *ABS*	00000000 libgcc2.c
00000000 l    df *ABS*	00000000 fp-bit.c
00000000 l    df *ABS*	00000000 fp-bit.c
00000000 l    df *ABS*	00000000 fp-bit.c
00000000 l    df *ABS*	00000000 dp-bit.c
0081424c l     F .text	00000410 _fpadd_parts
00000000 l    df *ABS*	00000000 dp-bit.c
00000000 l    df *ABS*	00000000 dp-bit.c
00000000 l    df *ABS*	00000000 dp-bit.c
00000000 l    df *ABS*	00000000 dp-bit.c
00000000 l    df *ABS*	00000000 dp-bit.c
00000000 l    df *ABS*	00000000 dp-bit.c
00000000 l    df *ABS*	00000000 dp-bit.c
00000000 l    df *ABS*	00000000 dp-bit.c
00000000 l    df *ABS*	00000000 dp-bit.c
00000000 l    df *ABS*	00000000 dp-bit.c
00000000 l    df *ABS*	00000000 dp-bit.c
00000000 l    df *ABS*	00000000 dp-bit.c
00000000 l    df *ABS*	00000000 dp-bit.c
00000000 l    df *ABS*	00000000 libgcc2.c
00000000 l    df *ABS*	00000000 libgcc2.c
00000000 l    df *ABS*	00000000 fp-bit.c
00000000 l    df *ABS*	00000000 fp-bit.c
00000000 l    df *ABS*	00000000 fp-bit.c
00000000 l    df *ABS*	00000000 dp-bit.c
00000000 l    df *ABS*	00000000 dp-bit.c
00000000 l    df *ABS*	00000000 dp-bit.c
00000000 l    df *ABS*	00000000 fp-bit.c
00000000 l    df *ABS*	00000000 alt_dcache_flush.c
00000000 l    df *ABS*	00000000 alt_flash_dev.c
00000000 l    df *ABS*	00000000 alt_fstat.c
00815ecc l     F .text	00000060 alt_get_errno
00000000 l    df *ABS*	00000000 alt_irq_register.c
00000000 l    df *ABS*	00000000 alt_irq_vars.c
00000000 l    df *ABS*	00000000 alt_isatty.c
008161ac l     F .text	00000060 alt_get_errno
00000000 l    df *ABS*	00000000 alt_lseek.c
008162fc l     F .text	00000060 alt_get_errno
00000000 l    df *ABS*	00000000 alt_main.c
00000000 l    df *ABS*	00000000 alt_open.c
00816424 l     F .text	000000dc alt_file_locked
00816688 l     F .text	00000060 alt_get_errno
00000000 l    df *ABS*	00000000 alt_release_fd.c
00000000 l    df *ABS*	00000000 alt_sbrk.c
008509c0 l     O .rwdata	00000004 heap_end
00000000 l    df *ABS*	00000000 alt_tick.c
00000000 l    df *ABS*	00000000 alt_usleep.c
00000000 l    df *ABS*	00000000 alt_env_lock.c
008509cc l     O .rwdata	00000004 lockid
00850b34 l     O .bss	00000004 locks
00000000 l    df *ABS*	00000000 alt_malloc_lock.c
008509d0 l     O .rwdata	00000004 lockid
00850b3c l     O .bss	00000004 locks
00000000 l    df *ABS*	00000000 os_core.c
0081849c l     F .text	00000044 OS_InitMisc
008184e0 l     F .text	0000006c OS_InitRdyList
00818644 l     F .text	000000e0 OS_InitTCBList
008183c0 l     F .text	000000dc OS_InitEventList
0081854c l     F .text	0000007c OS_InitTaskIdle
008185c8 l     F .text	0000007c OS_InitTaskStat
008188b8 l     F .text	00000070 OS_SchedNew
00000000 l    df *ABS*	00000000 os_dbg.c
00000000 l    df *ABS*	00000000 os_flag.c
0081a7d8 l     F .text	00000110 OS_FlagTaskRdy
0081a530 l     F .text	000001c4 OS_FlagBlock
00000000 l    df *ABS*	00000000 os_mbox.c
00000000 l    df *ABS*	00000000 os_mem.c
00000000 l    df *ABS*	00000000 os_q.c
00000000 l    df *ABS*	00000000 os_sem.c
00000000 l    df *ABS*	00000000 os_task.c
00000000 l    df *ABS*	00000000 os_time.c
00000000 l    df *ABS*	00000000 alt_sys_init.c
0084f4b0 l     O .rwdata	0000106c jtag_uart_0
0085051c l     O .rwdata	00000030 altera_ro_zipfs
0085054c l     O .rwdata	00000030 audio_and_video_config_0
0085057c l     O .rwdata	0000002c character_lcd_0
0081fdd0 l     F .text	00000038 alt_dev_reg
00000000 l    df *ABS*	00000000 altera_avalon_jtag_uart_fd.c
00000000 l    df *ABS*	00000000 altera_avalon_jtag_uart_init.c
00820088 l     F .text	000002c4 altera_avalon_jtag_uart_irq
0082034c l     F .text	00000114 altera_avalon_jtag_uart_timeout
00000000 l    df *ABS*	00000000 altera_avalon_jtag_uart_ioctl.c
00000000 l    df *ABS*	00000000 altera_avalon_jtag_uart_read.c
00000000 l    df *ABS*	00000000 altera_avalon_jtag_uart_write.c
00000000 l    df *ABS*	00000000 altera_avalon_timer_sc.c
00820b64 l     F .text	00000070 alt_avalon_timer_sc_irq
00000000 l    df *ABS*	00000000 altera_ro_zipfs.c
00820c64 l     F .text	00000074 read_word
00820cd8 l     F .text	00000050 read_word_inc
00820d28 l     F .text	00000048 read_half_word
00820d70 l     F .text	00000050 read_half_word_inc
00820dc0 l     F .text	00000118 check_file_header
00821004 l     F .text	000000a0 check_directory_table
008210a4 l     F .text	000000ac find_directory_entry
00821150 l     F .text	00000160 find_file_entry_by_name
008212b0 l     F .text	00000180 find_file_entry
00000000 l    df *ABS*	00000000 altera_up_avalon_audio_and_video_config.c
00000000 l    df *ABS*	00000000 altera_up_avalon_character_lcd.c
00000000 l    df *ABS*	00000000 alt_iniche_close.c
00000000 l    df *ABS*	00000000 alt_iniche_dev.c
00000000 l    df *ABS*	00000000 alt_iniche_read.c
00000000 l    df *ABS*	00000000 alt_iniche_write.c
00000000 l    df *ABS*	00000000 ipnet.c
00000000 l    df *ABS*	00000000 ipstart.c
00850ba4 l     O .bss	00000004 nclosers
0085d830 l     O .bss	0000003c closers
00000000 l    df *ABS*	00000000 igmp_cmn.c
00000000 l    df *ABS*	00000000 bsdsock.c
00000000 l    df *ABS*	00000000 cksum.c
00850a54 l     O .rwdata	00000004 cksum_select
00000000 l    df *ABS*	00000000 in_utils.c
0085d86c l     O .bss	00000018 tistring
00000000 l    df *ABS*	00000000 netmain.c
00000000 l    df *ABS*	00000000 tk_crnos.c
00000000 l    df *ABS*	00000000 dhcpclnt.c
00828b0c l     F .text	000000cc dh_getlong
00000000 l    df *ABS*	00000000 dhcputil.c
00000000 l    df *ABS*	00000000 pktalloc.c
00000000 l    df *ABS*	00000000 q.c
00000000 l    df *ABS*	00000000 udp_open.c
0082a838 l       .text	00000000 done
0082a6c8 l       .text	00000000 asm1
0082a7f4 l       .text	00000000 loop0
0082a6f0 l       .text	00000000 loop
0082a810 l       .text	00000000 fold
00000000 l    df *ABS*	00000000 brdutils.c
00850c04 l     O .bss	00000004 kbd_init.3742
00850c10 l     O .bss	00000004 cpu_statusreg
00000000 l    df *ABS*	00000000 osportco.c
00000000 l    df *ABS*	00000000 targnios.c
00000000 l    df *ABS*	00000000 nptcp.c
00850c44 l     O .bss	00000004 in_tcptick
00000000 l    df *ABS*	00000000 rawsock.c
00000000 l    df *ABS*	00000000 sockcall.c
0082ef3c l     F .text	00000098 sockargs
0082e178 l     F .text	000001fc t_getname
00000000 l    df *ABS*	00000000 socket.c
00000000 l    df *ABS*	00000000 socket2.c
00000000 l    df *ABS*	00000000 soselect.c
00000000 l    df *ABS*	00000000 tcp_in.c
00000000 l    df *ABS*	00000000 tcp_out.c
00837270 l     F .text	000000e8 bld_options
00000000 l    df *ABS*	00000000 tcp_subr.c
00000000 l    df *ABS*	00000000 tcp_timr.c
00000000 l    df *ABS*	00000000 tcp_usr.c
00000000 l    df *ABS*	00000000 tcpport.c
00000000 l    df *ABS*	00000000 udpsock.c
00000000 l    df *ABS*	00000000 alt_alarm_start.c
00000000 l    df *ABS*	00000000 alt_busy_sleep.c
00000000 l    df *ABS*	00000000 alt_close.c
00839fcc l     F .text	00000060 alt_get_errno
00000000 l    df *ABS*	00000000 alt_dev.c
0083a02c l     F .text	0000002c alt_dev_null_write
00000000 l    df *ABS*	00000000 alt_dev_llist_insert.c
0083a10c l     F .text	00000060 alt_get_errno
00000000 l    df *ABS*	00000000 alt_do_ctors.c
00000000 l    df *ABS*	00000000 alt_do_dtors.c
00000000 l    df *ABS*	00000000 alt_errno.c
00000000 l    df *ABS*	00000000 alt_find_dev.c
00000000 l    df *ABS*	00000000 alt_find_file.c
00000000 l    df *ABS*	00000000 alt_fs_reg.c
00000000 l    df *ABS*	00000000 alt_get_fd.c
00000000 l    df *ABS*	00000000 alt_iic.c
00000000 l    df *ABS*	00000000 alt_iic_isr_register.c
00000000 l    df *ABS*	00000000 alt_io_redirect.c
0083a838 l     F .text	000000c4 alt_open_fd
00000000 l    df *ABS*	00000000 alt_read.c
0083aa94 l     F .text	00000060 alt_get_errno
00000000 l    df *ABS*	00000000 alt_remap_cached.c
00000000 l    df *ABS*	00000000 alt_remap_uncached.c
00000000 l    df *ABS*	00000000 alt_write.c
0083ac8c l     F .text	00000060 alt_get_errno
00000000 l    df *ABS*	00000000 altera_nios2_qsys_irq.c
00000040 l       *ABS*	00000000 OSCtxSw_SWITCH_PC
00000000 l    df *ABS*	00000000 os_cpu_c.c
00000014 l       *ABS*	00000000 OSTCBNext_OFFSET
00000032 l       *ABS*	00000000 OSTCBPrio_OFFSET
00000000 l       *ABS*	00000000 OSTCBStkPtr_OFFSET
00000000 l    df *ABS*	00000000 allports.c
00850c70 l     O .bss	00000004 inside_pktdemux
00000000 l    df *ABS*	00000000 timeouts.c
0083b698 l     F .text	00000198 check_interval_timers
00850c7c l     O .bss	00000004 numtimers
00000000 l    df *ABS*	00000000 tk_misc.c
00000000 l    df *ABS*	00000000 alt_iniche_fcntl.c
00000000 l    df *ABS*	00000000 et_arp.c
00850c80 l     O .bss	00000004 arp_timer
00850c98 l     O .bss	00000004 cachetime
00000000 l    df *ABS*	00000000 iface.c
00000000 l    df *ABS*	00000000 ip.c
00850ac4 l     O .rwdata	00000004 uid
00000000 l    df *ABS*	00000000 ip_reasm.c
00000000 l    df *ABS*	00000000 ipdemux.c
00000000 l    df *ABS*	00000000 ipmc.c
00000000 l    df *ABS*	00000000 ipport.c
00000000 l    df *ABS*	00000000 ipraw.c
00000000 l    df *ABS*	00000000 iproute.c
00000000 l    df *ABS*	00000000 udp.c
00850cc8 l     O .bss	00000002 usocket
00000000 l    df *ABS*	00000000 igmp.c
00000000 l    df *ABS*	00000000 igmp2.c
00000000 l    df *ABS*	00000000 ipopt.c
00000000 l    df *ABS*	00000000 u_mctest.c
00850acc l     O .rwdata	00000004 iCounter.4500
00000000 l    df *ABS*	00000000 dhcsetup.c
00000000 l    df *ABS*	00000000 memdev.c
00000000 l    df *ABS*	00000000 parseip.c
0085d884 l     O .bss	0000001e nearBuf.4178
00000000 l    df *ABS*	00000000 tcpcksum.c
00000000 l    df *ABS*	00000000 in_pcb.c
00000000 l    df *ABS*	00000000 vfsfiles.c
00000000 l    df *ABS*	00000000 vfsport.c
00000000 l    df *ABS*	00000000 alt_fcntl.c
0084905c l     F .text	00000060 alt_get_errno
00000000 l    df *ABS*	00000000 icmp.c
00850958 l     O .rwdata	00000018 dsts
00000000 l    df *ABS*	00000000 atexit.c
00000000 l    df *ABS*	00000000 calloc.c
00000000 l    df *ABS*	00000000 exit.c
00000000 l    df *ABS*	00000000 getc.c
00000000 l    df *ABS*	00000000 malloc.c
00000000 l    df *ABS*	00000000 rget.c
00000000 l    df *ABS*	00000000 vprintf.c
00000000 l    df *ABS*	00000000 vsprintf.c
00000000 l    df *ABS*	00000000 __atexit.c
00000000 l    df *ABS*	00000000 __call_atexit.c
0084a7bc l     F .text	00000004 register_fini
00000000 l    df *ABS*	00000000 alt_exit.c
0084a970 l     F .text	00000040 alt_sim_halt
00821928 g     F .text	00000038 alt_up_av_config_reset
00e382fc g     O .bss	00000014 soq
0085d8e8 g     O .bss	005b8d88 upload_buf
0080efc0 g     F .text	00000094 _mprec_log10
00821dcc g     F .text	00000064 alt_up_av_config_read_D5M_cfg_register
00850a1e g     O .rwdata	00000002 OSTaskNameSize
0080f0ac g     F .text	00000088 __any_on
0080e784 g     F .text	00000070 _isatty_r
0084c908 g     O .rodata	00000028 __mprec_tinytens
0083d580 g     F .text	00000780 ip_write_internal
00821998 g     F .text	00000030 alt_up_av_config_disable_interrupt
0081635c g     F .text	000000c8 alt_main
00807c7c g     F .text	0000008c strcpy
00807368 g     F .text	000000a0 _puts_r
00829f8c g     F .text	000000ac pk_free
00e384a8 g     O .bss	00000100 alt_irq
0080263c g     F .text	000001ac http_send_file_chunk
008507f8 g     O .rwdata	00000009 rtp_priority
0080e8e4 g     F .text	00000078 _lseek_r
0084a040 g     F .text	00000334 icmp_timex
0082b918 g     F .text	00000044 m_freem
008489c0 g     F .text	00000048 vgetc
0082a9b4 g     F .text	0000001c clock_c
00850c5c g     O .bss	00000004 tcp_optionbuf
0083d048 g     F .text	00000084 if_getbynum
0081bd58 g     F .text	000000d0 OS_MemInit
00850bfc g     O .bss	00000004 dsc_rlyerrs
00850bec g     O .bss	00000004 dsc_releases
008266b4 g     F .text	00000074 TK_OSTaskQuery
0082a6a8 g       .text	00000000 asm_cksum
0081fc98 g     F .text	00000064 OSTimeSet
008488a0 g     F .text	00000120 vgetc_locked
0082b1f4 g     F .text	00000020 post_task_setup
00840f78 g     F .text	00000354 ipr_stats
00838bdc g     F .text	00000134 tcp_attach
00850a64 g     O .rwdata	00000004 reqlist_len
00821fd8 g     F .text	00000034 alt_up_character_lcd_send_cmd
00850978 g     O .rwdata	00000008 sweep_field
0082cdc4 g     F .text	00000084 tcp_tick
00825900 g     F .text	00000074 print_ipad
008265b0 g     F .text	00000104 tcp_wakeup
0080e0fc g     F .text	000000a0 __sflags
00814d6c g     F .text	00000088 __eqdf2
00850ae4 g     O .bss	00000004 last_flash_sector_offset
00850ba8 g     O .bss	00000004 igmp_timers_are_running
00835afc g     F .text	0000012c tcp_pulloutofband
00817018 g     F .text	000006b4 OSEventPendMulti
0080144c g     F .text	00000030 print
00e38990 g       *ABS*	00000000 __alt_heap_start
00821a68 g     F .text	000000ac alt_up_av_config_write_audio_cfg_register
0083b0ec g     F .text	00000020 OSTaskCreateHook
00808dec g     F .text	00000008 strtok_r
00829778 g     F .text	00000074 dhc_ifacedone
00841320 g     F .text	00000400 ip_rcv
008485f0 g     F .text	0000017c vfseek
0083195c g     F .text	00000120 soqremque
00843170 g     F .text	00000858 udpdemux
008072f0 g     F .text	00000044 printf
00850c9c g     O .bss	00000004 rt_mib
008509f6 g     O .rwdata	00000002 OSMboxEn
00829688 g     F .text	00000060 dhc_state_init
0084a664 g     F .text	00000024 vsprintf
00817720 g     F .text	0000007c OSIntEnter
00801e50 g     F .text	00000128 http_handle_accept
0080785c g     F .text	00000068 __sseek
0080548c g     F .text	000000a4 __sinit
008422c4 g     F .text	00000118 in_delmulti
00812694 g     F .text	00000130 __swbuf_r
00850cb4 g     O .bss	00000004 so_evtmap_create
00850a06 g     O .rwdata	00000002 OSQEn
00846b70 g     F .text	00000094 in_pcballoc
00850a80 g     O .rwdata	00000002 socket_defaults
0080e844 g     F .text	00000084 _setlocale_r
0083be74 g     F .text	00000498 send_arp
0080558c g     F .text	00000068 __sfmoreglue
0084765c g     F .text	00000368 vfopen_locked
00812678 g     F .text	0000001c ungetc
00816cd4 g     F .text	000000d0 __malloc_unlock
0083b148 g     F .text	0000001c OSTaskStatHook
0083b57c g     F .text	00000058 prep_modules
00e16670 g     O .bss	0000002a board_funcs
00824e38 g     F .text	000001b8 bsd_i_sockoptlen
00850b44 g     O .bss	00000001 OSLockNesting
008006b0 g     F .text	0000004c dm9000a_ior
00850a5c g     O .rwdata	00000004 xids
00810580 g     F .text	000014e4 _strtod_r
00807d08 g     F .text	00000674 strerror
00800a78 g     F .text	000001c4 prep_dm9000a
00847bbc g     F .text	00000040 vfclose
00e3839c g     O .bss	0000002c tcb
00850a44 g     O .rwdata	00000002 OSDataSize
0083aaf4 g     F .text	00000038 alt_remap_cached
00850b45 g     O .bss	00000001 OSRunning
0083cd7c g     F .text	000002cc grat_arp
008041dc g     F .text	0000005c get_ip_addr
00846588 g     F .text	000000ac inet_pton
0083d1ac g     F .text	0000009c reg_type
00e37ea0 g     O .bss	000000f0 dhc_states
00823c40 g     F .text	0000019c igmp_fasttimo
00847d80 g     F .text	0000005c vunlink_flag_open_files
00829430 g     F .text	00000088 dhc_halt
00850be0 g     O .bss	00000004 dsc_acks
00e383c8 g     O .bss	000000e0 tcpstat
00840828 g     F .text	0000035c ip_reasm_copy_queued_fragments_into_reassy_buffer
0082bea8 g     F .text	000000a8 dtom
00837174 g     F .text	000000fc tcp_setpersist
0082e550 g     F .text	000001a4 t_getsockopt
00807080 g     F .text	000000e0 memmove
00850bf0 g     O .bss	00000004 dsc_naks
0082c34c g     F .text	000005f8 ip_output
0083b18c g     F .text	0000001c OSInitHookBegin
0084a374 g     F .text	00000054 icmp_du
00850a58 g     O .rwdata	00000004 num_net_tasks
00850cd8 g     O .bss	00000004 vfiles
00850a3c g     O .rwdata	00000002 OSTmrSize
00845c84 g     F .text	00000104 dhc_main_ipset
0080557c g     F .text	00000010 _cleanup
0083f920 g     F .text	000002e0 ip_reasm_process_first_fragment
00800c3c g     F .text	00000038 dm9000a_init
0080f134 g     F .text	000000bc _Balloc
00808d48 g     F .text	000000a4 __strtok_r
00803ff0 g     F .text	00000194 get_board_mac_addr
00850b48 g     O .bss	00000004 OSIdleCtr
00844b9c g     F .text	000005f0 ip_setmoptions
00814e7c g     F .text	00000088 __gtdf2
00846048 g     F .text	0000002c md_fseek
0083adb8 g       .text	00000000 OSStartTsk
00000000  w      *UND*	00000000 __errno
00821f5c g     F .text	0000007c get_DDRAM_addr
00818bec g     F .text	000002e0 OS_TCBInit
0083fc00 g     F .text	000000a0 ip_reassm
008294b8 g     F .text	000001d0 dhc_reclaim
00850990 g     O .rwdata	00000008 flash_field
00e38788 g     O .bss	00000010 udp_mib
01400000 g     F .entry	00000000 __reset
0082ed88 g     F .text	000000e4 t_shutdown
0082e7e4 g     F .text	00000150 t_recvfrom
00801bb4 g     F .text	000000f0 http_reset_connection
00850a42 g     O .rwdata	00000002 OSTmrWheelTblSize
00845380 g     F .text	0000067c u_mctest_run
0084244c g     F .text	00000094 prep_ifaces
00850bc4 g     O .bss	00000001 to_netmain
00829bf8 g     F .text	000000dc pk_alloc
008509e2 g     O .rwdata	00000002 OSEventSize
00850b4c g     O .bss	00000001 OSPrioHighRdy
00806330 g     F .text	00000074 _fstat_r
00826328 g     F .text	0000004c tk_nettick
0083b10c g     F .text	00000020 OSTaskDelHook
0080437c g     F .text	000002a4 ProgFlash
00850b00 g     O .bss	00000004 errno
0084a5cc g     F .text	00000014 __srget
00832c88 g     F .text	000000cc in_pcbnotify
0080c60c g     F .text	00000024 __svfscanf
0083ad98 g       .text	00000000 OSStartHighRdy
00e37f90 g     O .bss	00000014 lilfreeq
00800038 g     F .text	00000624 alt_uCOSIIErrorHandler
00842508 g     F .text	00000028 evtmap_setup
0081e46c g     F .text	00000200 OSTaskCreateExt
00850bc8 g     O .bss	00000004 tcp_sleep_timeout
00832388 g     F .text	000001d0 sbdrop
00850cb0 g     O .bss	00000004 net_system_exit
00e38798 g     O .bss	00000068 icmp_mib
00837cc8 g     F .text	00000078 tcp_getseq
00842918 g     F .text	000000cc ip_raw_alloc
0081a04c g     F .text	00000068 OSFlagPendGetFlagsRdy
00850a22 g     O .rwdata	00000002 OSTaskStatStkSize
00827b54 g     F .text	00000b3c dhc_request
00830014 g     F .text	000007e4 soreceive
00815664 g     F .text	0000002c __make_fp
00819058 g     F .text	00000334 OSFlagAccept
0081c490 g     F .text	000000c8 OSQFlush
0081be28 g     F .text	00000154 OSQAccept
00850b24 g     O .bss	00000004 alt_argv
00858970 g       *ABS*	00000000 _gp
008412cc g     F .text	00000054 ip_reasm_send_icmp_timex
008169ac g     F .text	00000118 usleep
00847bfc g     F .text	00000048 vfflush
00e382a4 g     O .bss	00000040 resid_semaphore
008257b8 g     F .text	00000148 hexdump
0083f7d8 g     F .text	000000a8 ip_reasm_incr_mem_useage
0082b24c g     F .text	00000034 calloc2
008242f0 g     F .text	0000007c igmp_leavegroup
0081e298 g     F .text	000001d4 OSTaskCreate
00850ae0 g     O .bss	00000004 netisrs
0081dd24 g     F .text	00000574 OSTaskChangePrio
00850b40 g     O .bss	00000004 alt_heapsem
00837b14 g     F .text	000000e8 tcp_close
00818ecc g     F .text	0000018c OSDebugInit
0081e66c g     F .text	0000040c OSTaskDel
00848e1c g     F .text	0000006c vferror
00843e80 g     F .text	000000c0 udp_alloc
00850660 g     O .rwdata	00000180 alt_fd_list
00e348d0 g     O .bss	00000370 OSFlagTbl
00850c48 g     O .bss	00000008 mbstat
0084a4c8 g     F .text	00000090 _getc_r
0084a430 g     F .text	00000098 getc
0081819c g     F .text	000000b8 OS_EventTaskRemove
0084478c g     F .text	00000158 igmpv2_chk_set_timer
00826374 g     F .text	0000002c TK_OSTimeDly
0083a234 g     F .text	00000094 alt_find_dev
00806fe0 g     F .text	000000a0 memcpy
00850bf8 g     O .bss	00000004 dsc_rebind
008131d4 g     F .text	00000248 __hexnan
0083ba78 g     F .text	00000080 task_stats
0082d874 g     F .text	0000004c DOMAIN_CHECK
0082c944 g     F .text	00000040 in_broadcast
00850a0c g     O .rwdata	00000002 OSRdyTblSize
00822170 g     F .text	0000004c alt_up_character_lcd_write_fd
00850cd4 g     O .bss	00000004 vfsystems
00843db0 g     F .text	000000d0 udp_socket
00801900 g     F .text	00000264 file_upload
00850b98 g     O .bss	00000004 MaxMtu
0083291c g     F .text	00000158 sock_selscan
00805570 g     F .text	0000000c _cleanup_r
0081509c g     F .text	000000f8 __floatsidf
0083f584 g     F .text	000000d0 ip_reasm_match_frag_with_ire
00831acc g     F .text	00000050 socantrcvmore
008072dc g     F .text	00000014 perror
0083a3e8 g     F .text	00000090 alt_fs_reg
0083a8fc g     F .text	00000078 alt_io_redirect
00814f8c g     F .text	00000088 __ltdf2
00850c24 g     O .bss	00000004 netq_intmask
008012d4 g     F .text	0000005c dm9ka_stats
00846518 g     F .text	00000070 hextoa
0084a9e0 g       *ABS*	00000000 __DTOR_END__
0082eb60 g     F .text	00000228 t_send
00839ed0 g     F .text	000000fc alt_close
00850c50 g     O .bss	00000002 select_wait
00807408 g     F .text	00000014 puts
00825e4c g     F .text	00000044 std_out
00821430 g     F .text	00000098 alt_ro_zipfs_open
00848a08 g     F .text	00000138 vfslookup_locked
0082f7fc g     F .text	0000009c soaccept
00816da4 g     F .text	00000130 OSEventNameGet
008509f0 g     O .rwdata	00000002 OSFlagMax
0080e9dc g     F .text	00000040 mbrtowc
00e38310 g     O .bss	0000003c tcpmib
0082efd4 g     F .text	0000009c t_errno
00842530 g     F .text	000000f0 ip_raw_open
0080c630 g     F .text	00000068 _vfscanf_r
008289f4 g     F .text	00000118 dhc_decline
0080ef10 g     F .text	000000b0 __ratio
0081779c g     F .text	00000100 OSIntExit
00850ac8 g     O .rwdata	00000004 ipRoutes
00847d28 g     F .text	00000058 vfeof
00837fe0 g     F .text	0000005c tcp_canceltimers
0082731c g     F .text	0000021c dhc_buildheader
00850a2a g     O .rwdata	00000002 OSTCBSize
00850b4d g     O .bss	00000001 OSPrioCur
008205c8 g     F .text	000002c0 altera_avalon_jtag_uart_read
0084a56c g     F .text	00000014 malloc
00850cd0 g     O .bss	00000004 inpcb_cachemiss
00807334 g     F .text	00000034 _printf_r
00846720 g     F .text	000000c4 inet46_addr
00850ccc g     O .bss	00000004 inpcb_cachehits
01904000 g       *ABS*	00000000 __alt_mem_onchip_memory2_0
00805060 g     F .text	00000008 __udivsi3
00850620 g     O .rwdata	0000000b tcp_outflags
008160ec g     F .text	000000c0 isatty
00850a10 g     O .rwdata	00000002 OSStkWidth
0080e7f4 g     F .text	0000002c iswspace
0084c818 g     O .rodata	000000c8 __mprec_tens
008474b8 g     F .text	0000007c vf_alloc_and_link_vop
00850a04 g     O .rwdata	00000002 OSPtrSize
00850ca0 g     O .bss	00000004 ipr_curr_mem
008238cc g     F .text	0000006c exit_hook
00850bac g     O .bss	00000004 igmp_cticks
00850c38 g     O .bss	00000004 mheap_sem_ptr
00835e94 g     F .text	00000048 ip4_tcpmss
0080e820 g     F .text	00000008 __locale_charset
00803544 g     F .text	000003bc http_handle_receive
008509e4 g     O .rwdata	00000002 OSEventTblSize
00e3870c g     O .bss	00000014 netlist
008307f8 g     F .text	000000a8 soshutdown
008134b4 g     F .text	000000a4 __fixunsdfsi
0083ad0c g       .text	00000000 OSCtxSw
0083b50c g     F .text	0000004c packet_check
00828690 g     F .text	00000280 dhc_setip
00e3834c g     O .bss	00000014 mbufq
0082f7ac g     F .text	00000050 soabort
00850b04 g     O .bss	00000004 __malloc_top_pad
00802114 g     F .text	00000234 http_process_headers
00850b50 g     O .bss	00000004 OSTCBList
0082a27c g     F .text	00000110 qdel
0083b384 g     F .text	0000014c station_state
00842a80 g     F .text	00000184 rt_lookup
00850c68 g     O .bss	00000004 alt_fd_list_lock
0082189c g     F .text	0000008c alt_up_av_config_read_data
008120ec g     F .text	00000024 strtoul
008010cc g     F .text	000000f8 dm9ka_init
008509ac g     O .rwdata	00000004 __mb_cur_max
0082436c g     F .text	0000035c igmp_validate
0080e828 g     F .text	0000000c _localeconv_r
008235e8 g     F .text	000002e4 ip_startup
00812110 g     F .text	000002f0 _strtoull_r
0082dbb0 g     F .text	00000298 t_accept
0083154c g     F .text	0000008c soisdisconnecting
0080f82c g     F .text	0000003c __i2b
0080e2e8 g     F .text	0000049c __sfvwrite_r
00822fa0 g     F .text	000003d4 pktdemux
00e34c40 g     O .bss	00000c30 OSMemTbl
00850b54 g     O .bss	00000001 OSTickStepState
0082a86c g     F .text	000000ac kbhit
0082e374 g     F .text	000001dc t_setsockopt
008075fc g     F .text	00000070 _sbrk_r
008507e0 g     O .rwdata	00000018 icmpdu_types
00847ddc g     F .text	00000220 vunlink
00850aec g     O .bss	00000004 line_count
00850a08 g     O .rwdata	00000002 OSQMax
008255f8 g     F .text	000000b0 ccksum
00847534 g     F .text	000000d8 vf_alloc_buffer
00850cc4 g     O .bss	00000004 cachedRoute
00850a68 g     O .rwdata	00000004 lilbufs
00e35870 g     O .bss	00000800 OSTaskStatStk
00846074 g     F .text	00000024 md_ftell
008256a8 g     F .text	00000068 cksum
0081b940 g     F .text	0000010c OSMemNameGet
0082f388 g     F .text	00000130 sofree
00850ba0 g     O .bss	00000004 ifNumber
008509e8 g     O .rwdata	00000002 OSFlagEn
0080fd94 g     F .text	00000078 _read_r
00850a2e g     O .rwdata	00000002 OSTimeTickHookEn
00815d04 g     F .text	00000024 alt_dcache_flush
0081c9f4 g     F .text	00000180 OSQPost
0081a8e8 g     F .text	000000ac OS_FlagUnlink
0084f47c g     O .rwdata	0000000c __lc_ctype
00850aa8 g     O .rwdata	00000004 alt_max_fd
00818778 g     F .text	0000006c OS_MemCopy
00850a70 g     O .rwdata	00000004 bigbufs
00838d10 g     F .text	000000d4 tcp_disconnect
008187e4 g     F .text	000000d4 OS_Sched
008159a4 g     F .text	00000138 __unpack_d
00805088 g     F .text	00000110 _fclose_r
0081b83c g     F .text	00000104 OSMemGet
0081b4f0 g     F .text	00000130 OSMboxQuery
00802f28 g     F .text	0000027c http_find_file
0081eda0 g     F .text	000001c4 OSTaskNameSet
008016b0 g     F .text	00000250 http_parse_multipart_header
008053a8 g     F .text	00000034 fflush
00850b08 g     O .bss	00000004 __malloc_max_sbrked_mem
00850b58 g     O .bss	00000004 OSCtxSwCtr
00e37e18 g     O .bss	00000064 igmpstats
0083b164 g     F .text	00000028 OSTimeTickHook
00827a50 g     F .text	00000104 dhc_rx_offer
00824ff0 g     F .text	00000120 bsd_getsockopt
00815f2c g     F .text	000001c0 alt_irq_register
008509f2 g     O .rwdata	00000002 OSFlagNameSize
00e38770 g     O .bss	00000018 ire_stats
00838f80 g     F .text	000001b8 udp_soinput
0082a1cc g     F .text	000000b0 putq
00818254 g     F .text	00000104 OS_EventTaskRemoveMulti
00850bc0 g     O .bss	00000004 iniche_net_ready
008146dc g     F .text	00000074 __adddf3
008140e4 g     F .text	00000078 __nesf2
00818048 g     F .text	00000154 OS_EventTaskWaitMulti
00848dd4 g     F .text	00000048 isvfile
008309a0 g     F .text	000004c0 sosetopt
008261ac g     F .text	000000f4 netmain
00835edc g     F .text	0000011c tcp_mss
0080edf0 g     F .text	00000120 __b2d
00846194 g     F .text	0000031c parse_ipad
00847498 g     F .text	00000020 get_vfopen_error
00850a0a g     O .rwdata	00000002 OSQSize
00813b34 g     F .text	000005b0 __umoddi3
0081620c g     F .text	000000f0 lseek
0083b5d4 g     F .text	000000c4 inet_timer
0081d5d0 g     F .text	0000027c OSSemPend
00850980 g     O .rwdata	00000008 lcd_field
008509a0 g     O .rwdata	00000004 _global_impure_ptr
00825ae4 g     F .text	00000164 print_eth
008479c4 g     F .text	00000050 vfopen
0083a974 g     F .text	00000120 alt_read
0080fe0c g     F .text	000005f4 _realloc_r
008509f4 g     O .rwdata	00000002 OSLowestPrio
00e38990 g       *ABS*	00000000 __bss_end
0083a740 g     F .text	000000f8 alt_iic_isr_register
0082b7e4 g     F .text	00000134 m_free
0083b1e0 g     F .text	00000020 OSTCBInitHook
00829cd4 g     F .text	000002b8 pk_validate
00850a3a g     O .rwdata	00000002 OSTmrCfgTicksPerSec
0081689c g     F .text	00000110 alt_tick
00847214 g     F .text	0000025c in_pcblookup
0082989c g     F .text	000000cc find_opt
0081b230 g     F .text	00000134 OSMboxPost
00e347d0 g     O .bss	00000100 __hexdig
00813558 g     F .text	000005dc __udivdi3
0082b63c g     F .text	000001a8 m_getnbuf
0082a058 g     F .text	000000ac dump_buf_estats
00850c94 g     O .bss	00000004 arpRepsOut
008509dc g     O .rwdata	00000002 OSEventEn
0084c8e0 g     O .rodata	00000028 __mprec_bigtens
0080fa88 g     F .text	00000120 __s2b
00850a36 g     O .rwdata	00000002 OSTmrCfgNameSize
008152e0 g     F .text	00000194 __floatunsidf
0083b200 g     F .text	000000fc netmain_init
0080ed10 g     F .text	00000060 __mcmp
00850bdc g     O .bss	00000004 dsc_requests
008374c8 g     F .text	00000488 tcp_respond
008393bc g     F .text	0000033c udp4_sockbind
00850998 g     O .rwdata	00000004 __ctype_ptr
00850c28 g     O .bss	00000004 old_mode
00824084 g     F .text	0000026c igmp_joingroup
0082ca6c g     F .text	00000358 so_icmpdu
00805558 g     F .text	00000018 __fp_lock_all
00850ce4 g     O .bss	00000004 vfs_dir_stale
0083a6f8 g     F .text	00000048 alt_ic_irq_enabled
00840b84 g     F .text	000000e4 ip_reasm_process_timer_tick
00848e88 g     F .text	0000005c vclearerr
0082550c g     F .text	000000ec bsd_setsockopt
0082be50 g     F .text	00000058 mbuf_len
0081a6f4 g     F .text	000000e4 OS_FlagInit
00816804 g     F .text	00000098 alt_alarm_stop
00848b88 g     F .text	000001e8 strippath
00850a60 g     O .rwdata	00000004 reqlist
00826410 g     F .text	000001a0 tcp_sleep
00809038 g     F .text	00000024 strtol
00826aec g     F .text	00000830 dhc_upcall
00838de4 g     F .text	000000e0 tcp_usrclosed
00850c14 g     O .bss	00000004 cticks_factor
00850a18 g     O .rwdata	00000002 OSTaskIdleStkSize
00846c58 g     F .text	00000254 in_pcbbind
00850b1c g     O .bss	00000004 alt_irq_active
0081d15c g     F .text	000000c0 OSSemAccept
0085d8a4 g     O .bss	00000044 g_dm9ka
0081bb6c g     F .text	000000f0 OSMemPut
008215c4 g     F .text	00000148 alt_ro_zipfs_seek
0081b620 g     F .text	0000021c OSMemCreate
00850b5c g     O .bss	00000004 OSIdleCtrMax
019040ec g     F .exceptions	000000d0 alt_irq_handler
00850638 g     O .rwdata	00000028 alt_dev_null
00850a82 g     O .rwdata	00000001 tcprexmtthresh
00850a2c g     O .rwdata	00000002 OSTicksPerSec
0083d248 g     F .text	00000098 if_killsocks
0083dd00 g     F .text	00000248 ip_write
00841720 g     F .text	0000060c ip_rcv_phase2
0082e134 g     F .text	00000044 t_getsockname
0082de48 g     F .text	000002a8 t_connect
00850a7c g     O .rwdata	00000004 TCPTV_MSL
00e37fa4 g     O .bss	00000010 memestats
00801ca4 g     F .text	000001ac http_manage_connection
0082a918 g     F .text	00000060 getch
008154f4 g     F .text	000000c8 __unpack_f
00822458 g     F .text	00000034 alt_up_character_lcd_cursor_blink_on
008508d8 g     O .rwdata	00000080 vfs_root_path
0082e0f0 g     F .text	00000044 t_getpeername
0083f880 g     F .text	000000a0 ip_reasm_decr_mem_useage
00831c58 g     F .text	00000080 soreserve
008048dc g     F .text	000002c0 ParseSRECBuf
0083ad0c g       .text	00000000 OSIntCtxSw
008034d0 g     F .text	00000074 http_prepare_response
0082b280 g     F .text	000000f4 npalloc
008053dc g     F .text	0000002c _fgetpos_r
0080ebdc g     F .text	00000070 __hi0bits
00850cc0 g     O .bss	00000004 ipraw_eps
00829968 g     F .text	00000290 pk_init
00845e48 g     F .text	00000180 md_fread
0084a3dc g     F .text	0000001c calloc
00815194 g     F .text	000000d8 __fixdfsi
008015e8 g     F .text	000000c8 lcd_output
00e385a8 g     O .bss	00000064 intimers
00831d38 g     F .text	00000048 sbrelease
00832dbc g     F .text	000000f0 ifd_clr
00832668 g     F .text	00000094 sbdroprecord
00825c48 g     F .text	00000080 uslash
0083ab6c g     F .text	00000120 alt_write
00801b64 g     F .text	00000050 ProgFlashStub
00850c90 g     O .bss	00000004 arpRepsIn
0082695c g     F .text	00000090 dhc_get_srv_ipaddr
0083b830 g     F .text	0000017c in_timerset
00811b88 g     F .text	0000001c strtod
00850b60 g     O .bss	00000004 OSTCBFreeList
0081d84c g     F .text	0000017c OSSemPendAbort
00835ff8 g     F .text	0000117c tcp_output
00850c6c g     O .bss	00000004 activehost
00850aa0 g     O .rwdata	00000008 alt_dev_list
00825f80 g     F .text	0000022c parse_args
00850c2c g     O .bss	00000004 global_TCPwakeup_setIndx
0080e200 g     F .text	00000058 _fputc_r
0082269c g     F .text	00000070 write
0082b374 g     F .text	000000b8 npfree
0080fcac g     F .text	000000e8 _putc_r
0083c5c8 g     F .text	00000294 arpReply
0082573c g     F .text	0000007c nextarg
00850a30 g     O .rwdata	00000002 OSVersionNbr
00840230 g     F .text	00000594 ip_reasm_process_subsequent_fragments
00850ad4 g     O .rwdata	00000004 pton_error
00850bd0 g     O .bss	00000004 dsc_errors
0081415c g     F .text	00000078 __gtsf2
00e37af4 g     O .bss	00000014 rcvdq
00832d54 g     F .text	00000068 tcp_notify
00815df8 g     F .text	000000d4 fstat
008057f4 g     F .text	0000002c fprintf
0082f898 g     F .text	000000d4 soconnect
00842a24 g     F .text	0000005c ip_raw_maxalloc
00e1669a g     O .bss	0000c000 http_rx_buffer
00815014 g     F .text	00000088 __ledf2
00827538 g     F .text	00000518 dhc_discover
00807a50 g     F .text	00000090 strcat
00847198 g     F .text	0000007c in_setpeeraddr
008509d8 g     O .rwdata	00000004 OSEndiannessTest
0082a978 g     F .text	0000003c clock_init
00847c44 g     F .text	000000e4 vfgets
0083bbfc g     F .text	0000017c et_send
0080f968 g     F .text	00000120 __pow5mult
00850b10 g     O .bss	00000004 __nlocale_changed
00805068 g     F .text	00000008 __umodsi3
008464b0 g     F .text	00000068 inet_addr
0083f740 g     F .text	00000098 ip_reasm_check_mem_useage
008308a0 g     F .text	00000100 sorflush
0084a5f4 g     F .text	00000020 vprintf
00e380b8 g     O .bss	000000fc global_tcb_ext
0083e3d0 g     F .text	00000488 ip_fragment_lc
00e37b08 g     O .bss	00000300 netstatic
0082d950 g     F .text	0000017c t_bind
008509ea g     O .rwdata	00000002 OSFlagGrpSize
0082a5c4 g     F .text	000000e4 udp_close
0082af64 g     F .text	0000021c alt_iniche_init
00e38990 g       *ABS*	00000000 end
0082ab9c g     F .text	00000088 UNLOCK_NET_RESOURCE
0082e6f4 g     F .text	000000f0 t_recv
00815ba4 g     F .text	00000160 __pack_f
00847ffc g     F .text	000001ac vfread
00822eb8 g     F .text	000000e8 netclose
00805070 g     F .text	0000000c _atoi_r
0080630c g     F .text	00000024 fseek
00850a8c g     O .rwdata	00000004 tcp_keepintvl
0081ff50 g     F .text	00000138 altera_avalon_jtag_uart_init
00818a5c g     F .text	000000c8 OS_TaskStat
00850bd4 g     O .bss	00000004 dsc_discovers
008505d8 g     O .rwdata	00000018 tcp_protosw
0084a9dc g       *ABS*	00000000 __CTOR_LIST__
00850ce0 g     O .bss	00000004 vfopen_error
01000000 g       *ABS*	00000000 __alt_stack_pointer
00850c60 g     O .bss	00000004 tcp_maxidle
00850c00 g     O .bss	00000004 firstudp
00820bd4 g     F .text	00000090 alt_avalon_timer_sc_init
00815474 g     F .text	00000080 __clzsi2
00820888 g     F .text	000002dc altera_avalon_jtag_uart_write
0080547c g     F .text	00000004 __sfp_lock_acquire
0080ea5c g     F .text	000000e4 memchr
00818724 g     F .text	00000054 OS_MemClr
00822080 g     F .text	00000078 alt_up_character_lcd_write
008090bc g     F .text	00001eac ___vfprintf_internal_r
0083addc g     F .text	00000310 OSTaskStkInit
00e2269c g     O .bss	00000030 flash_inf
008076e0 g     F .text	00000060 _sprintf_r
00805bbc g     F .text	00000314 _free_r
008448e4 g     F .text	00000170 igmpv2_chk4_rtr_alert_opt
00e2e7d0 g     O .bss	00002000 AudioTask_stk
00803900 g     F .text	00000060 http_handle_transmit
0082ee6c g     F .text	000000d0 t_socketclose
00817da4 g     F .text	00000194 OS_EventTaskRdy
00850adc g     O .bss	00000004 autoReset
0084a580 g     F .text	0000004c __srget_r
0084a7c0 g     F .text	000001b0 __call_exitprocs
00802028 g     F .text	000000ec http_parse_type_boundary
00850b64 g     O .bss	00000001 OSCPUUsage
00e37e08 g     O .bss	00000010 nets
0082aadc g     F .text	000000c0 LOCK_NET_RESOURCE
00828910 g     F .text	000000e4 dhc_resetip
00850b14 g     O .bss	00000004 __mlocale_changed
0082d8c0 g     F .text	00000090 t_socket
008509a8 g     O .rwdata	00000004 __malloc_sbrk_base
00804e94 g     F .text	00000090 LCDTask
00800000 g     F .text	00000038 _start
0083bba8 g     F .text	00000054 etainit
00850b2c g     O .bss	00000004 _alt_tick_rate
0083b558 g     F .text	00000024 mcastlist
0081c558 g     F .text	00000320 OSQPend
008086d0 g     F .text	00000660 strstr
00e37fb4 g     O .bss	000000f0 pktlog
00811ba4 g     F .text	00000318 _strtoll_r
008443f4 g     F .text	0000014c igmpv2_process_report
00832f20 g     F .text	00000080 ifd_isset
0084302c g     F .text	00000144 del_route
0080905c g     F .text	00000008 _user_strerror
0081f764 g     F .text	0000014c OSTimeDly
00804184 g     F .text	00000058 get_mac_addr
0082f298 g     F .text	000000f0 solisten
00803960 g     F .text	00000344 WSTask
0080f4f8 g     F .text	0000014c __lshift
00821838 g     F .text	00000064 alt_up_av_config_write_data
00850b30 g     O .bss	00000004 _alt_nticks
00822624 g     F .text	00000078 read
0081fd30 g     F .text	000000a0 alt_sys_init
008222e4 g     F .text	000000b0 alt_up_character_lcd_shift_display
00837bfc g     F .text	0000004c tcp_quench
00e2e6cc g     O .bss	00000104 frag
00825cc8 g     F .text	00000184 ns_printf
008071f8 g     F .text	00000078 _open_r
0083d0cc g     F .text	000000e0 isbcast
0082ac24 g     F .text	00000214 TK_NEWTASK
0084a688 g     F .text	00000134 __register_exitproc
00850b65 g     O .bss	00000001 OSTaskCtr
00821ef8 g     F .text	00000064 alt_up_av_config_write_LTM_cfg_register
0083f654 g     F .text	000000ec ip_reasm_determine_type_of_frag
008083f0 g     F .text	000000f0 strncmp
0081f8b0 g     F .text	00000174 OSTimeDlyHMSM
0083ab2c g     F .text	00000040 alt_remap_uncached
00842620 g     F .text	000000c0 ip_raw_close
0080f644 g     F .text	000001e8 __multiply
00822394 g     F .text	00000090 alt_up_character_lcd_erase_pos
00850828 g     O .rwdata	000000b0 mdlist
00820460 g     F .text	00000074 altera_avalon_jtag_uart_close
00823b48 g     F .text	000000f8 igmp_input
0083e2f8 g     F .text	000000d8 ip_raw_write
008481a8 g     F .text	000003e8 vfwrite_locked
008084e0 g     F .text	000000bc strncpy
00850bd8 g     O .bss	00000004 dsc_offers
0085d808 g     O .bss	00000028 __malloc_current_mallinfo
008509de g     O .rwdata	00000002 OSEventMax
008467e4 g     F .text	00000074 inet_setport
0080f1f0 g     F .text	0000017c __d2b
008079a0 g     F .text	000000b0 strcasecmp
0081d9c8 g     F .text	00000128 OSSemPost
0083596c g     F .text	00000190 tcp_dooptions
00831450 g     F .text	000000fc soisconnected
00817928 g     F .text	000000e4 OSSchedUnlock
008424e0 g     F .text	00000028 netexit
00803cd4 g     F .text	00000024 get_serial_number
00850bbc g     O .bss	00000004 nettick_wakes
00850c54 g     O .bss	00000001 tcpprintfs
0083b9ac g     F .text	000000a8 in_timerkill
00844294 g     F .text	00000160 igmpv2_input
00850be8 g     O .bss	00000004 dsc_declines
0081fe08 g     F .text	00000058 altera_avalon_jtag_uart_read_fd
00811ebc g     F .text	00000230 _strtoul_r
00825710 g     F .text	0000002c do_trap
0083a478 g     F .text	000000f4 alt_get_fd
00825110 g     F .text	00000104 bsd_ioctl
00850b68 g     O .bss	00000004 OSMemFreeList
00817a7c g     F .text	000000ac OSStatInit
0082c160 g     F .text	000001ec tcp_rcv
00825aa0 g     F .text	00000044 panic
00850ce8 g     O .bss	00000004 vfs_open_files
00823444 g     F .text	000001a4 ip2mac
00839d84 g     F .text	0000014c alt_busy_sleep
0081a45c g     F .text	000000d4 OSFlagQuery
00815adc g     F .text	000000c8 __fpcmp_parts_d
00832a74 g     F .text	00000214 sock_select
008459fc g     F .text	00000288 dhc_setup
00837358 g     F .text	00000058 tcp_init
00850c30 g     O .bss	00000004 cticks
00800798 g     F .text	000001c4 dm9000a_reset
00804df0 g     F .text	000000a4 AudioTask
00850bc5 g     O .bss	00000001 to_nettick
00850a14 g     O .rwdata	00000002 OSTaskCreateExtEn
0080c8c0 g     F .text	00000070 _close_r
0082270c g     F .text	0000064c Netinit
0082b214 g     F .text	00000038 prep_armintcp
0084215c g     F .text	00000168 in_addmulti
008373b0 g     F .text	00000118 tcp_template
00e307d0 g     O .bss	00002000 WSInitialTaskStk
0082bf50 g     F .text	00000070 remque
00808d30 g     F .text	00000018 strtok
0084a5e0 g     F .text	00000014 _vprintf_r
008011c4 g     F .text	00000110 dm9ka_close
00833010 g     F .text	00000408 tcp_reass
008469a4 g     F .text	000001cc tcp_cksum
008396f8 g     F .text	000003dc udp4_socksend
00847a14 g     F .text	000001a8 vfclose_locked
00832eac g     F .text	00000074 ifd_set
0080eb40 g     F .text	00000074 memcmp
00817d88 g     F .text	0000001c OS_Dummy
0081feb8 g     F .text	00000048 altera_avalon_jtag_uart_close_fd
008297ec g     F .text	000000b0 dhc_set_state
00850b9c g     O .bss	00000004 NDEBUG
00e38990 g       *ABS*	00000000 __alt_stack_base
00850ae8 g     O .bss	00000004 last_flash_sector
0081ff00 g     F .text	00000050 altera_avalon_jtag_uart_ioctl_fd
00831cd8 g     F .text	00000060 sbreserve
008426e0 g     F .text	00000238 ip_raw_input
00806630 g     F .text	0000009c _fwrite_r
00850a6c g     O .rwdata	00000004 lilbufsiz
00832fa0 g     F .text	00000070 ifd_get
00831bbc g     F .text	0000009c sbwakeup
008077d0 g     F .text	00000084 sscanf
0080c784 g     F .text	0000013c __swsetup_r
00e36070 g     O .bss	000001e0 OSQTbl
00835c28 g     F .text	0000026c tcp_xmit_timer
00814b14 g     F .text	00000258 __divdf3
008055f4 g     F .text	000000f0 __sfp
00803eb4 g     F .text	0000013c generate_mac_addr
0083d3dc g     F .text	000001a4 ip_bldhead
0080f054 g     F .text	00000058 __copybits
00831d80 g     F .text	000000a8 sbappend
0084f074 g     O .rwdata	00000408 __malloc_av_
00805488 g     F .text	00000004 __sinit_lock_release
00850b6c g     O .bss	00000004 OSTCBHighRdy
00814750 g     F .text	000003c4 __muldf3
0083df48 g     F .text	000003b0 ip_write2
00807940 g     F .text	00000060 __sread
00850ac0 g     O .rwdata	00000004 arp_ageout
00805a50 g     F .text	00000040 fread
00850b70 g     O .bss	00000004 OSQFreeList
0083d2e0 g     F .text	000000fc ip_init
0083a2c8 g     F .text	00000120 alt_find_file
008429e4 g     F .text	00000040 ip_raw_free
0083c4b4 g     F .text	00000114 make_arp_entry
0083a058 g     F .text	000000b4 alt_dev_llist_insert
00816bcc g     F .text	00000108 __malloc_lock
00805820 g     F .text	00000034 _fprintf_r
00816748 g     F .text	000000bc sbrk
00838f10 g     F .text	00000070 udp_lookup
00804620 g     F .text	000002bc ParseAndProgramLine
00816ed4 g     F .text	00000144 OSEventNameSet
008051ac g     F .text	000001fc _fflush_r
008127e0 g     F .text	000000b4 _calloc_r
00850b74 g     O .bss	00000001 OSRdyGrp
00845e00 g     F .text	00000028 md_fopen
008505f0 g     O .rwdata	00000018 udp_protosw
008509b4 g     O .rwdata	00000008 alt_flash_dev_list
0084711c g     F .text	0000007c in_setsockaddr
00850af4 g     O .bss	00000004 QUEUE
008057d8 g     F .text	0000001c fopen
00850adc g       *ABS*	00000000 __bss_start
00831e28 g     F .text	000000e0 sbappendrecord
00804b9c g     F .text	00000078 WSInitialTask
00e38720 g     O .bss	00000050 ip_mib
00807160 g     F .text	00000098 memset
0082f96c g     F .text	000000a0 sodisconnect
00804c14 g     F .text	0000010c main
00850b28 g     O .bss	00000004 alt_envp
00850b0c g     O .bss	00000004 __malloc_max_total_mem
0082bc80 g     F .text	000001d0 m_adj
0081fe60 g     F .text	00000058 altera_avalon_jtag_uart_write_fd
0080649c g     F .text	00000014 ftell
008127c4 g     F .text	0000001c __swbuf
00846098 g     F .text	000000d8 md_fgetc
0084cab8 g     O .rodata	00000100 OSUnMapTbl
0083ef28 g     F .text	000002b8 ip_dump
00826754 g     F .text	00000208 tk_stats
008141d4 g     F .text	00000078 __ltsf2
00805854 g     F .text	000001fc _fread_r
00850a48 g     O .rwdata	00000008 alt_iniche_dev_list
00850a0e g     O .rwdata	00000002 OSSemEn
00850c18 g     O .bss	00000004 OS_TPS
0082d08c g     F .text	000007e8 rawip_usrreq
00822234 g     F .text	000000b0 alt_up_character_lcd_shift_cursor
0081a0b4 g     F .text	000003a8 OSFlagPost
00807854 g     F .text	00000008 __sclose
008466c0 g     F .text	00000060 print46_addr
01000000 g       *ABS*	00000000 __alt_heap_limit
00805198 g     F .text	00000014 fclose
00817f38 g     F .text	00000110 OS_EventTaskWait
0081526c g     F .text	00000074 __truncdfsf2
00808df4 g     F .text	00000244 _strtol_r
00825974 g     F .text	0000012c print_uptime
00818b24 g     F .text	000000c8 OS_TaskStatStkChk
00e38800 g     O .bss	00000190 _atexit0
0081ea78 g     F .text	00000170 OSTaskDelReq
0080cb48 g     F .text	000015b4 _dtoa_r
008068a0 g     F .text	00000740 _malloc_r
00846170 g     F .text	00000024 md_unlink
00846c04 g     F .text	00000054 in_pcbdetach
00850aac g     O .rwdata	00000004 alt_errno
00850af0 g     O .bss	00000004 current_flash_block
0080147c g     F .text	000000e8 sweep
00850ad0 g     O .rwdata	00000004 mdlist_size
00817a0c g     F .text	00000070 OSStart
00812400 g     F .text	000000dc __submore
00845350 g     F .text	00000030 u_mctest_init
00816b70 g     F .text	0000005c __env_unlock
00806578 g     F .text	000000b8 _fwalk
00805408 g     F .text	0000001c fgetpos
0081ef64 g     F .text	00000218 OSTaskResume
0081bc5c g     F .text	000000fc OSMemQuery
00846858 g     F .text	0000014c convert_ip
0083c30c g     F .text	000001a8 find_oldest_arp
00850a20 g     O .rwdata	00000002 OSTaskStatEn
00850c88 g     O .bss	00000004 arpReqsIn
0084760c g     F .text	00000050 vf_free_buffer
0080ea1c g     F .text	00000040 _mbtowc_r
00848f08 g     F .text	00000154 alt_fcntl
008509fa g     O .rwdata	00000002 OSMemMax
0081cb74 g     F .text	00000188 OSQPostFront
0082a83c g     F .text	00000030 dtrap
00850a78 g     O .rwdata	00000004 kb_last
0080fba8 g     F .text	00000104 putc
00804fa0 g     F .text	00000060 __divsi3
00850b75 g     O .bss	00000003 OSRdyTbl
008509d4 g     O .rwdata	00000002 OSDebugEn
008214c8 g     F .text	000000fc alt_ro_zipfs_read
0084c990 g     O .rodata	00000014 __thenan_df
00822040 g     F .text	00000040 alt_up_character_lcd_open_dev
00823938 g     F .text	000000d0 ip_exit
00805a90 g     F .text	0000012c _malloc_trim_r
00801f78 g     F .text	000000b0 http_read_line
0084a9e0 g       *ABS*	00000000 __CTOR_END__
0082177c g     F .text	00000058 alt_ro_zipfs_check_valid
008509ec g     O .rwdata	00000002 OSFlagNodeSize
00850bcc g     O .bss	00000004 dhc_conn
0082a9d0 g     F .text	0000006c cticks_hook
00850a34 g     O .rwdata	00000002 OSTmrCfgMax
0082200c g     F .text	00000034 alt_up_character_lcd_init
0083b4d0 g     F .text	0000003c sysuptime
00807bc0 g     F .text	000000bc strcmp
00803cf8 g     F .text	000001bc generate_and_store_mac_addr
00840c68 g     F .text	000001c8 ip_reasm_delete_ire
0081bf7c g     F .text	00000214 OSQCreate
0082aa3c g     F .text	0000005c irq_Mask
0081ebe8 g     F .text	000001b8 OSTaskNameGet
00850c74 g     O .bss	00000004 nextppp
00850c0c g     O .bss	00000004 irq_level
00822d58 g     F .text	00000160 fixup_subnet_mask
0081ccfc g     F .text	00000234 OSQPostOpt
00817b28 g     F .text	00000240 OSTimeTick
0083f44c g     F .text	00000138 ip_copypkt
008296e8 g     F .text	00000090 dhc_alldone
00850a1c g     O .rwdata	00000002 OSTaskMax
0084a9e0 g       *ABS*	00000000 __DTOR_LIST__
0081d21c g     F .text	00000114 OSSemCreate
00850bb0 g     O .bss	00000004 igmp_all_hosts_group
00850a40 g     O .rwdata	00000002 OSTmrWheelSize
00831b1c g     F .text	00000038 sbselqueue
00850bb8 g     O .bss	00000004 netmain_wakes
0083c85c g     F .text	00000260 arprcv
0084ec5c g     O .rwdata	00000018 wstask
008263a0 g     F .text	00000070 TK_OSTaskResume
008246c8 g     F .text	000003e0 igmp_print_stats
00814df4 g     F .text	00000088 __nedf2
00801564 g     F .text	00000084 http_cleanup_lcd_text
0082b4cc g     F .text	000000a0 pffindtype
0082170c g     F .text	00000070 alt_ro_zipfs_fstat
00850a16 g     O .rwdata	00000002 OSTaskDelEn
01880000 g       *ABS*	00000000 __alt_mem_sram_0
00850a90 g     O .rwdata	00000004 tcp_sendspace
0084876c g     F .text	00000134 vftell
008217d4 g     F .text	00000064 alt_up_av_config_open_dev
00e37e7c g     O .bss	00000012 eth_prt_buf
0081daf0 g     F .text	00000130 OSSemQuery
0081c190 g     F .text	00000300 OSQDel
0081c878 g     F .text	0000017c OSQPendAbort
0081fcfc g     F .text	00000034 alt_irq_init
008006fc g     F .text	0000009c phy_write
00e382e4 g     O .bss	00000018 app_semaphore
0080095c g     F .text	0000011c TransmitPacket
008166e8 g     F .text	00000060 alt_release_fd
0082aeec g     F .text	00000078 post_app_sem
00823a98 g     F .text	000000b0 igmp_init
0080766c g     F .text	00000074 sprintf
00822424 g     F .text	00000034 alt_up_character_lcd_cursor_off
0084c9a4 g     O .rodata	00000100 __clz_tab
00850bf4 g     O .bss	00000004 dsc_renew
00845fc8 g     F .text	00000080 md_fwrite
00850b18 g     O .bss	00000004 _PathLocale
00850c1c g     O .bss	00000004 tcp_sleep_count
01400000 g       *ABS*	00000000 __alt_mem_generic_tristate_controller_0
0082bfc0 g     F .text	0000007c insque
00811a64 g     F .text	00000124 strtof
0084a3c8 g     F .text	00000014 atexit
00850cdc g     O .bss	00000004 vfsfiles
0080c70c g     F .text	00000078 _write_r
0084a614 g     F .text	00000050 _vsprintf_r
00821a30 g     F .text	00000038 alt_up_av_config_read_ready
008439c8 g     F .text	000002b8 udp_send
0081789c g     F .text	0000008c OSSchedLock
00823ddc g     F .text	000002a8 igmp_send
0080e8c8 g     F .text	0000001c setlocale
0081938c g     F .text	0000013c OSFlagCreate
0082aa98 g     F .text	00000044 irq_Unmask
0082dacc g     F .text	000000e4 t_listen
00810530 g     F .text	00000008 nanf
0085099c g     O .rwdata	00000004 _impure_ptr
00850b20 g     O .bss	00000004 alt_argc
008384d8 g     F .text	00000704 tcp_usrreq
00839138 g     F .text	00000284 udp_usrreq
0082b42c g     F .text	00000054 ncpalloc
0080e95c g     F .text	00000080 _mbrtowc_r
0083a1d0 g     F .text	00000064 _do_dtors
008509e6 g     O .rwdata	00000002 OSEventMultiEn
00850ab8 g     O .rwdata	00000004 pingdelay
00805ed0 g     F .text	0000043c _fseek_r
0083be00 g     F .text	00000074 arp_send_pending
00843fac g     F .text	000002e8 igmpv1_input
0080741c g     F .text	000001c4 __srefill_r
00e327d0 g     O .bss	00002000 LCDTask_stk
0082b180 g     F .text	00000074 pre_task_setup
00850c3c g     O .bss	00000004 rcvdq_sem_ptr
00824d0c g     F .text	0000012c bsd_getsockname
00840e30 g     F .text	00000148 ip_reasm_mark_compact_rfq
00804238 g     F .text	00000144 FindLastFlashSectorOffset
008194c8 g     F .text	000002a8 OSFlagDel
00800000 g       *ABS*	00000000 __alt_mem_sdram_0
00850b78 g     O .bss	00000004 OSEventFreeList
00826aa8 g     F .text	00000044 dhc_set_callback
0081b0b4 g     F .text	0000017c OSMboxPendAbort
01904020 g       .exceptions	00000000 alt_irq_entry
00850c84 g     O .bss	00000004 arpcache
00849cf0 g     F .text	00000350 icmp_destun
008423dc g     F .text	00000070 lookup_mcast
00848b40 g     F .text	00000048 vfslookup
00841d2c g     F .text	00000430 ip_demux
0080ed70 g     F .text	00000080 __ulp
00810400 g     F .text	00000040 __isinfd
00850c20 g     O .bss	00000004 tcp_wakeup_count
00819a08 g     F .text	00000644 OSFlagPend
00850a32 g     O .rwdata	00000002 OSTmrEn
00805540 g     F .text	00000018 __fp_unlock_all
00e226cc g     O .bss	0000c000 http_tx_buffer
0082ae38 g     F .text	000000b4 wait_app_sem
0080e19c g     F .text	00000064 fputc
00850a50 g     O .rwdata	00000004 ipmcfail_str
00850c34 g     O .bss	00000004 memtrapsize
0082b95c g     F .text	00000324 m_copy
00850a98 g     O .rwdata	00000008 alt_fs_list
00e38360 g     O .bss	00000014 mfreeq
00818928 g     F .text	00000080 OS_StrCopy
0082f23c g     F .text	0000005c sobind
008031d8 g     F .text	000002f8 http_handle_post
00845d88 g     F .text	00000078 init_memdev
0080065c g     F .text	00000054 dm9000a_iow
0082c03c g     F .text	00000124 nptcp_init
008509fc g     O .rwdata	00000002 OSMemNameSize
00e381b4 g     O .bss	000000f0 global_TCPwakeup_set
0083b1a8 g     F .text	0000001c OSInitHookEnd
008315d8 g     F .text	000000bc soisdisconnected
0083bd78 g     F .text	00000088 arp_free_pending
00850a28 g     O .rwdata	00000002 OSTCBPrioTblMax
0080e834 g     F .text	00000010 localeconv
0082f4b8 g     F .text	000002f4 soclose
00e380a4 g     O .bss	00000014 bigfreeq
00850a24 g     O .rwdata	00000002 OSTaskStatStkChkEn
00850ab4 g     O .rwdata	00000004 prompt
00821960 g     F .text	00000038 alt_up_av_config_enable_interrupt
00850a88 g     O .rwdata	00000004 tcp_keepidle
0082ceb8 g     F .text	000001d4 rawip_soinput
0081aa38 g     F .text	00000114 OSMboxCreate
0083a56c g     F .text	00000050 alt_ic_isr_register
00848590 g     F .text	00000060 vfwrite
008509f8 g     O .rwdata	00000002 OSMemEn
008318b0 g     F .text	000000ac soqinsque
00850cb8 g     O .bss	00000004 so_evtmap_delete
008066cc g     F .text	00000040 fwrite
008128b8 g     F .text	00000068 __hexdig_init
00807748 g     F .text	00000088 _sscanf_r
00850a02 g     O .rwdata	00000002 OSMutexEn
008219c8 g     F .text	00000068 alt_up_av_config_read_acknowledge
00850970 g     O .rwdata	00000008 mapping
00850ca4 g     O .bss	00000004 h_ireq
00821d68 g     F .text	00000064 alt_up_av_config_write_DC2_cfg_register
00850adc g       *ABS*	00000000 _edata
0083e858 g     F .text	00000624 ip_fragment
008224e0 g     F .text	00000144 iniche_devices_init
00e38374 g     O .bss	00000028 tcp_saveti
00825e90 g     F .text	000000f0 con_page
00e38990 g       *ABS*	00000000 _end
00830e60 g     F .text	00000540 sogetopt
00815d28 g     F .text	0000007c alt_flash_open_dev
00850b7c g     O .bss	00000001 OSIntNesting
008505a8 g     O .rwdata	00000030 nettasks
008031a4 g     F .text	00000034 http_send_redirect
0082a038 g     F .text	00000020 pk_get_max_intrsafe_buf_len
0083f1e0 g     F .text	0000026c iproute
0082c984 g     F .text	000000e8 np_stripoptions
00850cbc g     O .bss	00000001 so_evtmap
0080c698 g     F .text	00000074 vfscanf
00850af8 g     O .bss	00000004 board_control_mbox
008204d4 g     F .text	000000f4 altera_avalon_jtag_uart_ioctl
0080e258 g     F .text	00000074 _fputs_r
0081fa24 g     F .text	00000210 OSTimeDlyResume
00842c04 g     F .text	00000428 add_route
008198b4 g     F .text	00000154 OSFlagNameSet
00823374 g     F .text	000000d0 c_older
0081adec g     F .text	000002c8 OSMboxPend
00850afc g     O .bss	00000001 to_wstask
008322f8 g     F .text	00000090 sbflush
00845e28 g     F .text	00000020 md_fclose
00826728 g     F .text	0000002c tk_yield
0081f17c g     F .text	000001fc OSTaskStkChk
0083a658 g     F .text	000000a0 alt_ic_irq_disable
0082fa0c g     F .text	00000608 sosend
008509fe g     O .rwdata	00000002 OSMemSize
0083ee7c g     F .text	000000ac ip_mymach
008078c4 g     F .text	0000007c __swrite
00850c08 g     O .bss	00000004 cticks_initialized
00850abc g     O .rwdata	00000004 deflength
0082e934 g     F .text	0000022c t_sendto
008509a4 g     O .rwdata	00000004 __malloc_trim_threshold
00807270 g     F .text	0000006c _perror_r
0083acec g     F .text	00000020 altera_nios2_qsys_irq_init
00850b80 g     O .bss	00000004 OSTCBCur
0082f070 g     F .text	000001cc socreate
0084a3f8 g     F .text	00000038 exit
00e3860c g     O .bss	00000100 arp_table
00850cf4 g     O .bss	00000004 icmpdu_hook
00850a00 g     O .rwdata	00000002 OSMemTblSize
008064b0 g     F .text	000000c8 _fwalk_reent
0083ba54 g     F .text	00000024 create_apptasks
00850a84 g     O .rwdata	00000004 tcp_ttl
0080f36c g     F .text	0000018c __mdiff
00821e94 g     F .text	00000064 alt_up_av_config_read_LTM_cfg_register
00815da4 g     F .text	00000054 alt_flash_close_dev
0082b480 g     F .text	0000004c ncpfree
00805000 g     F .text	00000060 __modsi3
00850b94 g     O .bss	00000004 MaxLnh
00846634 g     F .text	0000008c inet_ntop
00843f40 g     F .text	0000002c udp_maxalloc
0081a994 g     F .text	000000a4 OSMboxAccept
01000000 g       *ABS*	00000000 __alt_data_end
01904020 g     F .exceptions	00000000 alt_exception
00805480 g     F .text	00000004 __sfp_lock_release
008176cc g     F .text	00000054 OSInit
008027e8 g     F .text	00000740 http_send_file_header
0081f5a4 g     F .text	00000144 OSTaskQuery
0083b2fc g     F .text	00000088 icmp_port_du
008220f8 g     F .text	00000078 alt_up_character_lcd_string
00850c64 g     O .bss	00000004 tcp_iss
0081d0b0 g     F .text	000000ac OS_QInit
00810470 g     F .text	000000c0 __sccl
00850a74 g     O .rwdata	00000004 bigbufsiz
0080507c g     F .text	0000000c atoi
008189a8 g     F .text	00000058 OS_StrLen
00837c48 g     F .text	00000080 tcp_putseq
0081ba4c g     F .text	00000120 OSMemNameSet
0084bcec g     O .rodata	00000101 _ctype_
00801330 g     F .text	0000011c dm9ka_pkt_send
00831f08 g     F .text	00000208 sbappendaddr
00850cec g     O .bss	00000004 vfs_total_rw_space
0084518c g     F .text	00000140 ip_getmoptions
00850a1a g     O .rwdata	00000002 OSTaskProfileEn
00843c80 g     F .text	00000130 udpswap
00850b84 g     O .bss	00000004 OSTime
00850c40 g     O .bss	00000004 nextslow
00837d40 g     F .text	000002a0 tcp_slowtimo
00837950 g     F .text	00000118 tcp_newtcpcb
0083cabc g     F .text	000001a8 send_via_arp
008269ec g     F .text	000000bc dhc_init
008407c4 g     F .text	00000064 ip_reasm_find_ire
008155bc g     F .text	000000a8 __fpcmp_parts_f
00e36250 g     O .bss	00000800 OSTaskIdleStk
008056e4 g     F .text	000000f4 _fopen_r
0084a9b0 g     F .text	0000002c _exit
00848d70 g     F .text	00000064 isvfile_locked
00810440 g     F .text	00000030 __isnand
0081b364 g     F .text	0000018c OSMboxPostOpt
008253a4 g     F .text	00000168 bsd_select
00839c30 g     F .text	00000154 alt_alarm_start
00819770 g     F .text	00000144 OSFlagNameGet
0080108c g     F .text	00000040 dm9Ka_isr_wrap
00843f6c g     F .text	00000040 udp_free
0082a104 g     F .text	000000c8 getq
00848ee4 g     F .text	00000024 prep_vfs
0081fc34 g     F .text	00000064 OSTimeGet
00850ab0 g     O .rwdata	00000004 name
00832558 g     F .text	00000110 sbdropend
0081341c g     F .text	00000098 __muldi3
0080670c g     F .text	00000194 __smakebuf_r
0083cc64 g     F .text	00000118 cb_arpent_tmo
0080837c g     F .text	00000074 strlen
00844a54 g     F .text	00000148 IPADDR_TO_NETP
00825214 g     F .text	00000030 bsd_inet_ntoa
0083b12c g     F .text	0000001c OSTaskSwHook
00816500 g     F .text	00000188 open
0082a38c g     F .text	00000238 udp_open
00e36a50 g     O .bss	00000b40 OSEventTbl
00831a7c g     F .text	00000050 socantsendmore
00850cf0 g     O .bss	00000004 vfs_total_dyna_files
00814f04 g     F .text	00000088 __gedf2
00e37590 g     O .bss	00000510 OSTCBTbl
008129d0 g     F .text	000007b8 __gethex
00850c8c g     O .bss	00000004 arpReqsOut
0081dc20 g     F .text	00000104 OSSemSet
00850ad8 g     O .rwdata	00000004 http_root_path
00828bd8 g     F .text	000002bc dhc_extract_opts
0083fca0 g     F .text	00000590 ip_reasm_compute_overlap
00821b14 g     F .text	000000f8 alt_up_av_config_read_video_cfg_register
008063a4 g     F .text	000000f8 _ftell_r
00807ae0 g     F .text	000000e0 strchr
00e37e8e g     O .bss	00000012 ipreturn
00850cac g     O .bss	00000004 port_prep
0085062b g     O .rwdata	0000000d tcp_backoff
008313e4 g     F .text	0000006c soisconnecting
0080e2cc g     F .text	0000001c fputs
008221bc g     F .text	00000078 alt_up_character_lcd_set_cursor_pos
008509bc g     O .rwdata	00000004 alt_priority_mask
00844540 g     F .text	0000024c igmpv2_process_query
008326fc g     F .text	00000220 t_select
0081d330 g     F .text	000002a0 OSSemDel
00839ad4 g     F .text	0000015c udp4_sockaddr
00850b88 g     O .bss	00000004 OSFlagFreeList
00846eac g     F .text	00000210 in_pcbconnect
00850c58 g     O .bss	00000004 dropline
00850ca8 g     O .bss	00000004 ire_cticks
0083a5bc g     F .text	0000009c alt_ic_irq_enable
008509e0 g     O .rwdata	00000002 OSEventNameSize
0081ab4c g     F .text	000002a0 OSMboxDel
0080af68 g     F .text	00000024 __vfprintf_internal
008262a0 g     F .text	00000088 tk_netmain
008470bc g     F .text	00000060 in_pcbdisconnect
00850b8c g     O .bss	00000001 OSStatRdy
00821e30 g     F .text	00000064 alt_up_av_config_write_D5M_cfg_register
00e37aa0 g     O .bss	00000054 OSTCBPrioTbl
00816ac4 g     F .text	000000ac __env_lock
00850a26 g     O .rwdata	00000002 OSTaskSwHookEn
00850804 g     O .rwdata	00000024 mdio
00824aa8 g     F .text	00000138 bsd_accept
00803ca4 g     F .text	00000030 die_with_error
00850a94 g     O .rwdata	00000004 tcp_recvspace
00802348 g     F .text	000002f4 http_process_request
0081465c g     F .text	00000080 __subdf3
00838ec4 g     F .text	0000004c tcpinit
00850bb4 g     O .bss	00000004 igmp_all_rtrs_group
0082ce48 g     F .text	00000070 rawip_lookup
0083baf8 g     F .text	000000b0 fcntl
0080ec4c g     F .text	000000c4 __lo0bits
00832110 g     F .text	000001e8 sbcompress
0080af8c g     F .text	00001680 __svfscanf_r
008509c4 g     O .rwdata	00000008 alt_alarm_list
008124dc g     F .text	0000019c _ungetc_r
00837a68 g     F .text	000000ac tcp_drop
008509ee g     O .rwdata	00000002 OSFlagWidth
0083a16c g     F .text	00000064 _do_ctors
0083803c g     F .text	0000049c tcp_timers
00823a08 g     F .text	00000090 if_netnumber
008452cc g     F .text	00000084 ip_freemoptions
008313a0 g     F .text	00000044 sohasoutofband
00833418 g     F .text	00002554 tcp_input
00824be0 g     F .text	0000012c bsd_getpeername
00825244 g     F .text	00000160 bsd_recvfrom
0082248c g     F .text	00000054 close
00850be4 g     O .bss	00000004 dsc_bpreplys
00850b38 g     O .bss	00000004 alt_envsem
00850b90 g     O .bss	00000004 OSIdleCtrRun
00817d68 g     F .text	00000020 OSVersion
00850a38 g     O .rwdata	00000002 OSTmrCfgWheelSize
0081f6e8 g     F .text	0000007c OS_TaskStkClr
00821c0c g     F .text	000000f8 alt_up_av_config_write_video_cfg_register
00847470 g     F .text	00000028 set_vfopen_error
00815690 g     F .text	00000314 __pack_d
00850a12 g     O .rwdata	00000002 OSTaskCreateEn
00850608 g     O .rwdata	00000018 rawip_protosw
00831b54 g     F .text	00000068 sbwait
00818358 g     F .text	00000068 OS_EventWaitListInit
00828e94 g     F .text	0000059c dhc_second
00850c78 g     O .bss	00000004 port_1s_callout
0083b1c4 g     F .text	0000001c OSTaskIdleHook
0084a558 g     F .text	00000014 free
00805484 g     F .text	00000004 __sinit_lock_acquire
0080f868 g     F .text	00000100 __multadd
0081f378 g     F .text	0000022c OSTaskSuspend
0080ebb4 g     F .text	00000028 _Bfree
00850988 g     O .rwdata	00000008 upload_field
00831694 g     F .text	0000021c sonewconn
008490bc g     F .text	00000c34 icmprcv
0082b56c g     F .text	000000d0 pffindproto
00820ed8 g     F .text	0000012c check_directory_header
00821d04 g     F .text	00000064 alt_up_av_config_read_DC2_cfg_register
00818a00 g     F .text	0000005c OS_TaskIdle
00850a3e g     O .rwdata	00000002 OSTmrTblSize
0081cf30 g     F .text	00000180 OSQQuery



Disassembly of section .exceptions:

01904020 <alt_exception>:
         * Process an exception.  For all exceptions we must preserve all
         * caller saved registers on the stack (See the Nios2 ABI
         * documentation for details).
         */

        addi  sp, sp, -76
 1904020:	deffed04 	addi	sp,sp,-76

#endif

#endif

        stw   ra,  0(sp)
 1904024:	dfc00015 	stw	ra,0(sp)
        /*
         * Leave a gap in the stack frame at 4(sp) for the muldiv handler to
         * store zero into.
         */

        stw   r1,   8(sp)
 1904028:	d8400215 	stw	at,8(sp)
        stw   r2,  12(sp)
 190402c:	d8800315 	stw	r2,12(sp)
        stw   r3,  16(sp)
 1904030:	d8c00415 	stw	r3,16(sp)
        stw   r4,  20(sp)
 1904034:	d9000515 	stw	r4,20(sp)
        stw   r5,  24(sp)
 1904038:	d9400615 	stw	r5,24(sp)
        stw   r6,  28(sp)
 190403c:	d9800715 	stw	r6,28(sp)
        stw   r7,  32(sp)
 1904040:	d9c00815 	stw	r7,32(sp)

        rdctl r5, estatus
 1904044:	000b307a 	rdctl	r5,estatus

        stw   r8,  36(sp)
 1904048:	da000915 	stw	r8,36(sp)
        stw   r9,  40(sp)
 190404c:	da400a15 	stw	r9,40(sp)
        stw   r10, 44(sp)
 1904050:	da800b15 	stw	r10,44(sp)
        stw   r11, 48(sp)
 1904054:	dac00c15 	stw	r11,48(sp)
        stw   r12, 52(sp)
 1904058:	db000d15 	stw	r12,52(sp)
        stw   r13, 56(sp)
 190405c:	db400e15 	stw	r13,56(sp)
        stw   r14, 60(sp)
 1904060:	db800f15 	stw	r14,60(sp)
        stw   r15, 64(sp)
 1904064:	dbc01015 	stw	r15,64(sp)
        /*
         * ea-4 contains the address of the instruction being executed
         * when the exception occured. For interrupt exceptions, we will
         * will be re-issue the isntruction. Store it in 72(sp)
         */
        stw   r5,  68(sp)  /* estatus */
 1904068:	d9401115 	stw	r5,68(sp)
        addi  r15, ea, -4  /* instruction that caused exception */
 190406c:	ebffff04 	addi	r15,ea,-4
        stw   r15,  72(sp)
 1904070:	dbc01215 	stw	r15,72(sp)
#else
        /*
         * Test to see if the exception was a software exception or caused 
         * by an external interrupt, and vector accordingly.
         */
        rdctl r4, ipending
 1904074:	0009313a 	rdctl	r4,ipending
        andi  r2, r5, 1
 1904078:	2880004c 	andi	r2,r5,1
        beq   r2, zero, .Lnot_irq
 190407c:	10000326 	beq	r2,zero,190408c <alt_exception+0x6c>
        beq   r4, zero, .Lnot_irq
 1904080:	20000226 	beq	r4,zero,190408c <alt_exception+0x6c>
        /*
         * Now that all necessary registers have been preserved, call 
         * alt_irq_handler() to process the interrupts.
         */

        call alt_irq_handler
 1904084:	19040ec0 	call	19040ec <alt_irq_handler>

        .section .exceptions.irqreturn, "xa"

        br    .Lexception_exit
 1904088:	00000306 	br	1904098 <alt_exception+0x78>
         * upon completion, so we write ea (address of instruction *after*
         * the one where the exception occured) into 72(sp). The actual
         * instruction that caused the exception is written in r2, which these
         * handlers will utilize.
         */
        stw   ea,  72(sp)  /* Don't re-issue */
 190408c:	df401215 	stw	ea,72(sp)
        ldw   r2, -4(ea)   /* Instruction that caused exception */
 1904090:	e8bfff17 	ldw	r2,-4(ea)
#ifdef NIOS2_HAS_DEBUG_STUB
       /*
        *  Either tell the user now (if there is a debugger attached) or go into
        *  the debug monitor which will loop until a debugger is attached.
        */
        break
 1904094:	003da03a 	break	0
        /* 
         * Restore the saved registers, so that all general purpose registers 
         * have been restored to their state at the time the interrupt occured.
         */

        ldw   r5,  68(sp)
 1904098:	d9401117 	ldw	r5,68(sp)
        ldw   ea,  72(sp)  /* This becomes the PC once eret is executed */
 190409c:	df401217 	ldw	ea,72(sp)
        ldw   ra,   0(sp)
 19040a0:	dfc00017 	ldw	ra,0(sp)

        wrctl estatus, r5
 19040a4:	2801707a 	wrctl	estatus,r5

        ldw   r1,   8(sp)
 19040a8:	d8400217 	ldw	at,8(sp)
        ldw   r2,  12(sp)
 19040ac:	d8800317 	ldw	r2,12(sp)
        ldw   r3,  16(sp)
 19040b0:	d8c00417 	ldw	r3,16(sp)
        ldw   r4,  20(sp)
 19040b4:	d9000517 	ldw	r4,20(sp)
        ldw   r5,  24(sp)
 19040b8:	d9400617 	ldw	r5,24(sp)
        ldw   r6,  28(sp)
 19040bc:	d9800717 	ldw	r6,28(sp)
        ldw   r7,  32(sp)
 19040c0:	d9c00817 	ldw	r7,32(sp)
#ifdef ALT_STACK_CHECK
        ldw   et, %gprel(alt_exception_old_stack_limit)(gp)
#endif
#endif

        ldw   r8,  36(sp)
 19040c4:	da000917 	ldw	r8,36(sp)
        ldw   r9,  40(sp)
 19040c8:	da400a17 	ldw	r9,40(sp)
        ldw   r10, 44(sp)
 19040cc:	da800b17 	ldw	r10,44(sp)
        ldw   r11, 48(sp)
 19040d0:	dac00c17 	ldw	r11,48(sp)
        ldw   r12, 52(sp)
 19040d4:	db000d17 	ldw	r12,52(sp)
        ldw   r13, 56(sp)
 19040d8:	db400e17 	ldw	r13,56(sp)
        ldw   r14, 60(sp)
 19040dc:	db800f17 	ldw	r14,60(sp)
        ldw   r15, 64(sp)
 19040e0:	dbc01017 	ldw	r15,64(sp)
#endif

        ldw   sp,  76(sp)

#else
        addi  sp, sp, 76
 19040e4:	dec01304 	addi	sp,sp,76

        /*
         * Return to the interrupted instruction.
         */

        eret
 19040e8:	ef80083a 	eret

019040ec <alt_irq_handler>:
 * instruction is present if the macro ALT_CI_INTERRUPT_VECTOR defined.
 */

void alt_irq_handler (void) __attribute__ ((section (".exceptions")));
void alt_irq_handler (void)
{
 19040ec:	defff904 	addi	sp,sp,-28
 19040f0:	dfc00615 	stw	ra,24(sp)
 19040f4:	df000515 	stw	fp,20(sp)
 19040f8:	df000504 	addi	fp,sp,20
  
  /*
   * Notify the operating system that we are at interrupt level.
   */ 
  
  ALT_OS_INT_ENTER();
 19040fc:	08177200 	call	817720 <OSIntEnter>
#ifndef NIOS2_EIC_PRESENT
static ALT_INLINE alt_u32 ALT_ALWAYS_INLINE alt_irq_pending (void)
{
  alt_u32 active;

  NIOS2_READ_IPENDING (active);
 1904100:	0005313a 	rdctl	r2,ipending
 1904104:	e0bffc15 	stw	r2,-16(fp)

  return active;
 1904108:	e0bffc17 	ldw	r2,-16(fp)
   * Consider the case where the high priority interupt is asserted during
   * the interrupt entry sequence for a lower priority interrupt to see why
   * this is the case.
   */

  active = alt_irq_pending ();
 190410c:	e0bfff15 	stw	r2,-4(fp)

  do
  {
    i = 0;
 1904110:	e03ffd15 	stw	zero,-12(fp)
    mask = 1;
 1904114:	00800044 	movi	r2,1
 1904118:	e0bffe15 	stw	r2,-8(fp)
     * called to clear the interrupt condition.
     */

    do
    {
      if (active & mask)
 190411c:	e0ffff17 	ldw	r3,-4(fp)
 1904120:	e0bffe17 	ldw	r2,-8(fp)
 1904124:	1884703a 	and	r2,r3,r2
 1904128:	1005003a 	cmpeq	r2,r2,zero
 190412c:	1000161e 	bne	r2,zero,1904188 <alt_irq_handler+0x9c>
      { 
#ifdef ALT_ENHANCED_INTERRUPT_API_PRESENT
        alt_irq[i].handler(alt_irq[i].context); 
 1904130:	e0bffd17 	ldw	r2,-12(fp)
 1904134:	00c03934 	movhi	r3,228
 1904138:	18e12a04 	addi	r3,r3,-31576
 190413c:	100490fa 	slli	r2,r2,3
 1904140:	10c5883a 	add	r2,r2,r3
 1904144:	11400017 	ldw	r5,0(r2)
 1904148:	e0bffd17 	ldw	r2,-12(fp)
 190414c:	00c03934 	movhi	r3,228
 1904150:	18e12a04 	addi	r3,r3,-31576
 1904154:	100490fa 	slli	r2,r2,3
 1904158:	10c5883a 	add	r2,r2,r3
 190415c:	10800104 	addi	r2,r2,4
 1904160:	11000017 	ldw	r4,0(r2)
 1904164:	283ee83a 	callr	r5
#ifndef NIOS2_EIC_PRESENT
static ALT_INLINE alt_u32 ALT_ALWAYS_INLINE alt_irq_pending (void)
{
  alt_u32 active;

  NIOS2_READ_IPENDING (active);
 1904168:	0005313a 	rdctl	r2,ipending
 190416c:	e0bffb15 	stw	r2,-20(fp)

  return active;
 1904170:	e0bffb17 	ldw	r2,-20(fp)
      mask <<= 1;
      i++;

    } while (1);

    active = alt_irq_pending ();
 1904174:	e0bfff15 	stw	r2,-4(fp)
    
  } while (active);
 1904178:	e0bfff17 	ldw	r2,-4(fp)
 190417c:	1004c03a 	cmpne	r2,r2,zero
 1904180:	103fe31e 	bne	r2,zero,1904110 <alt_irq_handler+0x24>
 1904184:	00000706 	br	19041a4 <alt_irq_handler+0xb8>
#else
        alt_irq[i].handler(alt_irq[i].context, i); 
#endif
        break;
      }
      mask <<= 1;
 1904188:	e0bffe17 	ldw	r2,-8(fp)
 190418c:	1085883a 	add	r2,r2,r2
 1904190:	e0bffe15 	stw	r2,-8(fp)
      i++;
 1904194:	e0bffd17 	ldw	r2,-12(fp)
 1904198:	10800044 	addi	r2,r2,1
 190419c:	e0bffd15 	stw	r2,-12(fp)

    } while (1);
 19041a0:	003fde06 	br	190411c <alt_irq_handler+0x30>

  /*
   * Notify the operating system that interrupt processing is complete.
   */ 

  ALT_OS_INT_EXIT();
 19041a4:	081779c0 	call	81779c <OSIntExit>
}
 19041a8:	e037883a 	mov	sp,fp
 19041ac:	dfc00117 	ldw	ra,4(sp)
 19041b0:	df000017 	ldw	fp,0(sp)
 19041b4:	dec00204 	addi	sp,sp,8
 19041b8:	f800283a 	ret

Disassembly of section .text:

00800000 <_start>:
#if (NIOS2_NUM_OF_SHADOW_REG_SETS == 0)    
    /*
     * Now that the caches are initialized, set up the stack pointer.
     * The value provided by the linker is assumed to be correctly aligned.
     */
    movhi sp, %hi(__alt_stack_pointer)
  800000:	06c04034 	movhi	sp,256
    ori sp, sp, %lo(__alt_stack_pointer)
  800004:	dec00014 	ori	sp,sp,0

    /* Set up the global pointer. */
    movhi gp, %hi(_gp)
  800008:	06802174 	movhi	gp,133
    ori gp, gp, %lo(_gp)
  80000c:	d6a25c14 	ori	gp,gp,35184
 */
#ifndef ALT_SIM_OPTIMIZE
    /* Log that the BSS is about to be cleared. */
    ALT_LOG_PUTS(alt_log_msg_bss)

    movhi r2, %hi(__bss_start)
  800010:	00802174 	movhi	r2,133
    ori r2, r2, %lo(__bss_start)
  800014:	1082b714 	ori	r2,r2,2780

    movhi r3, %hi(__bss_end)
  800018:	00c038f4 	movhi	r3,227
    ori r3, r3, %lo(__bss_end)
  80001c:	18e26414 	ori	r3,r3,35216

    beq r2, r3, 1f
  800020:	10c00326 	beq	r2,r3,800030 <_start+0x30>

0:
    stw zero, (r2)
  800024:	10000015 	stw	zero,0(r2)
    addi r2, r2, 4
  800028:	10800104 	addi	r2,r2,4
    bltu r2, r3, 0b
  80002c:	10fffd36 	bltu	r2,r3,800024 <_start+0x24>

    /* Log that alt_main is about to be called. */
    ALT_LOG_PUTS(alt_log_msg_alt_main)

    /* Call the C entry point. It should never return. */
    call alt_main
  800030:	081635c0 	call	81635c <alt_main>

00800034 <alt_after_alt_main>:

    /* Wait in infinite loop in case alt_main does return. */
alt_after_alt_main:
    br alt_after_alt_main
  800034:	003fff06 	br	800034 <alt_after_alt_main>

00800038 <alt_uCOSIIErrorHandler>:
#include <errno.h>
#include "includes.h"
#include "alt_error_handler.h"
 
void alt_uCOSIIErrorHandler(INT8U error_code, void *expanded_diagnosis_ptr)
{
  800038:	defff904 	addi	sp,sp,-28
  80003c:	dfc00615 	stw	ra,24(sp)
  800040:	df000515 	stw	fp,20(sp)
  800044:	df000504 	addi	fp,sp,20
  800048:	e17ffd15 	stw	r5,-12(fp)
  80004c:	e13ffc05 	stb	r4,-16(fp)
   FAULT_LEVEL fault_level;
   
   if(error_code == OS_NO_ERR)
  800050:	e0bffc03 	ldbu	r2,-16(fp)
  800054:	1005003a 	cmpeq	r2,r2,zero
  800058:	10017b1e 	bne	r2,zero,800648 <alt_uCOSIIErrorHandler+0x610>
   {
      return;
   }
   
   fault_level = SYSTEM;  
  80005c:	00800084 	movi	r2,2
  800060:	e0bffb15 	stw	r2,-20(fp)
   OSSchedLock();  /* Disable Task Switching but still service other IRQs */
  800064:	081789c0 	call	81789c <OSSchedLock>
      
   switch (error_code)
  800068:	e0bffc03 	ldbu	r2,-16(fp)
  80006c:	e0bffe15 	stw	r2,-8(fp)
  800070:	e0fffe17 	ldw	r3,-8(fp)
  800074:	18800a20 	cmpeqi	r2,r3,40
  800078:	1000371e 	bne	r2,zero,800158 <alt_uCOSIIErrorHandler+0x120>
  80007c:	e0fffe17 	ldw	r3,-8(fp)
  800080:	18800a48 	cmpgei	r2,r3,41
  800084:	10001a1e 	bne	r2,zero,8000f0 <alt_uCOSIIErrorHandler+0xb8>
  800088:	e0fffe17 	ldw	r3,-8(fp)
  80008c:	18800120 	cmpeqi	r2,r3,4
  800090:	1000761e 	bne	r2,zero,80026c <alt_uCOSIIErrorHandler+0x234>
  800094:	e0fffe17 	ldw	r3,-8(fp)
  800098:	18800148 	cmpgei	r2,r3,5
  80009c:	10000a1e 	bne	r2,zero,8000c8 <alt_uCOSIIErrorHandler+0x90>
  8000a0:	e0fffe17 	ldw	r3,-8(fp)
  8000a4:	188000a0 	cmpeqi	r2,r3,2
  8000a8:	1000911e 	bne	r2,zero,8002f0 <alt_uCOSIIErrorHandler+0x2b8>
  8000ac:	e0fffe17 	ldw	r3,-8(fp)
  8000b0:	188000c8 	cmpgei	r2,r3,3
  8000b4:	1000771e 	bne	r2,zero,800294 <alt_uCOSIIErrorHandler+0x25c>
  8000b8:	e0fffe17 	ldw	r3,-8(fp)
  8000bc:	18800060 	cmpeqi	r2,r3,1
  8000c0:	10005e1e 	bne	r2,zero,80023c <alt_uCOSIIErrorHandler+0x204>
  8000c4:	0000d806 	br	800428 <alt_uCOSIIErrorHandler+0x3f0>
  8000c8:	e0fffe17 	ldw	r3,-8(fp)
  8000cc:	18800520 	cmpeqi	r2,r3,20
  8000d0:	10004f1e 	bne	r2,zero,800210 <alt_uCOSIIErrorHandler+0x1d8>
  8000d4:	e0fffe17 	ldw	r3,-8(fp)
  8000d8:	188007a0 	cmpeqi	r2,r3,30
  8000dc:	1000ad1e 	bne	r2,zero,800394 <alt_uCOSIIErrorHandler+0x35c>
  8000e0:	e0fffe17 	ldw	r3,-8(fp)
  8000e4:	188002a0 	cmpeqi	r2,r3,10
  8000e8:	1000761e 	bne	r2,zero,8002c4 <alt_uCOSIIErrorHandler+0x28c>
  8000ec:	0000ce06 	br	800428 <alt_uCOSIIErrorHandler+0x3f0>
  8000f0:	e0fffe17 	ldw	r3,-8(fp)
  8000f4:	18801020 	cmpeqi	r2,r3,64
  8000f8:	10009c1e 	bne	r2,zero,80036c <alt_uCOSIIErrorHandler+0x334>
  8000fc:	e0fffe17 	ldw	r3,-8(fp)
  800100:	18801048 	cmpgei	r2,r3,65
  800104:	10000a1e 	bne	r2,zero,800130 <alt_uCOSIIErrorHandler+0xf8>
  800108:	e0fffe17 	ldw	r3,-8(fp)
  80010c:	18800f60 	cmpeqi	r2,r3,61
  800110:	10008b1e 	bne	r2,zero,800340 <alt_uCOSIIErrorHandler+0x308>
  800114:	e0fffe17 	ldw	r3,-8(fp)
  800118:	18800fa0 	cmpeqi	r2,r3,62
  80011c:	10007e1e 	bne	r2,zero,800318 <alt_uCOSIIErrorHandler+0x2e0>
  800120:	e0fffe17 	ldw	r3,-8(fp)
  800124:	18800aa0 	cmpeqi	r2,r3,42
  800128:	1000151e 	bne	r2,zero,800180 <alt_uCOSIIErrorHandler+0x148>
  80012c:	0000be06 	br	800428 <alt_uCOSIIErrorHandler+0x3f0>
  800130:	e0fffe17 	ldw	r3,-8(fp)
  800134:	18801920 	cmpeqi	r2,r3,100
  800138:	1000a11e 	bne	r2,zero,8003c0 <alt_uCOSIIErrorHandler+0x388>
  80013c:	e0fffe17 	ldw	r3,-8(fp)
  800140:	18803fe0 	cmpeqi	r2,r3,255
  800144:	1000aa1e 	bne	r2,zero,8003f0 <alt_uCOSIIErrorHandler+0x3b8>
  800148:	e0fffe17 	ldw	r3,-8(fp)
  80014c:	188010a0 	cmpeqi	r2,r3,66
  800150:	10001d1e 	bne	r2,zero,8001c8 <alt_uCOSIIErrorHandler+0x190>
  800154:	0000b406 	br	800428 <alt_uCOSIIErrorHandler+0x3f0>
   {  
      case OS_PRIO_EXIST:
         fprintf(stderr, "Attempted to assign task priority aready in use.\n");
  800158:	00802174 	movhi	r2,133
  80015c:	10826704 	addi	r2,r2,2460
  800160:	10800017 	ldw	r2,0(r2)
  800164:	11c00317 	ldw	r7,12(r2)
  800168:	01002174 	movhi	r4,133
  80016c:	212a7804 	addi	r4,r4,-22048
  800170:	01400044 	movi	r5,1
  800174:	01800c44 	movi	r6,49
  800178:	08066cc0 	call	8066cc <fwrite>
         break;
  80017c:	0000c106 	br	800484 <alt_uCOSIIErrorHandler+0x44c>
      case OS_PRIO_INVALID:
         fprintf(stderr, "Specified task priority higher than allowed max.\n");
  800180:	00802174 	movhi	r2,133
  800184:	10826704 	addi	r2,r2,2460
  800188:	10800017 	ldw	r2,0(r2)
  80018c:	11c00317 	ldw	r7,12(r2)
  800190:	01002174 	movhi	r4,133
  800194:	212a8504 	addi	r4,r4,-21996
  800198:	01400044 	movi	r5,1
  80019c:	01800c44 	movi	r6,49
  8001a0:	08066cc0 	call	8066cc <fwrite>
         fprintf(stderr, "Task can't be assigned a priority higher than %d\n",
  8001a4:	00802174 	movhi	r2,133
  8001a8:	10826704 	addi	r2,r2,2460
  8001ac:	10800017 	ldw	r2,0(r2)
  8001b0:	11000317 	ldw	r4,12(r2)
  8001b4:	01402174 	movhi	r5,133
  8001b8:	296a9204 	addi	r5,r5,-21944
  8001bc:	01800504 	movi	r6,20
  8001c0:	08057f40 	call	8057f4 <fprintf>
            OS_LOWEST_PRIO);
         break;
  8001c4:	0000af06 	br	800484 <alt_uCOSIIErrorHandler+0x44c>
      case OS_NO_MORE_TCB:
         fprintf(stderr, "Task Control Blocks have been exhausted\n");
  8001c8:	00802174 	movhi	r2,133
  8001cc:	10826704 	addi	r2,r2,2460
  8001d0:	10800017 	ldw	r2,0(r2)
  8001d4:	11c00317 	ldw	r7,12(r2)
  8001d8:	01002174 	movhi	r4,133
  8001dc:	212a9f04 	addi	r4,r4,-21892
  8001e0:	01400044 	movi	r5,1
  8001e4:	01800a04 	movi	r6,40
  8001e8:	08066cc0 	call	8066cc <fwrite>
         fprintf(stderr, "Current max number of tasks is %d\n",OS_MAX_TASKS);
  8001ec:	00802174 	movhi	r2,133
  8001f0:	10826704 	addi	r2,r2,2460
  8001f4:	10800017 	ldw	r2,0(r2)
  8001f8:	11000317 	ldw	r4,12(r2)
  8001fc:	01402174 	movhi	r5,133
  800200:	296aaa04 	addi	r5,r5,-21848
  800204:	01800284 	movi	r6,10
  800208:	08057f40 	call	8057f4 <fprintf>
         break;
  80020c:	00009d06 	br	800484 <alt_uCOSIIErrorHandler+0x44c>
      case OS_MBOX_FULL:
         fault_level = NONE;
  800210:	e03ffb15 	stw	zero,-20(fp)
         fprintf(stderr, "Attempted Post to Mailbox already holding message\n");
  800214:	00802174 	movhi	r2,133
  800218:	10826704 	addi	r2,r2,2460
  80021c:	10800017 	ldw	r2,0(r2)
  800220:	11c00317 	ldw	r7,12(r2)
  800224:	01002174 	movhi	r4,133
  800228:	212ab304 	addi	r4,r4,-21812
  80022c:	01400044 	movi	r5,1
  800230:	01800c84 	movi	r6,50
  800234:	08066cc0 	call	8066cc <fwrite>
         break;
  800238:	00009206 	br	800484 <alt_uCOSIIErrorHandler+0x44c>
      case OS_ERR_EVENT_TYPE:
         fault_level = TASK;
  80023c:	00800044 	movi	r2,1
  800240:	e0bffb15 	stw	r2,-20(fp)
         fprintf(stderr, 
  800244:	00802174 	movhi	r2,133
  800248:	10826704 	addi	r2,r2,2460
  80024c:	10800017 	ldw	r2,0(r2)
  800250:	11c00317 	ldw	r7,12(r2)
  800254:	01002174 	movhi	r4,133
  800258:	212ac004 	addi	r4,r4,-21760
  80025c:	01400044 	movi	r5,1
  800260:	01801244 	movi	r6,73
  800264:	08066cc0 	call	8066cc <fwrite>
"Attempted to access a resource with no match for the required data type.\n");
         break;
  800268:	00008606 	br	800484 <alt_uCOSIIErrorHandler+0x44c>
      case OS_ERR_PEVENT_NULL:
         fprintf(stderr, "Attempting to access a resource pointing to NULL\n");
  80026c:	00802174 	movhi	r2,133
  800270:	10826704 	addi	r2,r2,2460
  800274:	10800017 	ldw	r2,0(r2)
  800278:	11c00317 	ldw	r7,12(r2)
  80027c:	01002174 	movhi	r4,133
  800280:	212ad304 	addi	r4,r4,-21684
  800284:	01400044 	movi	r5,1
  800288:	01800c44 	movi	r6,49
  80028c:	08066cc0 	call	8066cc <fwrite>
         break;
  800290:	00007c06 	br	800484 <alt_uCOSIIErrorHandler+0x44c>
      case OS_ERR_POST_NULL_PTR:
         fault_level = TASK;
  800294:	00800044 	movi	r2,1
  800298:	e0bffb15 	stw	r2,-20(fp)
         fprintf(stderr, "Attempted to Post a NULL to a resource. \n");
  80029c:	00802174 	movhi	r2,133
  8002a0:	10826704 	addi	r2,r2,2460
  8002a4:	10800017 	ldw	r2,0(r2)
  8002a8:	11c00317 	ldw	r7,12(r2)
  8002ac:	01002174 	movhi	r4,133
  8002b0:	212ae004 	addi	r4,r4,-21632
  8002b4:	01400044 	movi	r5,1
  8002b8:	01800a44 	movi	r6,41
  8002bc:	08066cc0 	call	8066cc <fwrite>
         break;
  8002c0:	00007006 	br	800484 <alt_uCOSIIErrorHandler+0x44c>
      case OS_TIMEOUT:
         fault_level = NONE;
  8002c4:	e03ffb15 	stw	zero,-20(fp)
         fprintf(stderr, "Resource not received in specified time\n");
  8002c8:	00802174 	movhi	r2,133
  8002cc:	10826704 	addi	r2,r2,2460
  8002d0:	10800017 	ldw	r2,0(r2)
  8002d4:	11c00317 	ldw	r7,12(r2)
  8002d8:	01002174 	movhi	r4,133
  8002dc:	212aeb04 	addi	r4,r4,-21588
  8002e0:	01400044 	movi	r5,1
  8002e4:	01800a04 	movi	r6,40
  8002e8:	08066cc0 	call	8066cc <fwrite>
         break;
  8002ec:	00006506 	br	800484 <alt_uCOSIIErrorHandler+0x44c>
      case OS_ERR_PEND_ISR:
         fprintf(stderr, "Attempting to pend for a resource in an ISR\n");
  8002f0:	00802174 	movhi	r2,133
  8002f4:	10826704 	addi	r2,r2,2460
  8002f8:	10800017 	ldw	r2,0(r2)
  8002fc:	11c00317 	ldw	r7,12(r2)
  800300:	01002174 	movhi	r4,133
  800304:	212af604 	addi	r4,r4,-21544
  800308:	01400044 	movi	r5,1
  80030c:	01800b04 	movi	r6,44
  800310:	08066cc0 	call	8066cc <fwrite>
         break;
  800314:	00005b06 	br	800484 <alt_uCOSIIErrorHandler+0x44c>
      case OS_TASK_DEL_IDLE:
         fprintf(stderr, "Attempted to delete the IDLE task\n");
  800318:	00802174 	movhi	r2,133
  80031c:	10826704 	addi	r2,r2,2460
  800320:	10800017 	ldw	r2,0(r2)
  800324:	11c00317 	ldw	r7,12(r2)
  800328:	01002174 	movhi	r4,133
  80032c:	212b0204 	addi	r4,r4,-21496
  800330:	01400044 	movi	r5,1
  800334:	01800884 	movi	r6,34
  800338:	08066cc0 	call	8066cc <fwrite>
         break;
  80033c:	00005106 	br	800484 <alt_uCOSIIErrorHandler+0x44c>
      case OS_TASK_DEL_ERR:
         fault_level = NONE;
  800340:	e03ffb15 	stw	zero,-20(fp)
         fprintf(stderr, "Attempted to delete a task that does not exist\n");
  800344:	00802174 	movhi	r2,133
  800348:	10826704 	addi	r2,r2,2460
  80034c:	10800017 	ldw	r2,0(r2)
  800350:	11c00317 	ldw	r7,12(r2)
  800354:	01002174 	movhi	r4,133
  800358:	212b0b04 	addi	r4,r4,-21460
  80035c:	01400044 	movi	r5,1
  800360:	01800bc4 	movi	r6,47
  800364:	08066cc0 	call	8066cc <fwrite>
         break;
  800368:	00004606 	br	800484 <alt_uCOSIIErrorHandler+0x44c>
      case OS_TASK_DEL_ISR:
         fprintf(stderr, "Attempted to delete a task from an ISR\n");
  80036c:	00802174 	movhi	r2,133
  800370:	10826704 	addi	r2,r2,2460
  800374:	10800017 	ldw	r2,0(r2)
  800378:	11c00317 	ldw	r7,12(r2)
  80037c:	01002174 	movhi	r4,133
  800380:	212b1704 	addi	r4,r4,-21412
  800384:	01400044 	movi	r5,1
  800388:	018009c4 	movi	r6,39
  80038c:	08066cc0 	call	8066cc <fwrite>
         break;
  800390:	00003c06 	br	800484 <alt_uCOSIIErrorHandler+0x44c>
      case OS_Q_FULL:
         fault_level = NONE;
  800394:	e03ffb15 	stw	zero,-20(fp)
         fprintf(stderr, "Attempted to post to a full message queue\n");
  800398:	00802174 	movhi	r2,133
  80039c:	10826704 	addi	r2,r2,2460
  8003a0:	10800017 	ldw	r2,0(r2)
  8003a4:	11c00317 	ldw	r7,12(r2)
  8003a8:	01002174 	movhi	r4,133
  8003ac:	212b2104 	addi	r4,r4,-21372
  8003b0:	01400044 	movi	r5,1
  8003b4:	01800a84 	movi	r6,42
  8003b8:	08066cc0 	call	8066cc <fwrite>
         break;
  8003bc:	00003106 	br	800484 <alt_uCOSIIErrorHandler+0x44c>
      case OS_ERR_NOT_MUTEX_OWNER:
         fault_level = TASK;
  8003c0:	00800044 	movi	r2,1
  8003c4:	e0bffb15 	stw	r2,-20(fp)
         fprintf(stderr, "Attempted to post a mutex not owned by the task\n");
  8003c8:	00802174 	movhi	r2,133
  8003cc:	10826704 	addi	r2,r2,2460
  8003d0:	10800017 	ldw	r2,0(r2)
  8003d4:	11c00317 	ldw	r7,12(r2)
  8003d8:	01002174 	movhi	r4,133
  8003dc:	212b2c04 	addi	r4,r4,-21328
  8003e0:	01400044 	movi	r5,1
  8003e4:	01800c04 	movi	r6,48
  8003e8:	08066cc0 	call	8066cc <fwrite>
         break;
  8003ec:	00002506 	br	800484 <alt_uCOSIIErrorHandler+0x44c>
      case EXPANDED_DIAGNOSIS_CODE:      
         fault_level = SYSTEM;
  8003f0:	00800084 	movi	r2,2
  8003f4:	e0bffb15 	stw	r2,-20(fp)
         printf(
  8003f8:	01002174 	movhi	r4,133
  8003fc:	212b3904 	addi	r4,r4,-21276
  800400:	08072f00 	call	8072f0 <printf>
"\n[MicroC/OS-II]: See STDERR for expanded diagnosis translation.");    
         fprintf(stderr, "\n[MicroC/OS-II]: Expanded Diagnosis: %s.", 
  800404:	00802174 	movhi	r2,133
  800408:	10826704 	addi	r2,r2,2460
  80040c:	10800017 	ldw	r2,0(r2)
  800410:	11000317 	ldw	r4,12(r2)
  800414:	e1bffd17 	ldw	r6,-12(fp)
  800418:	01402174 	movhi	r5,133
  80041c:	296b4904 	addi	r5,r5,-21212
  800420:	08057f40 	call	8057f4 <fprintf>
                 (char *)expanded_diagnosis_ptr);
         break;           
  800424:	00001706 	br	800484 <alt_uCOSIIErrorHandler+0x44c>
      default:
         printf("\n[MicroC/OS-II]: (Not a MicroC/OS-II error) See STDERR.\n");    
  800428:	01002174 	movhi	r4,133
  80042c:	212b5404 	addi	r4,r4,-21168
  800430:	08074080 	call	807408 <puts>
         fprintf(stderr, "\n[MicroC/OS-II]:");
  800434:	00802174 	movhi	r2,133
  800438:	10826704 	addi	r2,r2,2460
  80043c:	10800017 	ldw	r2,0(r2)
  800440:	11c00317 	ldw	r7,12(r2)
  800444:	01002174 	movhi	r4,133
  800448:	212b6204 	addi	r4,r4,-21112
  80044c:	01400044 	movi	r5,1
  800450:	01800404 	movi	r6,16
  800454:	08066cc0 	call	8066cc <fwrite>
         fprintf(stderr, "\nError_code %d.\n", error_code);
  800458:	00802174 	movhi	r2,133
  80045c:	10826704 	addi	r2,r2,2460
  800460:	10800017 	ldw	r2,0(r2)
  800464:	11000317 	ldw	r4,12(r2)
  800468:	e1bffc03 	ldbu	r6,-16(fp)
  80046c:	01402174 	movhi	r5,133
  800470:	296b6704 	addi	r5,r5,-21092
  800474:	08057f40 	call	8057f4 <fprintf>
         perror("\n[MicroC/OS-II]: (Not a MicroC/OS-II error), ERRNO: ");
  800478:	01002174 	movhi	r4,133
  80047c:	212b6c04 	addi	r4,r4,-21072
  800480:	08072dc0 	call	8072dc <perror>

   }

   /* Process the error based on the fault level, 
    * reenable scheduler if appropriate. */  
   switch (fault_level) {
  800484:	e0bffb17 	ldw	r2,-20(fp)
  800488:	e0bfff15 	stw	r2,-4(fp)
  80048c:	e0ffff17 	ldw	r3,-4(fp)
  800490:	18800060 	cmpeqi	r2,r3,1
  800494:	1000071e 	bne	r2,zero,8004b4 <alt_uCOSIIErrorHandler+0x47c>
  800498:	e0ffff17 	ldw	r3,-4(fp)
  80049c:	18800070 	cmpltui	r2,r3,1
  8004a0:	10003f1e 	bne	r2,zero,8005a0 <alt_uCOSIIErrorHandler+0x568>
  8004a4:	e0ffff17 	ldw	r3,-4(fp)
  8004a8:	188000a0 	cmpeqi	r2,r3,2
  8004ac:	10001d1e 	bne	r2,zero,800524 <alt_uCOSIIErrorHandler+0x4ec>
  8004b0:	00005806 	br	800614 <alt_uCOSIIErrorHandler+0x5dc>
      case TASK:
         /* Error can be isolated by killing the task */
         printf("\n[MicroC/OS-II]: See STDERR (FAULT_LEVEL is TASK).");
  8004b4:	01002174 	movhi	r4,133
  8004b8:	212b7a04 	addi	r4,r4,-21016
  8004bc:	08072f00 	call	8072f0 <printf>
         fprintf(stderr, "\n[MicroC/OS-II]: FAULT_LEVEL is TASK");
  8004c0:	00802174 	movhi	r2,133
  8004c4:	10826704 	addi	r2,r2,2460
  8004c8:	10800017 	ldw	r2,0(r2)
  8004cc:	11c00317 	ldw	r7,12(r2)
  8004d0:	01002174 	movhi	r4,133
  8004d4:	212b8704 	addi	r4,r4,-20964
  8004d8:	01400044 	movi	r5,1
  8004dc:	01800904 	movi	r6,36
  8004e0:	08066cc0 	call	8066cc <fwrite>
         fprintf(stderr, "\n[MicroC/OS-II]: Task is being deleted.\n");
  8004e4:	00802174 	movhi	r2,133
  8004e8:	10826704 	addi	r2,r2,2460
  8004ec:	10800017 	ldw	r2,0(r2)
  8004f0:	11c00317 	ldw	r7,12(r2)
  8004f4:	01002174 	movhi	r4,133
  8004f8:	212b9104 	addi	r4,r4,-20924
  8004fc:	01400044 	movi	r5,1
  800500:	01800a04 	movi	r6,40
  800504:	08066cc0 	call	8066cc <fwrite>
         OSSchedUnlock(); /* Reenable Task Switching */
  800508:	08179280 	call	817928 <OSSchedUnlock>
         OSTaskDel(OS_PRIO_SELF);
  80050c:	01003fc4 	movi	r4,255
  800510:	081e66c0 	call	81e66c <OSTaskDel>
         /* Reinvoke uCOSII error handler in case task deletion fails, in 
          * which case fault_level for this secondary error will be SYSTEM. */
         alt_uCOSIIErrorHandler(error_code, 0);         
  800514:	e13ffc03 	ldbu	r4,-16(fp)
  800518:	000b883a 	mov	r5,zero
  80051c:	08000380 	call	800038 <alt_uCOSIIErrorHandler>
         break;
  800520:	00004806 	br	800644 <alt_uCOSIIErrorHandler+0x60c>
      case SYSTEM:
         /* Total System Failure, Restart Required */
         printf("\n[MicroC/OS-II]: See STDERR (FAULT_LEVEL is SYSTEM).");    
  800524:	01002174 	movhi	r4,133
  800528:	212b9c04 	addi	r4,r4,-20880
  80052c:	08072f00 	call	8072f0 <printf>
         fprintf(stderr, "\n[MicroC/OS-II]: FAULT_LEVEL is SYSTEM");
  800530:	00802174 	movhi	r2,133
  800534:	10826704 	addi	r2,r2,2460
  800538:	10800017 	ldw	r2,0(r2)
  80053c:	11c00317 	ldw	r7,12(r2)
  800540:	01002174 	movhi	r4,133
  800544:	212baa04 	addi	r4,r4,-20824
  800548:	01400044 	movi	r5,1
  80054c:	01800984 	movi	r6,38
  800550:	08066cc0 	call	8066cc <fwrite>
         fprintf(stderr, "\n[MicroC/OS-II]: FATAL Error, Restart required.");
  800554:	00802174 	movhi	r2,133
  800558:	10826704 	addi	r2,r2,2460
  80055c:	10800017 	ldw	r2,0(r2)
  800560:	11c00317 	ldw	r7,12(r2)
  800564:	01002174 	movhi	r4,133
  800568:	212bb404 	addi	r4,r4,-20784
  80056c:	01400044 	movi	r5,1
  800570:	01800bc4 	movi	r6,47
  800574:	08066cc0 	call	8066cc <fwrite>
         fprintf(stderr, "\n[MicroC/OS-II]: Locking scheduler - endless loop.\n");
  800578:	00802174 	movhi	r2,133
  80057c:	10826704 	addi	r2,r2,2460
  800580:	10800017 	ldw	r2,0(r2)
  800584:	11c00317 	ldw	r7,12(r2)
  800588:	01002174 	movhi	r4,133
  80058c:	212bc004 	addi	r4,r4,-20736
  800590:	01400044 	movi	r5,1
  800594:	01800cc4 	movi	r6,51
  800598:	08066cc0 	call	8066cc <fwrite>
         while(1); /* Since scheduler is locked,loop halts all task activity.*/
  80059c:	003fff06 	br	80059c <alt_uCOSIIErrorHandler+0x564>
         break;
      case NONE:
         fprintf(stderr, "\n[MicroC/OS-II]: FAULT_LEVEL is NONE");
  8005a0:	00802174 	movhi	r2,133
  8005a4:	10826704 	addi	r2,r2,2460
  8005a8:	10800017 	ldw	r2,0(r2)
  8005ac:	11c00317 	ldw	r7,12(r2)
  8005b0:	01002174 	movhi	r4,133
  8005b4:	212bcd04 	addi	r4,r4,-20684
  8005b8:	01400044 	movi	r5,1
  8005bc:	01800904 	movi	r6,36
  8005c0:	08066cc0 	call	8066cc <fwrite>
         fprintf(stderr, "\n[MicroC/OS-II]: Informational error only, control"); 
  8005c4:	00802174 	movhi	r2,133
  8005c8:	10826704 	addi	r2,r2,2460
  8005cc:	10800017 	ldw	r2,0(r2)
  8005d0:	11c00317 	ldw	r7,12(r2)
  8005d4:	01002174 	movhi	r4,133
  8005d8:	212bd704 	addi	r4,r4,-20644
  8005dc:	01400044 	movi	r5,1
  8005e0:	01800c84 	movi	r6,50
  8005e4:	08066cc0 	call	8066cc <fwrite>
         fprintf(stderr, 
  8005e8:	00802174 	movhi	r2,133
  8005ec:	10826704 	addi	r2,r2,2460
  8005f0:	10800017 	ldw	r2,0(r2)
  8005f4:	11c00317 	ldw	r7,12(r2)
  8005f8:	01002174 	movhi	r4,133
  8005fc:	212be404 	addi	r4,r4,-20592
  800600:	01400044 	movi	r5,1
  800604:	01800f84 	movi	r6,62
  800608:	08066cc0 	call	8066cc <fwrite>
            "returned to task to complete processing at application level.\n");
         OSSchedUnlock(); /* Reenable Task Switching */
  80060c:	08179280 	call	817928 <OSSchedUnlock>
         return;   
  800610:	00000d06 	br	800648 <alt_uCOSIIErrorHandler+0x610>
         break;      
      default:
         printf("\n[MicroC/OS-II]: See STDERR (FAULT_LEVEL is Unknown).\n");
  800614:	01002174 	movhi	r4,133
  800618:	212bf404 	addi	r4,r4,-20528
  80061c:	08074080 	call	807408 <puts>
         fprintf(stderr, "\n[MicroC/OS-II]: FAULT_LEVEL is unknown!?!\n");
  800620:	00802174 	movhi	r2,133
  800624:	10826704 	addi	r2,r2,2460
  800628:	10800017 	ldw	r2,0(r2)
  80062c:	11c00317 	ldw	r7,12(r2)
  800630:	01002174 	movhi	r4,133
  800634:	212c0204 	addi	r4,r4,-20472
  800638:	01400044 	movi	r5,1
  80063c:	01800ac4 	movi	r6,43
  800640:	08066cc0 	call	8066cc <fwrite>
   }
   while(1); /* Correct Program Flow never gets here. */
  800644:	003fff06 	br	800644 <alt_uCOSIIErrorHandler+0x60c>
}
  800648:	e037883a 	mov	sp,fp
  80064c:	dfc00117 	ldw	ra,4(sp)
  800650:	df000017 	ldw	fp,0(sp)
  800654:	dec00204 	addi	sp,sp,8
  800658:	f800283a 	ret

0080065c <dm9000a_iow>:
int dm9ka_pkt_send(PACKET pkt);
int dm9ka_close(int iface);


void dm9000a_iow(unsigned int reg, unsigned int data)
{
  80065c:	defffc04 	addi	sp,sp,-16
  800660:	dfc00315 	stw	ra,12(sp)
  800664:	df000215 	stw	fp,8(sp)
  800668:	df000204 	addi	fp,sp,8
  80066c:	e13ffe15 	stw	r4,-8(fp)
  800670:	e17fff15 	stw	r5,-4(fp)
  IOWR(DM9000A_INST_BASE, IO_addr, reg);
  800674:	e0fffe17 	ldw	r3,-8(fp)
  800678:	00806474 	movhi	r2,401
  80067c:	10a41004 	addi	r2,r2,-28608
  800680:	10c00035 	stwio	r3,0(r2)
  usleep(STD_DELAY);
  800684:	01000044 	movi	r4,1
  800688:	08169ac0 	call	8169ac <usleep>
  IOWR(DM9000A_INST_BASE, IO_data, data);
  80068c:	e0ffff17 	ldw	r3,-4(fp)
  800690:	00806474 	movhi	r2,401
  800694:	10a41104 	addi	r2,r2,-28604
  800698:	10c00035 	stwio	r3,0(r2)
}
  80069c:	e037883a 	mov	sp,fp
  8006a0:	dfc00117 	ldw	ra,4(sp)
  8006a4:	df000017 	ldw	fp,0(sp)
  8006a8:	dec00204 	addi	sp,sp,8
  8006ac:	f800283a 	ret

008006b0 <dm9000a_ior>:
unsigned int dm9000a_ior(unsigned int reg)
{
  8006b0:	defffd04 	addi	sp,sp,-12
  8006b4:	dfc00215 	stw	ra,8(sp)
  8006b8:	df000115 	stw	fp,4(sp)
  8006bc:	df000104 	addi	fp,sp,4
  8006c0:	e13fff15 	stw	r4,-4(fp)
  IOWR(DM9000A_INST_BASE, IO_addr, reg);
  8006c4:	e0ffff17 	ldw	r3,-4(fp)
  8006c8:	00806474 	movhi	r2,401
  8006cc:	10a41004 	addi	r2,r2,-28608
  8006d0:	10c00035 	stwio	r3,0(r2)
  usleep(STD_DELAY);
  8006d4:	01000044 	movi	r4,1
  8006d8:	08169ac0 	call	8169ac <usleep>
  return IORD(DM9000A_INST_BASE, IO_data);
  8006dc:	00806474 	movhi	r2,401
  8006e0:	10a41104 	addi	r2,r2,-28604
  8006e4:	10800037 	ldwio	r2,0(r2)
}
  8006e8:	e037883a 	mov	sp,fp
  8006ec:	dfc00117 	ldw	ra,4(sp)
  8006f0:	df000017 	ldw	fp,0(sp)
  8006f4:	dec00204 	addi	sp,sp,8
  8006f8:	f800283a 	ret

008006fc <phy_write>:

void phy_write(unsigned int reg, unsigned int value)
{ 
  8006fc:	defffc04 	addi	sp,sp,-16
  800700:	dfc00315 	stw	ra,12(sp)
  800704:	df000215 	stw	fp,8(sp)
  800708:	df000204 	addi	fp,sp,8
  80070c:	e13ffe15 	stw	r4,-8(fp)
  800710:	e17fff15 	stw	r5,-4(fp)
  /* set PHY register address into EPAR REG. 0CH */
  dm9000a_iow(0x0C, reg | 0x40); /* PHY register address setting,
  800714:	e0bffe17 	ldw	r2,-8(fp)
  800718:	11401014 	ori	r5,r2,64
  80071c:	01000304 	movi	r4,12
  800720:	080065c0 	call	80065c <dm9000a_iow>
			    and DM9000_PHY offset = 0x40 */

  /* fill PHY WRITE data into EPDR REG. 0EH & REG. 0DH */
  dm9000a_iow(0x0E, ((value >> 8) & 0xFF));   /* PHY data high_byte */
  800724:	e0bfff17 	ldw	r2,-4(fp)
  800728:	1004d23a 	srli	r2,r2,8
  80072c:	11403fcc 	andi	r5,r2,255
  800730:	01000384 	movi	r4,14
  800734:	080065c0 	call	80065c <dm9000a_iow>
  dm9000a_iow(0x0D, value & 0xFF);            /* PHY data low_byte */
  800738:	e0bfff17 	ldw	r2,-4(fp)
  80073c:	11403fcc 	andi	r5,r2,255
  800740:	01000344 	movi	r4,13
  800744:	080065c0 	call	80065c <dm9000a_iow>

  /* issue PHY + WRITE command = 0xa into EPCR REG. 0BH */
  dm9000a_iow(0x0B, 0x8);                     /* clear PHY command first */
  800748:	010002c4 	movi	r4,11
  80074c:	01400204 	movi	r5,8
  800750:	080065c0 	call	80065c <dm9000a_iow>
  IOWR(DM9000A_INST_BASE, IO_data, 0x0A);  /* issue PHY + WRITE command */
  800754:	00c06474 	movhi	r3,401
  800758:	18e41104 	addi	r3,r3,-28604
  80075c:	00800284 	movi	r2,10
  800760:	18800035 	stwio	r2,0(r3)
  usleep(STD_DELAY);
  800764:	01000044 	movi	r4,1
  800768:	08169ac0 	call	8169ac <usleep>
  IOWR(DM9000A_INST_BASE, IO_data, 0x08);  /* clear PHY command again */
  80076c:	00c06474 	movhi	r3,401
  800770:	18e41104 	addi	r3,r3,-28604
  800774:	00800204 	movi	r2,8
  800778:	18800035 	stwio	r2,0(r3)
  usleep(50);  /* wait 1~30 us (>20 us) for PHY + WRITE completion */
  80077c:	01000c84 	movi	r4,50
  800780:	08169ac0 	call	8169ac <usleep>
}
  800784:	e037883a 	mov	sp,fp
  800788:	dfc00117 	ldw	ra,4(sp)
  80078c:	df000017 	ldw	fp,0(sp)
  800790:	dec00204 	addi	sp,sp,8
  800794:	f800283a 	ret

00800798 <dm9000a_reset>:

/* DM9000_init I/O routine */
unsigned int dm9000a_reset(unsigned char *mac_address)
{
  800798:	defffc04 	addi	sp,sp,-16
  80079c:	dfc00315 	stw	ra,12(sp)
  8007a0:	df000215 	stw	fp,8(sp)
  8007a4:	df000204 	addi	fp,sp,8
  8007a8:	e13fff15 	stw	r4,-4(fp)
  unsigned int  i;
  /* set the internal PHY power-on (GPIOs normal settings) */
  dm9000a_iow(0x1E, 0x01);  /* GPCR REG. 1EH = 1 selected
  8007ac:	01000784 	movi	r4,30
  8007b0:	01400044 	movi	r5,1
  8007b4:	080065c0 	call	80065c <dm9000a_iow>
                    		       GPIO0 "output" port for internal PHY */
  dm9000a_iow(0x1F, 0x00);  // GPR  REG. 1FH GEPIO0
  8007b8:	010007c4 	movi	r4,31
  8007bc:	000b883a 	mov	r5,zero
  8007c0:	080065c0 	call	80065c <dm9000a_iow>
                    		    //   Bit [0] = 0 to activate internal PHY */
  msleep(10);                // wait > 2 ms for PHY power-up ready 
  8007c4:	0109c404 	movi	r4,10000
  8007c8:	08169ac0 	call	8169ac <usleep>

  /* software-RESET NIC */
  dm9000a_iow(NCR, 0x03);   /* NCR REG. 00 RST Bit [0] = 1 reset on,
  8007cc:	0009883a 	mov	r4,zero
  8007d0:	014000c4 	movi	r5,3
  8007d4:	080065c0 	call	80065c <dm9000a_iow>
		                           and LBK Bit [2:1] = 01b MAC loopback on */
  
  usleep(20);               /* wait > 10us for a software-RESET ok */
  8007d8:	01000504 	movi	r4,20
  8007dc:	08169ac0 	call	8169ac <usleep>
  
  dm9000a_iow(NCR, 0x00);   /* normalize */
  8007e0:	0009883a 	mov	r4,zero
  8007e4:	000b883a 	mov	r5,zero
  8007e8:	080065c0 	call	80065c <dm9000a_iow>
  dm9000a_iow(NCR, 0x03);
  8007ec:	0009883a 	mov	r4,zero
  8007f0:	014000c4 	movi	r5,3
  8007f4:	080065c0 	call	80065c <dm9000a_iow>
  usleep(20);
  8007f8:	01000504 	movi	r4,20
  8007fc:	08169ac0 	call	8169ac <usleep>
  dm9000a_iow(NCR, 0x00);
  800800:	0009883a 	mov	r4,zero
  800804:	000b883a 	mov	r5,zero
  800808:	080065c0 	call	80065c <dm9000a_iow>
  dm9000a_iow(ISR, 0x3F); /* clear the ISR status: PRS, PTS, ROS, ROOS 4 bits,
  80080c:	01003f84 	movi	r4,254
  800810:	01400fc4 	movi	r5,63
  800814:	080065c0 	call	80065c <dm9000a_iow>
                     		      by RW/C1 */
  dm9000a_iow(NSR, 0x2C); /* clear the TX status: TX1END, TX2END, WAKEUP 3 bits,
  800818:	01000044 	movi	r4,1
  80081c:	01400b04 	movi	r5,44
  800820:	080065c0 	call	80065c <dm9000a_iow>
		                          by RW/C1 */

  /* set GPIO0=1 then GPIO0=0 to turn off and on the internal PHY */
  dm9000a_iow(0x1F, 0x01);  // GPR PHYPD Bit [0] = 1 turn-off PHY */
  800824:	010007c4 	movi	r4,31
  800828:	01400044 	movi	r5,1
  80082c:	080065c0 	call	80065c <dm9000a_iow>
  dm9000a_iow(0x1F, 0x00);  // PHYPD Bit [0] = 0 activate phyxcer */
  800830:	010007c4 	movi	r4,31
  800834:	000b883a 	mov	r5,zero
  800838:	080065c0 	call	80065c <dm9000a_iow>
  msleep(20);               /* wait >4 ms for PHY power-up */
  80083c:	01138804 	movi	r4,20000
  800840:	08169ac0 	call	8169ac <usleep>

  /* set PHY operation mode */

  phy_write(0,PHY_reset);   /* reset PHY registers back to the default state */
  800844:	0009883a 	mov	r4,zero
  800848:	01600014 	movui	r5,32768
  80084c:	08006fc0 	call	8006fc <phy_write>
  usleep(50);               /* wait >30 us for PHY software-RESET ok */
  800850:	01000c84 	movi	r4,50
  800854:	08169ac0 	call	8169ac <usleep>
  phy_write(16, 0x404);     /* turn off PHY reduce-power-down mode only */
  800858:	01000404 	movi	r4,16
  80085c:	01410104 	movi	r5,1028
  800860:	08006fc0 	call	8006fc <phy_write>
  phy_write(4, PHY_txab);   /* set PHY TX advertised ability:
  800864:	01000104 	movi	r4,4
  800868:	01417844 	movi	r5,1505
  80086c:	08006fc0 	call	8006fc <phy_write>
                   			       ALL + Flow_control */  
  phy_write(0, 0x1200);     /* PHY auto-NEGO re-start enable
  800870:	0009883a 	mov	r4,zero
  800874:	01448004 	movi	r5,4608
  800878:	08006fc0 	call	8006fc <phy_write>
                               (RESTART_AUTO_NEGOTIATION +
                               AUTO_NEGOTIATION_ENABLE)
                               to auto sense and recovery PHY registers */
  msleep(20);                /* wait >2 ms for PHY auto-sense
  80087c:	01138804 	movi	r4,20000
  800880:	08169ac0 	call	8169ac <usleep>
			                         linking to partner */

  /* store MAC address into NIC */
  for (i = 0; i < 6; i++) 
  800884:	e03ffe15 	stw	zero,-8(fp)
  800888:	00000b06 	br	8008b8 <dm9000a_reset+0x120>
    dm9000a_iow(16 + i, mac_address[i]);
  80088c:	e0bffe17 	ldw	r2,-8(fp)
  800890:	11000404 	addi	r4,r2,16
  800894:	e0fffe17 	ldw	r3,-8(fp)
  800898:	e0bfff17 	ldw	r2,-4(fp)
  80089c:	1885883a 	add	r2,r3,r2
  8008a0:	10800003 	ldbu	r2,0(r2)
  8008a4:	11403fcc 	andi	r5,r2,255
  8008a8:	080065c0 	call	80065c <dm9000a_iow>
                               to auto sense and recovery PHY registers */
  msleep(20);                /* wait >2 ms for PHY auto-sense
			                         linking to partner */

  /* store MAC address into NIC */
  for (i = 0; i < 6; i++) 
  8008ac:	e0bffe17 	ldw	r2,-8(fp)
  8008b0:	10800044 	addi	r2,r2,1
  8008b4:	e0bffe15 	stw	r2,-8(fp)
  8008b8:	e0bffe17 	ldw	r2,-8(fp)
  8008bc:	108001b0 	cmpltui	r2,r2,6
  8008c0:	103ff21e 	bne	r2,zero,80088c <dm9000a_reset+0xf4>
    dm9000a_iow(16 + i, mac_address[i]);

  /* clear any pending interrupt */
  dm9000a_iow(ISR, 0x3F); /* clear the ISR status: PRS, PTS, ROS, ROOS 4 bits,
  8008c4:	01003f84 	movi	r4,254
  8008c8:	01400fc4 	movi	r5,63
  8008cc:	080065c0 	call	80065c <dm9000a_iow>
                     		      by RW/C1 */
  dm9000a_iow(NSR, 0x2C); /* clear the TX status: TX1END, TX2END, WAKEUP 3 bits,
  8008d0:	01000044 	movi	r4,1
  8008d4:	01400b04 	movi	r5,44
  8008d8:	080065c0 	call	80065c <dm9000a_iow>
		                          by RW/C1 */

  /* program operating registers~ */
  dm9000a_iow(NCR, NCR_set); /* NCR REG. 00 enable the chip functions
  8008dc:	0009883a 	mov	r4,zero
  8008e0:	000b883a 	mov	r5,zero
  8008e4:	080065c0 	call	80065c <dm9000a_iow>
                        (and disable this MAC loopback mode back to normal) */
  dm9000a_iow(0x08, BPTR_set); /* BPTR  REG.08  (if necessary) RX Back Pressure
  8008e8:	01000204 	movi	r4,8
  8008ec:	01400fc4 	movi	r5,63
  8008f0:	080065c0 	call	80065c <dm9000a_iow>
                                  Threshold in Half duplex moe only:
                                  High Water 3KB, 600 us */
  dm9000a_iow(0x09, FCTR_set);  /* FCTR  REG.09  (if necessary)
  8008f4:	01000244 	movi	r4,9
  8008f8:	01401684 	movi	r5,90
  8008fc:	080065c0 	call	80065c <dm9000a_iow>
                                   Flow Control Threshold setting
                                   High/ Low Water Overflow 5KB/ 10KB */
  dm9000a_iow(0x0A, RTFCR_set); /* RTFCR REG.0AH (if necessary)
  800900:	01000284 	movi	r4,10
  800904:	01400a44 	movi	r5,41
  800908:	080065c0 	call	80065c <dm9000a_iow>
                                   RX/TX Flow Control Register enable TXPEN, BKPM
                                   (TX_Half), FLCE (RX) */
  dm9000a_iow(0x0F, 0x00);      /* Clear the all Event */
  80090c:	010003c4 	movi	r4,15
  800910:	000b883a 	mov	r5,zero
  800914:	080065c0 	call	80065c <dm9000a_iow>
  // dm9000a_iow(0x2D, 0x80);      /* Switch LED to mode 1 */

  /* set other registers depending on applications */
  dm9000a_iow(ETXCSR, ETXCSR_set); /* Early Transmit 75% */
  800918:	01000c04 	movi	r4,48
  80091c:	014020c4 	movi	r5,131
  800920:	080065c0 	call	80065c <dm9000a_iow>

  /* enable interrupts to activate DM9000 ~on */
  dm9000a_iow(IMR, INTR_set);   /* IMR REG. FFH PAR=1 only,
  800924:	01003fc4 	movi	r4,255
  800928:	01402044 	movi	r5,129
  80092c:	080065c0 	call	80065c <dm9000a_iow>
			                             or + PTM=1& PRM=1 enable RxTx interrupts */

  /* enable RX (Broadcast/ ALL_MULTICAST) ~go */
  dm9000a_iow(RCR, RCR_set | RX_ENABLE | PASS_MULTICAST);
  800930:	01000144 	movi	r4,5
  800934:	01400e44 	movi	r5,57
  800938:	080065c0 	call	80065c <dm9000a_iow>
  /* RCR REG. 05 RXEN Bit [0] = 1 to enable the RX machine/ filter */

  /* RETURN "DEVICE_SUCCESS" back to upper layer */
  return  (dm9000a_ior(0x2D)==0x80) ? DMFE_SUCCESS : DMFE_FAIL;
  80093c:	01000b44 	movi	r4,45
  800940:	08006b00 	call	8006b0 <dm9000a_ior>
  800944:	10802018 	cmpnei	r2,r2,128
}
  800948:	e037883a 	mov	sp,fp
  80094c:	dfc00117 	ldw	ra,4(sp)
  800950:	df000017 	ldw	fp,0(sp)
  800954:	dec00204 	addi	sp,sp,8
  800958:	f800283a 	ret

0080095c <TransmitPacket>:

unsigned int TransmitPacket(unsigned char *data_ptr, unsigned int tx_len)
{
  80095c:	defffb04 	addi	sp,sp,-20
  800960:	dfc00415 	stw	ra,16(sp)
  800964:	df000315 	stw	fp,12(sp)
  800968:	df000304 	addi	fp,sp,12
  80096c:	e13ffe15 	stw	r4,-8(fp)
  800970:	e17fff15 	stw	r5,-4(fp)
  unsigned int i;
  
  /* mask NIC interrupts IMR: PAR only */
  dm9000a_iow(IMR, PAR_set);
  800974:	01003fc4 	movi	r4,255
  800978:	01402004 	movi	r5,128
  80097c:	080065c0 	call	80065c <dm9000a_iow>

  /* issue TX packet's length into TXPLH REG. FDH & TXPLL REG. FCH */
  dm9000a_iow(0xFD, (tx_len >> 8) & 0xFF);  /* TXPLH High_byte length */
  800980:	e0bfff17 	ldw	r2,-4(fp)
  800984:	1004d23a 	srli	r2,r2,8
  800988:	11403fcc 	andi	r5,r2,255
  80098c:	01003f44 	movi	r4,253
  800990:	080065c0 	call	80065c <dm9000a_iow>
  dm9000a_iow(0xFC, tx_len & 0xFF);         /* TXPLL Low_byte  length */
  800994:	e0bfff17 	ldw	r2,-4(fp)
  800998:	11403fcc 	andi	r5,r2,255
  80099c:	01003f04 	movi	r4,252
  8009a0:	080065c0 	call	80065c <dm9000a_iow>

  /* wirte transmit data to chip SRAM */
  IOWR(DM9000A_INST_BASE, IO_addr, MWCMD);  /* set MWCMD REG. F8H
  8009a4:	00c06474 	movhi	r3,401
  8009a8:	18e41004 	addi	r3,r3,-28608
  8009ac:	00803e04 	movi	r2,248
  8009b0:	18800035 	stwio	r2,0(r3)
					  TX I/O port ready */
  for (i = 0; i < tx_len; i += 2) {
  8009b4:	e03ffd15 	stw	zero,-12(fp)
  8009b8:	00001506 	br	800a10 <TransmitPacket+0xb4>
    usleep(STD_DELAY);
  8009bc:	01000044 	movi	r4,1
  8009c0:	08169ac0 	call	8169ac <usleep>
    IOWR(DM9000A_INST_BASE, IO_data, (data_ptr[i+1]<<8)|data_ptr[i] );
  8009c4:	e0fffd17 	ldw	r3,-12(fp)
  8009c8:	e0bffe17 	ldw	r2,-8(fp)
  8009cc:	1885883a 	add	r2,r3,r2
  8009d0:	10800044 	addi	r2,r2,1
  8009d4:	10800003 	ldbu	r2,0(r2)
  8009d8:	10803fcc 	andi	r2,r2,255
  8009dc:	1008923a 	slli	r4,r2,8
  8009e0:	e0fffd17 	ldw	r3,-12(fp)
  8009e4:	e0bffe17 	ldw	r2,-8(fp)
  8009e8:	1885883a 	add	r2,r3,r2
  8009ec:	10800003 	ldbu	r2,0(r2)
  8009f0:	10803fcc 	andi	r2,r2,255
  8009f4:	2086b03a 	or	r3,r4,r2
  8009f8:	00806474 	movhi	r2,401
  8009fc:	10a41104 	addi	r2,r2,-28604
  800a00:	10c00035 	stwio	r3,0(r2)
  dm9000a_iow(0xFC, tx_len & 0xFF);         /* TXPLL Low_byte  length */

  /* wirte transmit data to chip SRAM */
  IOWR(DM9000A_INST_BASE, IO_addr, MWCMD);  /* set MWCMD REG. F8H
					  TX I/O port ready */
  for (i = 0; i < tx_len; i += 2) {
  800a04:	e0bffd17 	ldw	r2,-12(fp)
  800a08:	10800084 	addi	r2,r2,2
  800a0c:	e0bffd15 	stw	r2,-12(fp)
  800a10:	e0fffd17 	ldw	r3,-12(fp)
  800a14:	e0bfff17 	ldw	r2,-4(fp)
  800a18:	18bfe836 	bltu	r3,r2,8009bc <TransmitPacket+0x60>
    usleep(STD_DELAY);
    IOWR(DM9000A_INST_BASE, IO_data, (data_ptr[i+1]<<8)|data_ptr[i] );
  }

  /* issue TX polling command activated */
  dm9000a_iow(TCR , TCR_set | TX_REQUEST);  /* TXCR Bit [0] TXREQ auto clear
  800a1c:	01000084 	movi	r4,2
  800a20:	01400044 	movi	r5,1
  800a24:	080065c0 	call	80065c <dm9000a_iow>
				       after TX completed */

  /* wait for transmit complete */
  while(!(dm9000a_ior(NSR)&0x0C)) {
  800a28:	00000206 	br	800a34 <TransmitPacket+0xd8>
    usleep(STD_DELAY);
  800a2c:	01000044 	movi	r4,1
  800a30:	08169ac0 	call	8169ac <usleep>
  /* issue TX polling command activated */
  dm9000a_iow(TCR , TCR_set | TX_REQUEST);  /* TXCR Bit [0] TXREQ auto clear
				       after TX completed */

  /* wait for transmit complete */
  while(!(dm9000a_ior(NSR)&0x0C)) {
  800a34:	01000044 	movi	r4,1
  800a38:	08006b00 	call	8006b0 <dm9000a_ior>
  800a3c:	1080030c 	andi	r2,r2,12
  800a40:	1005003a 	cmpeq	r2,r2,zero
  800a44:	103ff91e 	bne	r2,zero,800a2c <TransmitPacket+0xd0>
    usleep(STD_DELAY);
  }

  /* clear the NSR Register */
  dm9000a_iow(NSR,0x00);
  800a48:	01000044 	movi	r4,1
  800a4c:	000b883a 	mov	r5,zero
  800a50:	080065c0 	call	80065c <dm9000a_iow>

  /* re-enable NIC interrupts */
  dm9000a_iow(IMR, INTR_set);
  800a54:	01003fc4 	movi	r4,255
  800a58:	01402044 	movi	r5,129
  800a5c:	080065c0 	call	80065c <dm9000a_iow>

  /* RETURN "TX_SUCCESS" to upper layer */
  return  DMFE_SUCCESS;
  800a60:	0005883a 	mov	r2,zero
}
  800a64:	e037883a 	mov	sp,fp
  800a68:	dfc00117 	ldw	ra,4(sp)
  800a6c:	df000017 	ldw	fp,0(sp)
  800a70:	dec00204 	addi	sp,sp,8
  800a74:	f800283a 	ret

00800a78 <prep_dm9000a>:
#ifndef MTU
#define MTU 1514
#endif

int prep_dm9000a(int index)
{  
  800a78:	defffb04 	addi	sp,sp,-20
  800a7c:	dfc00415 	stw	ra,16(sp)
  800a80:	df000315 	stw	fp,12(sp)
  800a84:	df000304 	addi	fp,sp,12
  800a88:	e13fff15 	stw	r4,-4(fp)
  DM9KA dm9ka = &g_dm9ka;
  800a8c:	008021b4 	movhi	r2,134
  800a90:	10b62904 	addi	r2,r2,-10076
  800a94:	e0bffe15 	stw	r2,-8(fp)
  NET ifp;

  ifp = nets[index];
  800a98:	e0bfff17 	ldw	r2,-4(fp)
  800a9c:	00c038f4 	movhi	r3,227
  800aa0:	18df8204 	addi	r3,r3,32264
  800aa4:	1085883a 	add	r2,r2,r2
  800aa8:	1085883a 	add	r2,r2,r2
  800aac:	10c5883a 	add	r2,r2,r3
  800ab0:	10800017 	ldw	r2,0(r2)
  800ab4:	e0bffd15 	stw	r2,-12(fp)
  ifp->n_mib->ifAdminStatus = 2;   /* status = down */
  800ab8:	e0bffd17 	ldw	r2,-12(fp)
  800abc:	10c02717 	ldw	r3,156(r2)
  800ac0:	00800084 	movi	r2,2
  800ac4:	18800615 	stw	r2,24(r3)
  ifp->n_mib->ifOperStatus = 2;    /* will be set up in init()  */
  800ac8:	e0bffd17 	ldw	r2,-12(fp)
  800acc:	10c02717 	ldw	r3,156(r2)
  800ad0:	00800084 	movi	r2,2
  800ad4:	18800715 	stw	r2,28(r3)
  ifp->n_mib->ifLastChange = cticks * (100/TPS);
  800ad8:	e0bffd17 	ldw	r2,-12(fp)
  800adc:	10802717 	ldw	r2,156(r2)
  800ae0:	10000815 	stw	zero,32(r2)
  ifp->n_mib->ifPhysAddress = (u_char*)dm9ka->mac_addr;
  800ae4:	e0bffd17 	ldw	r2,-12(fp)
  800ae8:	10c02717 	ldw	r3,156(r2)
  800aec:	e0bffe17 	ldw	r2,-8(fp)
  800af0:	10800204 	addi	r2,r2,8
  800af4:	18800515 	stw	r2,20(r3)
  ifp->n_mib->ifDescr = (u_char*)"DM9000A series ethernet";
  800af8:	e0bffd17 	ldw	r2,-12(fp)
  800afc:	10c02717 	ldw	r3,156(r2)
  800b00:	00802174 	movhi	r2,133
  800b04:	10ac0d04 	addi	r2,r2,-20428
  800b08:	18800115 	stw	r2,4(r3)
  ifp->n_lnh = ETHHDR_SIZE;        /* ethernet header size */
  800b0c:	e0fffd17 	ldw	r3,-12(fp)
  800b10:	00800404 	movi	r2,16
  800b14:	18800815 	stw	r2,32(r3)
  ifp->n_hal = 6;                  /* hardware address length */
  800b18:	e0fffd17 	ldw	r3,-12(fp)
  800b1c:	00800184 	movi	r2,6
  800b20:	18801115 	stw	r2,68(r3)
  ifp->n_mib->ifType = ETHERNET;   /* device type */
  800b24:	e0bffd17 	ldw	r2,-12(fp)
  800b28:	10c02717 	ldw	r3,156(r2)
  800b2c:	00800184 	movi	r2,6
  800b30:	18800215 	stw	r2,8(r3)
  ifp->n_mtu = MTU;                /* max frame size */
  800b34:	e0fffd17 	ldw	r3,-12(fp)
  800b38:	00817a84 	movi	r2,1514
  800b3c:	18800915 	stw	r2,36(r3)
  
  /* install our hardware driver routines */
  ifp->n_init   = dm9ka_init;
  800b40:	e0fffd17 	ldw	r3,-12(fp)
  800b44:	00802034 	movhi	r2,128
  800b48:	10843304 	addi	r2,r2,4300
  800b4c:	18800215 	stw	r2,8(r3)
  ifp->pkt_send = dm9ka_pkt_send;
  800b50:	e0fffd17 	ldw	r3,-12(fp)
  800b54:	00802034 	movhi	r2,128
  800b58:	1084cc04 	addi	r2,r2,4912
  800b5c:	18800415 	stw	r2,16(r3)
  ifp->n_close  = dm9ka_close;
  800b60:	e0fffd17 	ldw	r3,-12(fp)
  800b64:	00802034 	movhi	r2,128
  800b68:	10847104 	addi	r2,r2,4548
  800b6c:	18800515 	stw	r2,20(r3)
  ifp->n_stats  = dm9ka_stats;
  800b70:	e0fffd17 	ldw	r3,-12(fp)
  800b74:	00802034 	movhi	r2,128
  800b78:	1084b504 	addi	r2,r2,4820
  800b7c:	18800715 	stw	r2,28(r3)

#ifdef IP_V6
  ifp->n_flags |= (NF_NBPROT | NF_IPV6);
#else
  ifp->n_flags |= NF_NBPROT;
  800b80:	e0bffd17 	ldw	r2,-12(fp)
  800b84:	10802a17 	ldw	r2,168(r2)
  800b88:	10c00214 	ori	r3,r2,8
  800b8c:	e0bffd17 	ldw	r2,-12(fp)
  800b90:	10c02a15 	stw	r3,168(r2)
#endif

  get_mac_addr(dm9ka->netp, dm9ka->mac_addr);
  800b94:	e0bffe17 	ldw	r2,-8(fp)
  800b98:	11000417 	ldw	r4,16(r2)
  800b9c:	e0bffe17 	ldw	r2,-8(fp)
  800ba0:	10800204 	addi	r2,r2,8
  800ba4:	100b883a 	mov	r5,r2
  800ba8:	08041840 	call	804184 <get_mac_addr>
    
  /* set cross-pointers between iface and smsc structs */
  dm9ka->netp    = ifp;
  800bac:	e0fffe17 	ldw	r3,-8(fp)
  800bb0:	e0bffd17 	ldw	r2,-12(fp)
  800bb4:	18800415 	stw	r2,16(r3)
  dm9ka->intnum  = DM9000A_INST_IRQ;
  800bb8:	e0fffe17 	ldw	r3,-8(fp)
  800bbc:	00800084 	movi	r2,2
  800bc0:	18800015 	stw	r2,0(r3)
  dm9ka->regbase = DM9000A_INST_BASE;
  800bc4:	e0fffe17 	ldw	r3,-8(fp)
  800bc8:	00806474 	movhi	r2,401
  800bcc:	10a41004 	addi	r2,r2,-28608
  800bd0:	18800115 	stw	r2,4(r3)
  dm9ka->sending = 0;
  800bd4:	e0bffe17 	ldw	r2,-8(fp)
  800bd8:	10000a15 	stw	zero,40(r2)
  dm9ka->rx_ints = 0;
  800bdc:	e0bffe17 	ldw	r2,-8(fp)
  800be0:	10000f15 	stw	zero,60(r2)
  dm9ka->tx_ints = 0;
  800be4:	e0bffe17 	ldw	r2,-8(fp)
  800be8:	10001015 	stw	zero,64(r2)
  dm9ka->rcv_len = 0;
  800bec:	e0bffe17 	ldw	r2,-8(fp)
  800bf0:	10000e15 	stw	zero,56(r2)
  dm9ka->snd_len = 0;
  800bf4:	e0bffe17 	ldw	r2,-8(fp)
  800bf8:	10000c15 	stw	zero,48(r2)
  dm9ka->tosend.q_len = 0;
  800bfc:	e0bffe17 	ldw	r2,-8(fp)
  800c00:	10000715 	stw	zero,28(r2)
  dm9ka->tosend.q_max = 0;
  800c04:	e0bffe17 	ldw	r2,-8(fp)
  800c08:	10000815 	stw	zero,32(r2)
  
  ifp->n_local = (void*)dm9ka;
  800c0c:	e0fffd17 	ldw	r3,-12(fp)
  800c10:	e0bffe17 	ldw	r2,-8(fp)
  800c14:	18802815 	stw	r2,160(r3)

  return ++index;
  800c18:	e0bfff17 	ldw	r2,-4(fp)
  800c1c:	10800044 	addi	r2,r2,1
  800c20:	e0bfff15 	stw	r2,-4(fp)
  800c24:	e0bfff17 	ldw	r2,-4(fp)
}
  800c28:	e037883a 	mov	sp,fp
  800c2c:	dfc00117 	ldw	ra,4(sp)
  800c30:	df000017 	ldw	fp,0(sp)
  800c34:	dec00204 	addi	sp,sp,8
  800c38:	f800283a 	ret

00800c3c <dm9000a_init>:

/* HAL init ...
 * just init dev structs and let the stack know we are here
 */
error_t dm9000a_init(alt_iniche_dev *p_dev)
{
  800c3c:	defffd04 	addi	sp,sp,-12
  800c40:	dfc00215 	stw	ra,8(sp)
  800c44:	df000115 	stw	fp,4(sp)
  800c48:	df000104 	addi	fp,sp,4
  800c4c:	e13fff15 	stw	r4,-4(fp)
  prep_dm9000a(p_dev->if_num);
  800c50:	e0bfff17 	ldw	r2,-4(fp)
  800c54:	11000517 	ldw	r4,20(r2)
  800c58:	0800a780 	call	800a78 <prep_dm9000a>
  return 0;  
  800c5c:	0005883a 	mov	r2,zero
}
  800c60:	e037883a 	mov	sp,fp
  800c64:	dfc00117 	ldw	ra,4(sp)
  800c68:	df000017 	ldw	fp,0(sp)
  800c6c:	dec00204 	addi	sp,sp,8
  800c70:	f800283a 	ret

00800c74 <dm9000a_rxReady>:

static unsigned char dm9000a_rxReady(DM9KA dm9ka)
{
  800c74:	defffc04 	addi	sp,sp,-16
  800c78:	dfc00315 	stw	ra,12(sp)
  800c7c:	df000215 	stw	fp,8(sp)
  800c80:	df000204 	addi	fp,sp,8
  800c84:	e13fff15 	stw	r4,-4(fp)
  unsigned char rv = 0;
  800c88:	e03ffe05 	stb	zero,-8(fp)
  /* dummy read a byte from MRCMDX REG. F0H */
  rv = dm9000a_ior(MRCMDX);
  800c8c:	01003c04 	movi	r4,240
  800c90:	08006b00 	call	8006b0 <dm9000a_ior>
  800c94:	e0bffe05 	stb	r2,-8(fp)
  /* got most updated byte: rx_READY */
  rv = IORD(dm9ka->regbase, IO_data) & 0x03;  
  800c98:	e0bfff17 	ldw	r2,-4(fp)
  800c9c:	10800117 	ldw	r2,4(r2)
  800ca0:	10800104 	addi	r2,r2,4
  800ca4:	10800037 	ldwio	r2,0(r2)
  800ca8:	108000cc 	andi	r2,r2,3
  800cac:	e0bffe05 	stb	r2,-8(fp)
  return rv;
  800cb0:	e0bffe03 	ldbu	r2,-8(fp)
}
  800cb4:	e037883a 	mov	sp,fp
  800cb8:	dfc00117 	ldw	ra,4(sp)
  800cbc:	df000017 	ldw	fp,0(sp)
  800cc0:	dec00204 	addi	sp,sp,8
  800cc4:	f800283a 	ret

00800cc8 <dm9000a_isr>:

static void dm9000a_isr(int iface)
{
  800cc8:	defff404 	addi	sp,sp,-48
  800ccc:	dfc00b15 	stw	ra,44(sp)
  800cd0:	df000a15 	stw	fp,40(sp)
  800cd4:	df000a04 	addi	fp,sp,40
  800cd8:	e13fff15 	stw	r4,-4(fp)
  unsigned char rx_rdy, istatus;
  unsigned int  tmp, rx_sts, i, rx_len;
  struct ethhdr * eth;
  PACKET pkt;
  DM9KA dm9ka = (DM9KA)nets[iface]->n_local;
  800cdc:	e0bfff17 	ldw	r2,-4(fp)
  800ce0:	00c038f4 	movhi	r3,227
  800ce4:	18df8204 	addi	r3,r3,32264
  800ce8:	1085883a 	add	r2,r2,r2
  800cec:	1085883a 	add	r2,r2,r2
  800cf0:	10c5883a 	add	r2,r2,r3
  800cf4:	10800017 	ldw	r2,0(r2)
  800cf8:	10802817 	ldw	r2,160(r2)
  800cfc:	e0bff715 	stw	r2,-36(fp)
  
  /* mask NIC interrupts IMR: PAR only */
  dm9000a_iow(IMR, PAR_set);
  800d00:	01003fc4 	movi	r4,255
  800d04:	01402004 	movi	r5,128
  800d08:	080065c0 	call	80065c <dm9000a_iow>
  istatus = dm9000a_ior(ISR);
  800d0c:	01003f84 	movi	r4,254
  800d10:	08006b00 	call	8006b0 <dm9000a_ior>
  800d14:	e0bffe05 	stb	r2,-8(fp)

  rx_rdy = dm9000a_rxReady(dm9ka);  
  800d18:	e13ff717 	ldw	r4,-36(fp)
  800d1c:	0800c740 	call	800c74 <dm9000a_rxReady>
  800d20:	e0bffe45 	stb	r2,-7(fp)
  usleep(STD_DELAY);
  800d24:	01000044 	movi	r4,1
  800d28:	08169ac0 	call	8169ac <usleep>
  
  while(rx_rdy == DM9000_PKT_READY)
  800d2c:	00009406 	br	800f80 <dm9000a_isr+0x2b8>
  {
    /* get RX Status & Length from RX SRAM */
    /* set MRCMD REG. F2H RX I/O port ready */    
    IOWR(dm9ka->regbase, IO_addr, MRCMD); 
  800d30:	e0bff717 	ldw	r2,-36(fp)
  800d34:	10800117 	ldw	r2,4(r2)
  800d38:	1007883a 	mov	r3,r2
  800d3c:	00803c84 	movi	r2,242
  800d40:	18800035 	stwio	r2,0(r3)
    usleep(STD_DELAY);
  800d44:	01000044 	movi	r4,1
  800d48:	08169ac0 	call	8169ac <usleep>
    rx_sts = IORD(dm9ka->regbase,IO_data);
  800d4c:	e0bff717 	ldw	r2,-36(fp)
  800d50:	10800117 	ldw	r2,4(r2)
  800d54:	10800104 	addi	r2,r2,4
  800d58:	10800037 	ldwio	r2,0(r2)
  800d5c:	e0bffc15 	stw	r2,-16(fp)
    usleep(STD_DELAY);
  800d60:	01000044 	movi	r4,1
  800d64:	08169ac0 	call	8169ac <usleep>
    rx_len = IORD(dm9ka->regbase,IO_data);
  800d68:	e0bff717 	ldw	r2,-36(fp)
  800d6c:	10800117 	ldw	r2,4(r2)
  800d70:	10800104 	addi	r2,r2,4
  800d74:	10800037 	ldwio	r2,0(r2)
  800d78:	e0bffa15 	stw	r2,-24(fp)
    
    /* Check this packet_status: GOOD or BAD? */
    if( !(rx_sts & 0xBF00) && (rx_len < MAX_PACKET_SIZE) )
  800d7c:	e0bffc17 	ldw	r2,-16(fp)
  800d80:	10afc00c 	andi	r2,r2,48896
  800d84:	1004c03a 	cmpne	r2,r2,zero
  800d88:	1000661e 	bne	r2,zero,800f24 <dm9000a_isr+0x25c>
  800d8c:	e0bffa17 	ldw	r2,-24(fp)
  800d90:	10817ca8 	cmpgeui	r2,r2,1522
  800d94:	1000631e 	bne	r2,zero,800f24 <dm9000a_isr+0x25c>
    {
      if ((pkt = pk_alloc(rx_len + ETHHDR_BIAS)) == NULL)   
  800d98:	e0bffa17 	ldw	r2,-24(fp)
  800d9c:	11000084 	addi	r4,r2,2
  800da0:	0829bf80 	call	829bf8 <pk_alloc>
  800da4:	e0bff815 	stw	r2,-32(fp)
  800da8:	e0bff817 	ldw	r2,-32(fp)
  800dac:	1004c03a 	cmpne	r2,r2,zero
  800db0:	1000161e 	bne	r2,zero,800e0c <dm9000a_isr+0x144>
      { /* couldn't get a free buffer for rx */
        dm9ka->netp->n_mib->ifInDiscards++;
  800db4:	e0bff717 	ldw	r2,-36(fp)
  800db8:	10800417 	ldw	r2,16(r2)
  800dbc:	10c02717 	ldw	r3,156(r2)
  800dc0:	18800c17 	ldw	r2,48(r3)
  800dc4:	10800044 	addi	r2,r2,1
  800dc8:	18800c15 	stw	r2,48(r3)
        /* treat packet as bad, dump it from RX SRAM */
        for (i = 0; i < rx_len; i += 2) {
  800dcc:	e03ffb15 	stw	zero,-20(fp)
  800dd0:	00000a06 	br	800dfc <dm9000a_isr+0x134>
          usleep(STD_DELAY);
  800dd4:	01000044 	movi	r4,1
  800dd8:	08169ac0 	call	8169ac <usleep>
          tmp = IORD(dm9ka->regbase, IO_data);
  800ddc:	e0bff717 	ldw	r2,-36(fp)
  800de0:	10800117 	ldw	r2,4(r2)
  800de4:	10800104 	addi	r2,r2,4
  800de8:	10800037 	ldwio	r2,0(r2)
  800dec:	e0bffd15 	stw	r2,-12(fp)
    {
      if ((pkt = pk_alloc(rx_len + ETHHDR_BIAS)) == NULL)   
      { /* couldn't get a free buffer for rx */
        dm9ka->netp->n_mib->ifInDiscards++;
        /* treat packet as bad, dump it from RX SRAM */
        for (i = 0; i < rx_len; i += 2) {
  800df0:	e0bffb17 	ldw	r2,-20(fp)
  800df4:	10800084 	addi	r2,r2,2
  800df8:	e0bffb15 	stw	r2,-20(fp)
  800dfc:	e0fffb17 	ldw	r3,-20(fp)
  800e00:	e0bffa17 	ldw	r2,-24(fp)
  800e04:	18bff336 	bltu	r3,r2,800dd4 <dm9000a_isr+0x10c>
  800e08:	00005606 	br	800f64 <dm9000a_isr+0x29c>
          tmp = IORD(dm9ka->regbase, IO_data);
        }
      }
      else
      { /* packet allocation succeeded */
        unsigned char* data_ptr = pkt->nb_buff + ETHHDR_BIAS;
  800e0c:	e0bff817 	ldw	r2,-32(fp)
  800e10:	10800117 	ldw	r2,4(r2)
  800e14:	10800084 	addi	r2,r2,2
  800e18:	e0bff615 	stw	r2,-40(fp)
        /* read 1 received packet from RX SRAM into RX packet buffer */
        for (i = 0; i < rx_len; i += 2) {
  800e1c:	e03ffb15 	stw	zero,-20(fp)
  800e20:	00001906 	br	800e88 <dm9000a_isr+0x1c0>
          usleep(STD_DELAY);
  800e24:	01000044 	movi	r4,1
  800e28:	08169ac0 	call	8169ac <usleep>
          tmp = IORD(dm9ka->regbase, IO_data);
  800e2c:	e0bff717 	ldw	r2,-36(fp)
  800e30:	10800117 	ldw	r2,4(r2)
  800e34:	10800104 	addi	r2,r2,4
  800e38:	10800037 	ldwio	r2,0(r2)
  800e3c:	e0bffd15 	stw	r2,-12(fp)
          *data_ptr++ = tmp & 0xFF;
  800e40:	e0bffd17 	ldw	r2,-12(fp)
  800e44:	1007883a 	mov	r3,r2
  800e48:	e0bff617 	ldw	r2,-40(fp)
  800e4c:	10c00005 	stb	r3,0(r2)
  800e50:	e0bff617 	ldw	r2,-40(fp)
  800e54:	10800044 	addi	r2,r2,1
  800e58:	e0bff615 	stw	r2,-40(fp)
          *data_ptr++ = (tmp>>8) & 0xFF;
  800e5c:	e0bffd17 	ldw	r2,-12(fp)
  800e60:	1004d23a 	srli	r2,r2,8
  800e64:	1007883a 	mov	r3,r2
  800e68:	e0bff617 	ldw	r2,-40(fp)
  800e6c:	10c00005 	stb	r3,0(r2)
  800e70:	e0bff617 	ldw	r2,-40(fp)
  800e74:	10800044 	addi	r2,r2,1
  800e78:	e0bff615 	stw	r2,-40(fp)
      }
      else
      { /* packet allocation succeeded */
        unsigned char* data_ptr = pkt->nb_buff + ETHHDR_BIAS;
        /* read 1 received packet from RX SRAM into RX packet buffer */
        for (i = 0; i < rx_len; i += 2) {
  800e7c:	e0bffb17 	ldw	r2,-20(fp)
  800e80:	10800084 	addi	r2,r2,2
  800e84:	e0bffb15 	stw	r2,-20(fp)
  800e88:	e0fffb17 	ldw	r3,-20(fp)
  800e8c:	e0bffa17 	ldw	r2,-24(fp)
  800e90:	18bfe436 	bltu	r3,r2,800e24 <dm9000a_isr+0x15c>
          tmp = IORD(dm9ka->regbase, IO_data);
          *data_ptr++ = tmp & 0xFF;
          *data_ptr++ = (tmp>>8) & 0xFF;
        }

        pkt->nb_prot = pkt->nb_buff + ETHHDR_SIZE;
  800e94:	e0bff817 	ldw	r2,-32(fp)
  800e98:	10800117 	ldw	r2,4(r2)
  800e9c:	10c00404 	addi	r3,r2,16
  800ea0:	e0bff817 	ldw	r2,-32(fp)
  800ea4:	10c00315 	stw	r3,12(r2)
        pkt->nb_plen = rx_len - 14;
  800ea8:	e0bffa17 	ldw	r2,-24(fp)
  800eac:	10fffc84 	addi	r3,r2,-14
  800eb0:	e0bff817 	ldw	r2,-32(fp)
  800eb4:	10c00415 	stw	r3,16(r2)
        pkt->nb_tstamp = cticks;
  800eb8:	00802174 	movhi	r2,133
  800ebc:	10830c04 	addi	r2,r2,3120
  800ec0:	10800017 	ldw	r2,0(r2)
  800ec4:	1007883a 	mov	r3,r2
  800ec8:	e0bff817 	ldw	r2,-32(fp)
  800ecc:	10c00515 	stw	r3,20(r2)
        pkt->net = dm9ka->netp;
  800ed0:	e0bff717 	ldw	r2,-36(fp)
  800ed4:	10c00417 	ldw	r3,16(r2)
  800ed8:	e0bff817 	ldw	r2,-32(fp)
  800edc:	10c00615 	stw	r3,24(r2)

        /* set packet type for demux routine */
        eth = (struct ethhdr *)(pkt->nb_buff + ETHHDR_BIAS);
  800ee0:	e0bff817 	ldw	r2,-32(fp)
  800ee4:	10800117 	ldw	r2,4(r2)
  800ee8:	10800084 	addi	r2,r2,2
  800eec:	e0bff915 	stw	r2,-28(fp)
        pkt->type = eth->e_type;
  800ef0:	e0bff917 	ldw	r2,-28(fp)
  800ef4:	10c0030b 	ldhu	r3,12(r2)
  800ef8:	e0bff817 	ldw	r2,-32(fp)
  800efc:	10c0080d 	sth	r3,32(r2)

        /* shove packet into iniche stack's recv queue */
        //printf("rx: 0x%x l %d s %x:%x:%x\n", eth->e_type, rx_len,
        //       eth->e_src[0], eth->e_src[1], eth->e_src[2]);
        putq(&rcvdq, pkt);
  800f00:	010038f4 	movhi	r4,227
  800f04:	211ebd04 	addi	r4,r4,31476
  800f08:	e17ff817 	ldw	r5,-32(fp)
  800f0c:	082a1cc0 	call	82a1cc <putq>
        SignalPktDemux();
  800f10:	00802174 	movhi	r2,133
  800f14:	10830f04 	addi	r2,r2,3132
  800f18:	11000017 	ldw	r4,0(r2)
  800f1c:	081d9c80 	call	81d9c8 <OSSemPost>
    rx_sts = IORD(dm9ka->regbase,IO_data);
    usleep(STD_DELAY);
    rx_len = IORD(dm9ka->regbase,IO_data);
    
    /* Check this packet_status: GOOD or BAD? */
    if( !(rx_sts & 0xBF00) && (rx_len < MAX_PACKET_SIZE) )
  800f20:	00001006 	br	800f64 <dm9000a_isr+0x29c>
        putq(&rcvdq, pkt);
        SignalPktDemux();
      }      
    } else {
      /* this packet is bad, dump it from RX SRAM */
      for (i = 0; i < rx_len; i += 2) {
  800f24:	e03ffb15 	stw	zero,-20(fp)
  800f28:	00000a06 	br	800f54 <dm9000a_isr+0x28c>
        usleep(STD_DELAY);
  800f2c:	01000044 	movi	r4,1
  800f30:	08169ac0 	call	8169ac <usleep>
        tmp = IORD(dm9ka->regbase, IO_data);
  800f34:	e0bff717 	ldw	r2,-36(fp)
  800f38:	10800117 	ldw	r2,4(r2)
  800f3c:	10800104 	addi	r2,r2,4
  800f40:	10800037 	ldwio	r2,0(r2)
  800f44:	e0bffd15 	stw	r2,-12(fp)
        putq(&rcvdq, pkt);
        SignalPktDemux();
      }      
    } else {
      /* this packet is bad, dump it from RX SRAM */
      for (i = 0; i < rx_len; i += 2) {
  800f48:	e0bffb17 	ldw	r2,-20(fp)
  800f4c:	10800084 	addi	r2,r2,2
  800f50:	e0bffb15 	stw	r2,-20(fp)
  800f54:	e0fffb17 	ldw	r3,-20(fp)
  800f58:	e0bffa17 	ldw	r2,-24(fp)
  800f5c:	18bff336 	bltu	r3,r2,800f2c <dm9000a_isr+0x264>
        usleep(STD_DELAY);
        tmp = IORD(dm9ka->regbase, IO_data);
      }
      rx_len = 0;
  800f60:	e03ffa15 	stw	zero,-24(fp)
    }

    usleep(STD_DELAY);
  800f64:	01000044 	movi	r4,1
  800f68:	08169ac0 	call	8169ac <usleep>
    rx_rdy = dm9000a_rxReady(dm9ka);
  800f6c:	e13ff717 	ldw	r4,-36(fp)
  800f70:	0800c740 	call	800c74 <dm9000a_rxReady>
  800f74:	e0bffe45 	stb	r2,-7(fp)
    usleep(STD_DELAY);    
  800f78:	01000044 	movi	r4,1
  800f7c:	08169ac0 	call	8169ac <usleep>
  istatus = dm9000a_ior(ISR);

  rx_rdy = dm9000a_rxReady(dm9ka);  
  usleep(STD_DELAY);
  
  while(rx_rdy == DM9000_PKT_READY)
  800f80:	e0bffe43 	ldbu	r2,-7(fp)
  800f84:	10800060 	cmpeqi	r2,r2,1
  800f88:	103f691e 	bne	r2,zero,800d30 <dm9000a_isr+0x68>
    usleep(STD_DELAY);
    rx_rdy = dm9000a_rxReady(dm9ka);
    usleep(STD_DELAY);    
  }
  
  if (rx_rdy & 0x02)
  800f8c:	e0bffe43 	ldbu	r2,-7(fp)
  800f90:	1080008c 	andi	r2,r2,2
  800f94:	1005003a 	cmpeq	r2,r2,zero
  800f98:	1000311e 	bne	r2,zero,801060 <dm9000a_isr+0x398>
  { /* status check first byte: rx_READY Bit[1:0] must be "00"b or "01"b */
    /* software-RESET NIC */
    printf("whoa ... got a strange thing here ... \n");
  800f9c:	01002174 	movhi	r4,133
  800fa0:	212c1304 	addi	r4,r4,-20404
  800fa4:	08074080 	call	807408 <puts>
    autoReset++;
  800fa8:	d0a05b17 	ldw	r2,-32404(gp)
  800fac:	10800044 	addi	r2,r2,1
  800fb0:	d0a05b15 	stw	r2,-32404(gp)
    dm9000a_iow(NCR, 0x03);   /* NCR REG. 00 RST Bit [0] = 1 reset on,
  800fb4:	0009883a 	mov	r4,zero
  800fb8:	014000c4 	movi	r5,3
  800fbc:	080065c0 	call	80065c <dm9000a_iow>
                          			 and LBK Bit [2:1] = 01b MAC loopback on */
    usleep(20);               /* wait > 10us for a software-RESET ok */
  800fc0:	01000504 	movi	r4,20
  800fc4:	08169ac0 	call	8169ac <usleep>
    dm9000a_iow(NCR, 0x00);   /* normalize */
  800fc8:	0009883a 	mov	r4,zero
  800fcc:	000b883a 	mov	r5,zero
  800fd0:	080065c0 	call	80065c <dm9000a_iow>
    dm9000a_iow(NCR, 0x03);
  800fd4:	0009883a 	mov	r4,zero
  800fd8:	014000c4 	movi	r5,3
  800fdc:	080065c0 	call	80065c <dm9000a_iow>
    usleep(20);
  800fe0:	01000504 	movi	r4,20
  800fe4:	08169ac0 	call	8169ac <usleep>
    dm9000a_iow(NCR, 0x00);    
  800fe8:	0009883a 	mov	r4,zero
  800fec:	000b883a 	mov	r5,zero
  800ff0:	080065c0 	call	80065c <dm9000a_iow>
    /* program operating registers~ */
    dm9000a_iow(NCR, NCR_set); /* NCR REG. 00 enable the chip functions
  800ff4:	0009883a 	mov	r4,zero
  800ff8:	000b883a 	mov	r5,zero
  800ffc:	080065c0 	call	80065c <dm9000a_iow>
                   			 (and disable this MAC loopback mode back to normal) */
    dm9000a_iow(0x08, BPTR_set); /* BPTR  REG.08 (if necessary) RX Back Pressure
  801000:	01000204 	movi	r4,8
  801004:	01400fc4 	movi	r5,63
  801008:	080065c0 	call	80065c <dm9000a_iow>
                                    Threshold in Half duplex mode only:
                                    High Water 3KB, 600 us */
    dm9000a_iow(0x09, FCTR_set);  /* FCTR  REG.09  (if necessary)
  80100c:	01000244 	movi	r4,9
  801010:	01401684 	movi	r5,90
  801014:	080065c0 	call	80065c <dm9000a_iow>
                                   Flow Control Threshold setting High/Low Water
                                   Overflow 5KB/ 10KB */
    dm9000a_iow(0x0A, RTFCR_set); /* RTFCR REG.0AH (if necessary)
  801018:	01000284 	movi	r4,10
  80101c:	01400a44 	movi	r5,41
  801020:	080065c0 	call	80065c <dm9000a_iow>
                          			     RX/TX Flow Control Register
			                               enable TXPEN, BKPM (TX_Half), FLCE (RX) */
    dm9000a_iow(0x0F, 0x00);      /* Clear the all Event */
  801024:	010003c4 	movi	r4,15
  801028:	000b883a 	mov	r5,zero
  80102c:	080065c0 	call	80065c <dm9000a_iow>
    dm9000a_iow(0x2D, 0x80);      /* Switch LED to mode 1 */
  801030:	01000b44 	movi	r4,45
  801034:	01402004 	movi	r5,128
  801038:	080065c0 	call	80065c <dm9000a_iow>
    /* set other registers depending on applications */
    dm9000a_iow(ETXCSR, ETXCSR_set); /* Early Transmit 75% */
  80103c:	01000c04 	movi	r4,48
  801040:	014020c4 	movi	r5,131
  801044:	080065c0 	call	80065c <dm9000a_iow>
    /* enable interrupts to activate DM9000 ~on */
    dm9000a_iow(IMR, INTR_set);   /* IMR REG. FFH PAR=1 only,
  801048:	01003fc4 	movi	r4,255
  80104c:	01402044 	movi	r5,129
  801050:	080065c0 	call	80065c <dm9000a_iow>
			                               or + PTM=1& PRM=1 enable RxTx interrupts */
    /* enable RX (Broadcast/ ALL_MULTICAST) ~go */
    dm9000a_iow(RCR , RCR_set | RX_ENABLE | PASS_MULTICAST);
  801054:	01000144 	movi	r4,5
  801058:	01400e44 	movi	r5,57
  80105c:	080065c0 	call	80065c <dm9000a_iow>
    /* RCR REG. 05 RXEN Bit [0] = 1 to enable the RX machine/ filter */
  }
  
  /* Clear the DM9000A ISR: PRS, PTS, ROS, ROOS 4 bits, by RW/C1 */
  dm9000a_iow(ISR, 0x3F);  
  801060:	01003f84 	movi	r4,254
  801064:	01400fc4 	movi	r5,63
  801068:	080065c0 	call	80065c <dm9000a_iow>
  /* Re-enable DM9000A interrupts */
  dm9000a_iow(IMR, INTR_set);  
  80106c:	01003fc4 	movi	r4,255
  801070:	01402044 	movi	r5,129
  801074:	080065c0 	call	80065c <dm9000a_iow>
}
  801078:	e037883a 	mov	sp,fp
  80107c:	dfc00117 	ldw	ra,4(sp)
  801080:	df000017 	ldw	fp,0(sp)
  801084:	dec00204 	addi	sp,sp,8
  801088:	f800283a 	ret

0080108c <dm9Ka_isr_wrap>:


int netisrs = 0;

void dm9Ka_isr_wrap(void *context, u_long intnum)
{
  80108c:	defffc04 	addi	sp,sp,-16
  801090:	dfc00315 	stw	ra,12(sp)
  801094:	df000215 	stw	fp,8(sp)
  801098:	df000204 	addi	fp,sp,8
  80109c:	e13ffe15 	stw	r4,-8(fp)
  8010a0:	e17fff15 	stw	r5,-4(fp)
  netisrs++;
  8010a4:	d0a05c17 	ldw	r2,-32400(gp)
  8010a8:	10800044 	addi	r2,r2,1
  8010ac:	d0a05c15 	stw	r2,-32400(gp)
  dm9000a_isr((int)context);
  8010b0:	e13ffe17 	ldw	r4,-8(fp)
  8010b4:	0800cc80 	call	800cc8 <dm9000a_isr>
}
  8010b8:	e037883a 	mov	sp,fp
  8010bc:	dfc00117 	ldw	ra,4(sp)
  8010c0:	df000017 	ldw	fp,0(sp)
  8010c4:	dec00204 	addi	sp,sp,8
  8010c8:	f800283a 	ret

008010cc <dm9ka_init>:

int dm9ka_init(int iface)
{
  8010cc:	defffa04 	addi	sp,sp,-24
  8010d0:	dfc00515 	stw	ra,20(sp)
  8010d4:	df000415 	stw	fp,16(sp)
  8010d8:	df000404 	addi	fp,sp,16
  8010dc:	e13ffe15 	stw	r4,-8(fp)
  int err;
  DM9KA   dm9ka;
  printf("dm9ka_init\n");
  8010e0:	01002174 	movhi	r4,133
  8010e4:	212c1d04 	addi	r4,r4,-20364
  8010e8:	08074080 	call	807408 <puts>

   /* get pointer to device structure */
  dm9ka = (DM9KA)nets[iface]->n_local;
  8010ec:	e0bffe17 	ldw	r2,-8(fp)
  8010f0:	00c038f4 	movhi	r3,227
  8010f4:	18df8204 	addi	r3,r3,32264
  8010f8:	1085883a 	add	r2,r2,r2
  8010fc:	1085883a 	add	r2,r2,r2
  801100:	10c5883a 	add	r2,r2,r3
  801104:	10800017 	ldw	r2,0(r2)
  801108:	10802817 	ldw	r2,160(r2)
  80110c:	e0bffc15 	stw	r2,-16(fp)

  err = dm9000a_reset(dm9ka->mac_addr);
  801110:	e0bffc17 	ldw	r2,-16(fp)
  801114:	10800204 	addi	r2,r2,8
  801118:	1009883a 	mov	r4,r2
  80111c:	08007980 	call	800798 <dm9000a_reset>
  801120:	e0bffd15 	stw	r2,-12(fp)

  /* register the ISR with the ALTERA HAL interface */
  err = alt_irq_register (dm9ka->intnum, (void *)iface, dm9Ka_isr_wrap);
  801124:	e0bffc17 	ldw	r2,-16(fp)
  801128:	11000017 	ldw	r4,0(r2)
  80112c:	e17ffe17 	ldw	r5,-8(fp)
  801130:	01802034 	movhi	r6,128
  801134:	31842304 	addi	r6,r6,4236
  801138:	0815f2c0 	call	815f2c <alt_irq_register>
  80113c:	e0bffd15 	stw	r2,-12(fp)
  if (err)
  801140:	e0bffd17 	ldw	r2,-12(fp)
  801144:	1005003a 	cmpeq	r2,r2,zero
  801148:	1000031e 	bne	r2,zero,801158 <dm9ka_init+0x8c>
    return (err);
  80114c:	e0bffd17 	ldw	r2,-12(fp)
  801150:	e0bfff15 	stw	r2,-4(fp)
  801154:	00001506 	br	8011ac <dm9ka_init+0xe0>
  
  nets[iface]->n_mib->ifAdminStatus = 1;    /* status = UP */
  801158:	e0bffe17 	ldw	r2,-8(fp)
  80115c:	00c038f4 	movhi	r3,227
  801160:	18df8204 	addi	r3,r3,32264
  801164:	1085883a 	add	r2,r2,r2
  801168:	1085883a 	add	r2,r2,r2
  80116c:	10c5883a 	add	r2,r2,r3
  801170:	10800017 	ldw	r2,0(r2)
  801174:	10c02717 	ldw	r3,156(r2)
  801178:	00800044 	movi	r2,1
  80117c:	18800615 	stw	r2,24(r3)
  nets[iface]->n_mib->ifOperStatus  = 1;
  801180:	e0bffe17 	ldw	r2,-8(fp)
  801184:	00c038f4 	movhi	r3,227
  801188:	18df8204 	addi	r3,r3,32264
  80118c:	1085883a 	add	r2,r2,r2
  801190:	1085883a 	add	r2,r2,r2
  801194:	10c5883a 	add	r2,r2,r3
  801198:	10800017 	ldw	r2,0(r2)
  80119c:	10c02717 	ldw	r3,156(r2)
  8011a0:	00800044 	movi	r2,1
  8011a4:	18800715 	stw	r2,28(r3)
  
  return (0);
  8011a8:	e03fff15 	stw	zero,-4(fp)
  8011ac:	e0bfff17 	ldw	r2,-4(fp)
}
  8011b0:	e037883a 	mov	sp,fp
  8011b4:	dfc00117 	ldw	ra,4(sp)
  8011b8:	df000017 	ldw	fp,0(sp)
  8011bc:	dec00204 	addi	sp,sp,8
  8011c0:	f800283a 	ret

008011c4 <dm9ka_close>:


int dm9ka_close(int iface)
{
  8011c4:	defffc04 	addi	sp,sp,-16
  8011c8:	dfc00315 	stw	ra,12(sp)
  8011cc:	df000215 	stw	fp,8(sp)
  8011d0:	df000204 	addi	fp,sp,8
  8011d4:	e13fff15 	stw	r4,-4(fp)
  DM9KA   dm9ka;
  printf("dm9ka_close\n");
  8011d8:	01002174 	movhi	r4,133
  8011dc:	212c2004 	addi	r4,r4,-20352
  8011e0:	08074080 	call	807408 <puts>
  nets[iface]->n_mib->ifAdminStatus = 2;    /* status = down */
  8011e4:	e0bfff17 	ldw	r2,-4(fp)
  8011e8:	00c038f4 	movhi	r3,227
  8011ec:	18df8204 	addi	r3,r3,32264
  8011f0:	1085883a 	add	r2,r2,r2
  8011f4:	1085883a 	add	r2,r2,r2
  8011f8:	10c5883a 	add	r2,r2,r3
  8011fc:	10800017 	ldw	r2,0(r2)
  801200:	10c02717 	ldw	r3,156(r2)
  801204:	00800084 	movi	r2,2
  801208:	18800615 	stw	r2,24(r3)
  
   /* get pointer to device structure */
  dm9ka = (DM9KA)nets[iface]->n_local;
  80120c:	e0bfff17 	ldw	r2,-4(fp)
  801210:	00c038f4 	movhi	r3,227
  801214:	18df8204 	addi	r3,r3,32264
  801218:	1085883a 	add	r2,r2,r2
  80121c:	1085883a 	add	r2,r2,r2
  801220:	10c5883a 	add	r2,r2,r3
  801224:	10800017 	ldw	r2,0(r2)
  801228:	10802817 	ldw	r2,160(r2)
  80122c:	e0bffe15 	stw	r2,-8(fp)

    /* software-RESET NIC */
  dm9000a_iow(NCR, 0x03);   /* NCR REG. 00 RST Bit [0] = 1 reset on,
  801230:	0009883a 	mov	r4,zero
  801234:	014000c4 	movi	r5,3
  801238:	080065c0 	call	80065c <dm9000a_iow>
                          			 and LBK Bit [2:1] = 01b MAC loopback on */
  usleep(20);               /* wait > 10us for a software-RESET ok */
  80123c:	01000504 	movi	r4,20
  801240:	08169ac0 	call	8169ac <usleep>
  dm9000a_iow(NCR, 0x00);   /* normalize */
  801244:	0009883a 	mov	r4,zero
  801248:	000b883a 	mov	r5,zero
  80124c:	080065c0 	call	80065c <dm9000a_iow>
  dm9000a_iow(NCR, 0x03);
  801250:	0009883a 	mov	r4,zero
  801254:	014000c4 	movi	r5,3
  801258:	080065c0 	call	80065c <dm9000a_iow>
  usleep(20);
  80125c:	01000504 	movi	r4,20
  801260:	08169ac0 	call	8169ac <usleep>
  dm9000a_iow(NCR, 0x00);
  801264:	0009883a 	mov	r4,zero
  801268:	000b883a 	mov	r5,zero
  80126c:	080065c0 	call	80065c <dm9000a_iow>

  /* this should reset these registers anyway, but 'just in case' */
  dm9000a_iow(IMR,  0x00);  /* no interrupts */
  801270:	01003fc4 	movi	r4,255
  801274:	000b883a 	mov	r5,zero
  801278:	080065c0 	call	80065c <dm9000a_iow>
  dm9000a_iow(RCR , 0x00);  /* disable receive */
  80127c:	01000144 	movi	r4,5
  801280:	000b883a 	mov	r5,zero
  801284:	080065c0 	call	80065c <dm9000a_iow>
  dm9000a_iow(0x0F, 0x00);  /* Clear the all Event */
  801288:	010003c4 	movi	r4,15
  80128c:	000b883a 	mov	r5,zero
  801290:	080065c0 	call	80065c <dm9000a_iow>
  
  //s91_port_close(smsc);   /* release the ISR */
  //s91_reset(smsc);        /* reset the chip */

  nets[iface]->n_mib->ifOperStatus = 2;     /* status = down */
  801294:	e0bfff17 	ldw	r2,-4(fp)
  801298:	00c038f4 	movhi	r3,227
  80129c:	18df8204 	addi	r3,r3,32264
  8012a0:	1085883a 	add	r2,r2,r2
  8012a4:	1085883a 	add	r2,r2,r2
  8012a8:	10c5883a 	add	r2,r2,r3
  8012ac:	10800017 	ldw	r2,0(r2)
  8012b0:	10c02717 	ldw	r3,156(r2)
  8012b4:	00800084 	movi	r2,2
  8012b8:	18800715 	stw	r2,28(r3)
  return 0;  
  8012bc:	0005883a 	mov	r2,zero
}
  8012c0:	e037883a 	mov	sp,fp
  8012c4:	dfc00117 	ldw	ra,4(sp)
  8012c8:	df000017 	ldw	fp,0(sp)
  8012cc:	dec00204 	addi	sp,sp,8
  8012d0:	f800283a 	ret

008012d4 <dm9ka_stats>:

void dm9ka_stats(void * pio, int iface)
{
  8012d4:	defffb04 	addi	sp,sp,-20
  8012d8:	dfc00415 	stw	ra,16(sp)
  8012dc:	df000315 	stw	fp,12(sp)
  8012e0:	df000304 	addi	fp,sp,12
  8012e4:	e13ffe15 	stw	r4,-8(fp)
  8012e8:	e17fff15 	stw	r5,-4(fp)
  DM9KA dm9ka;
  printf("dm9ka_stats\n");
  8012ec:	01002174 	movhi	r4,133
  8012f0:	212c2304 	addi	r4,r4,-20340
  8012f4:	08074080 	call	807408 <puts>
  dm9ka = (DM9KA)(nets[iface]->n_local);
  8012f8:	e0bfff17 	ldw	r2,-4(fp)
  8012fc:	00c038f4 	movhi	r3,227
  801300:	18df8204 	addi	r3,r3,32264
  801304:	1085883a 	add	r2,r2,r2
  801308:	1085883a 	add	r2,r2,r2
  80130c:	10c5883a 	add	r2,r2,r3
  801310:	10800017 	ldw	r2,0(r2)
  801314:	10802817 	ldw	r2,160(r2)
  801318:	e0bffd15 	stw	r2,-12(fp)
    ns_printf(pio, "Sendq max:%d, current %d. IObase: 0x%lx ISR %d\n", 
            smsc->tosend.q_max, smsc->tosend.q_len, smsc->regbase, smsc->intnum);
  */
  
  return;
}
  80131c:	e037883a 	mov	sp,fp
  801320:	dfc00117 	ldw	ra,4(sp)
  801324:	df000017 	ldw	fp,0(sp)
  801328:	dec00204 	addi	sp,sp,8
  80132c:	f800283a 	ret

00801330 <dm9ka_pkt_send>:

extern void irq_Mask(void);
extern void irq_Unmask(void);

int dm9ka_pkt_send(PACKET pkt)
{
  801330:	defffa04 	addi	sp,sp,-24
  801334:	dfc00515 	stw	ra,20(sp)
  801338:	df000415 	stw	fp,16(sp)
  80133c:	df000404 	addi	fp,sp,16
  801340:	e13fff15 	stw	r4,-4(fp)
  unsigned int rv, slen;  
  DM9KA dm9ka = (DM9KA)pkt->net->n_local;
  801344:	e0bfff17 	ldw	r2,-4(fp)
  801348:	10800617 	ldw	r2,24(r2)
  80134c:	10802817 	ldw	r2,160(r2)
  801350:	e0bffc15 	stw	r2,-16(fp)
  slen = pkt->nb_plen - ETHHDR_BIAS;
  801354:	e0bfff17 	ldw	r2,-4(fp)
  801358:	10800417 	ldw	r2,16(r2)
  80135c:	10bfff84 	addi	r2,r2,-2
  801360:	e0bffd15 	stw	r2,-12(fp)
  if(slen < 64) slen = 64;
  801364:	e0bffd17 	ldw	r2,-12(fp)
  801368:	10801028 	cmpgeui	r2,r2,64
  80136c:	1000021e 	bne	r2,zero,801378 <dm9ka_pkt_send+0x48>
  801370:	00801004 	movi	r2,64
  801374:	e0bffd15 	stw	r2,-12(fp)

  //irq_Mask();
    
  rv = TransmitPacket(pkt->nb_prot + ETHHDR_BIAS, slen);
  801378:	e0bfff17 	ldw	r2,-4(fp)
  80137c:	10800317 	ldw	r2,12(r2)
  801380:	10800084 	addi	r2,r2,2
  801384:	1009883a 	mov	r4,r2
  801388:	e17ffd17 	ldw	r5,-12(fp)
  80138c:	080095c0 	call	80095c <TransmitPacket>
  801390:	e0bffe15 	stw	r2,-8(fp)
  if(rv == DMFE_SUCCESS) {
  801394:	e0bffe17 	ldw	r2,-8(fp)
  801398:	1004c03a 	cmpne	r2,r2,zero
  80139c:	1000201e 	bne	r2,zero,801420 <dm9ka_pkt_send+0xf0>
    /* update packet statistics */
    dm9ka->netp->n_mib->ifOutOctets += (u_long)pkt->nb_plen;
  8013a0:	e0bffc17 	ldw	r2,-16(fp)
  8013a4:	10800417 	ldw	r2,16(r2)
  8013a8:	11002717 	ldw	r4,156(r2)
  8013ac:	e0bffc17 	ldw	r2,-16(fp)
  8013b0:	10800417 	ldw	r2,16(r2)
  8013b4:	10802717 	ldw	r2,156(r2)
  8013b8:	10c00f17 	ldw	r3,60(r2)
  8013bc:	e0bfff17 	ldw	r2,-4(fp)
  8013c0:	10800417 	ldw	r2,16(r2)
  8013c4:	1885883a 	add	r2,r3,r2
  8013c8:	20800f15 	stw	r2,60(r4)
    if(*pkt->nb_prot & 0x80)
  8013cc:	e0bfff17 	ldw	r2,-4(fp)
  8013d0:	10800317 	ldw	r2,12(r2)
  8013d4:	10800003 	ldbu	r2,0(r2)
  8013d8:	10803fcc 	andi	r2,r2,255
  8013dc:	1080201c 	xori	r2,r2,128
  8013e0:	10bfe004 	addi	r2,r2,-128
  8013e4:	1004403a 	cmpge	r2,r2,zero
  8013e8:	1000071e 	bne	r2,zero,801408 <dm9ka_pkt_send+0xd8>
      dm9ka->netp->n_mib->ifOutNUcastPkts++;
  8013ec:	e0bffc17 	ldw	r2,-16(fp)
  8013f0:	10800417 	ldw	r2,16(r2)
  8013f4:	10c02717 	ldw	r3,156(r2)
  8013f8:	18801117 	ldw	r2,68(r3)
  8013fc:	10800044 	addi	r2,r2,1
  801400:	18801115 	stw	r2,68(r3)
  801404:	00000606 	br	801420 <dm9ka_pkt_send+0xf0>
    else
      dm9ka->netp->n_mib->ifOutUcastPkts++;
  801408:	e0bffc17 	ldw	r2,-16(fp)
  80140c:	10800417 	ldw	r2,16(r2)
  801410:	10c02717 	ldw	r3,156(r2)
  801414:	18801017 	ldw	r2,64(r3)
  801418:	10800044 	addi	r2,r2,1
  80141c:	18801015 	stw	r2,64(r3)
  }  
    
  //irq_Unmask();
  
  if(pkt) pk_free(pkt);
  801420:	e0bfff17 	ldw	r2,-4(fp)
  801424:	1005003a 	cmpeq	r2,r2,zero
  801428:	1000021e 	bne	r2,zero,801434 <dm9ka_pkt_send+0x104>
  80142c:	e13fff17 	ldw	r4,-4(fp)
  801430:	0829f8c0 	call	829f8c <pk_free>
  
  return (0);      /* alloc done interrupt will start xmit */
  801434:	0005883a 	mov	r2,zero
}
  801438:	e037883a 	mov	sp,fp
  80143c:	dfc00117 	ldw	ra,4(sp)
  801440:	df000017 	ldw	fp,0(sp)
  801444:	dec00204 	addi	sp,sp,8
  801448:	f800283a 	ret

0080144c <print>:
 * 
 * This routine is called to demonstrate doing something server-side when an
 * HTTP "POST" command is received.
 */
void print()
{
  80144c:	defffe04 	addi	sp,sp,-8
  801450:	dfc00115 	stw	ra,4(sp)
  801454:	df000015 	stw	fp,0(sp)
  801458:	d839883a 	mov	fp,sp
  printf("HTTP POST received.\n");
  80145c:	01002174 	movhi	r4,133
  801460:	212cb904 	addi	r4,r4,-19740
  801464:	08074080 	call	807408 <puts>
}
  801468:	e037883a 	mov	sp,fp
  80146c:	dfc00117 	ldw	ra,4(sp)
  801470:	df000017 	ldw	fp,0(sp)
  801474:	dec00204 	addi	sp,sp,8
  801478:	f800283a 	ret

0080147c <sweep>:
/* To sweep or not to sweep?  The sweep form will tell this function what to do.
 */


void sweep(http_conn* conn)
{
  80147c:	defffc04 	addi	sp,sp,-16
  801480:	dfc00315 	stw	ra,12(sp)
  801484:	df000215 	stw	fp,8(sp)
  801488:	df000204 	addi	fp,sp,8
  80148c:	e13fff15 	stw	r4,-4(fp)
  char *delimiter_token;

  /* Set board_funcs to be off, by default. */
  
  board_funcs.LED_ON = 0;
  801490:	00803874 	movhi	r2,225
  801494:	10999c04 	addi	r2,r2,26224
  801498:	10000005 	stb	zero,0(r2)
  board_funcs.SSD_ON = 0;
  80149c:	00803874 	movhi	r2,225
  8014a0:	10999c04 	addi	r2,r2,26224
  8014a4:	10000045 	stb	zero,1(r2)

  delimiter_token = strtok(conn->rx_rd_pos, "&");
  8014a8:	e0bfff17 	ldw	r2,-4(fp)
  8014ac:	11000d17 	ldw	r4,52(r2)
  8014b0:	01402174 	movhi	r5,133
  8014b4:	296cbe04 	addi	r5,r5,-19720
  8014b8:	0808d300 	call	808d30 <strtok>
  8014bc:	e0bffe15 	stw	r2,-8(fp)
  
  while(delimiter_token != NULL)
  8014c0:	00001a06 	br	80152c <sweep+0xb0>
  {
    if (strstr(delimiter_token, "LED"))
  8014c4:	e13ffe17 	ldw	r4,-8(fp)
  8014c8:	01402174 	movhi	r5,133
  8014cc:	296cbf04 	addi	r5,r5,-19716
  8014d0:	08086d00 	call	8086d0 <strstr>
  8014d4:	1005003a 	cmpeq	r2,r2,zero
  8014d8:	1000051e 	bne	r2,zero,8014f0 <sweep+0x74>
    {
      board_funcs.LED_ON = 1;
  8014dc:	00c03874 	movhi	r3,225
  8014e0:	18d99c04 	addi	r3,r3,26224
  8014e4:	00800044 	movi	r2,1
  8014e8:	18800005 	stb	r2,0(r3)
  8014ec:	00000a06 	br	801518 <sweep+0x9c>
    }
    else if (strstr(delimiter_token, "seven"))
  8014f0:	e13ffe17 	ldw	r4,-8(fp)
  8014f4:	01402174 	movhi	r5,133
  8014f8:	296cc004 	addi	r5,r5,-19712
  8014fc:	08086d00 	call	8086d0 <strstr>
  801500:	1005003a 	cmpeq	r2,r2,zero
  801504:	1000041e 	bne	r2,zero,801518 <sweep+0x9c>
    {
      board_funcs.SSD_ON = 1;
  801508:	00c03874 	movhi	r3,225
  80150c:	18d99c04 	addi	r3,r3,26224
  801510:	00800044 	movi	r2,1
  801514:	18800045 	stb	r2,1(r3)
    }

    delimiter_token = strtok( NULL, "&" );
  801518:	0009883a 	mov	r4,zero
  80151c:	01402174 	movhi	r5,133
  801520:	296cbe04 	addi	r5,r5,-19720
  801524:	0808d300 	call	808d30 <strtok>
  801528:	e0bffe15 	stw	r2,-8(fp)
  board_funcs.LED_ON = 0;
  board_funcs.SSD_ON = 0;

  delimiter_token = strtok(conn->rx_rd_pos, "&");
  
  while(delimiter_token != NULL)
  80152c:	e0bffe17 	ldw	r2,-8(fp)
  801530:	1004c03a 	cmpne	r2,r2,zero
  801534:	103fe31e 	bne	r2,zero,8014c4 <sweep+0x48>
    }

    delimiter_token = strtok( NULL, "&" );
  }
  
  OSMboxPost(board_control_mbox, (void*)&board_funcs);
  801538:	00802174 	movhi	r2,133
  80153c:	1082be04 	addi	r2,r2,2808
  801540:	11000017 	ldw	r4,0(r2)
  801544:	01403874 	movhi	r5,225
  801548:	29599c04 	addi	r5,r5,26224
  80154c:	081b2300 	call	81b230 <OSMboxPost>
 
}
  801550:	e037883a 	mov	sp,fp
  801554:	dfc00117 	ldw	ra,4(sp)
  801558:	df000017 	ldw	fp,0(sp)
  80155c:	dec00204 	addi	sp,sp,8
  801560:	f800283a 	ret

00801564 <http_cleanup_lcd_text>:

void http_cleanup_lcd_text()
{
  801564:	defffe04 	addi	sp,sp,-8
  801568:	df000115 	stw	fp,4(sp)
  80156c:	df000104 	addi	fp,sp,4

  /* Step through the board_funcs.LCD_TEXT array looking for chars to replace.
   * For now, just replace '+'s with space characters.
   */

  for (index = 0; index < 20; ++index)
  801570:	e03fff15 	stw	zero,-4(fp)
  801574:	00001506 	br	8015cc <http_cleanup_lcd_text+0x68>
  {
    if (board_funcs.LCD_TEXT[index] == '+')
  801578:	e0ffff17 	ldw	r3,-4(fp)
  80157c:	00803874 	movhi	r2,225
  801580:	10999c04 	addi	r2,r2,26224
  801584:	10c5883a 	add	r2,r2,r3
  801588:	10800084 	addi	r2,r2,2
  80158c:	10800003 	ldbu	r2,0(r2)
  801590:	10803fcc 	andi	r2,r2,255
  801594:	1080201c 	xori	r2,r2,128
  801598:	10bfe004 	addi	r2,r2,-128
  80159c:	10800ad8 	cmpnei	r2,r2,43
  8015a0:	1000071e 	bne	r2,zero,8015c0 <http_cleanup_lcd_text+0x5c>
    {
      board_funcs.LCD_TEXT[index] = ' ';
  8015a4:	e0ffff17 	ldw	r3,-4(fp)
  8015a8:	00803874 	movhi	r2,225
  8015ac:	10999c04 	addi	r2,r2,26224
  8015b0:	10c5883a 	add	r2,r2,r3
  8015b4:	10c00084 	addi	r3,r2,2
  8015b8:	00800804 	movi	r2,32
  8015bc:	18800005 	stb	r2,0(r3)

  /* Step through the board_funcs.LCD_TEXT array looking for chars to replace.
   * For now, just replace '+'s with space characters.
   */

  for (index = 0; index < 20; ++index)
  8015c0:	e0bfff17 	ldw	r2,-4(fp)
  8015c4:	10800044 	addi	r2,r2,1
  8015c8:	e0bfff15 	stw	r2,-4(fp)
  8015cc:	e0bfff17 	ldw	r2,-4(fp)
  8015d0:	10800510 	cmplti	r2,r2,20
  8015d4:	103fe81e 	bne	r2,zero,801578 <http_cleanup_lcd_text+0x14>
    if (board_funcs.LCD_TEXT[index] == '+')
    {
      board_funcs.LCD_TEXT[index] = ' ';
    }
  }
} 
  8015d8:	e037883a 	mov	sp,fp
  8015dc:	df000017 	ldw	fp,0(sp)
  8015e0:	dec00104 	addi	sp,sp,4
  8015e4:	f800283a 	ret

008015e8 <lcd_output>:

void lcd_output(http_conn* conn)
{
  8015e8:	defffb04 	addi	sp,sp,-20
  8015ec:	dfc00415 	stw	ra,16(sp)
  8015f0:	df000315 	stw	fp,12(sp)
  8015f4:	df000304 	addi	fp,sp,12
  8015f8:	e13fff15 	stw	r4,-4(fp)
  char* delimiter_token;
  char* temp_pos;

  delimiter_token = strtok(conn->rx_rd_pos, "&");
  8015fc:	e0bfff17 	ldw	r2,-4(fp)
  801600:	11000d17 	ldw	r4,52(r2)
  801604:	01402174 	movhi	r5,133
  801608:	296cbe04 	addi	r5,r5,-19720
  80160c:	0808d300 	call	808d30 <strtok>
  801610:	e0bffe15 	stw	r2,-8(fp)

  while( delimiter_token != NULL )
  801614:	00001706 	br	801674 <lcd_output+0x8c>
  {
    if (strstr(delimiter_token, "lcd_text"))
  801618:	e13ffe17 	ldw	r4,-8(fp)
  80161c:	01402174 	movhi	r5,133
  801620:	296cc204 	addi	r5,r5,-19704
  801624:	08086d00 	call	8086d0 <strstr>
  801628:	1005003a 	cmpeq	r2,r2,zero
  80162c:	10000c1e 	bne	r2,zero,801660 <lcd_output+0x78>
    {
      temp_pos = strstr(delimiter_token, "=");
  801630:	e13ffe17 	ldw	r4,-8(fp)
  801634:	01400f44 	movi	r5,61
  801638:	0807ae00 	call	807ae0 <strchr>
  80163c:	e0bffd15 	stw	r2,-12(fp)
      ++temp_pos;
  801640:	e0bffd17 	ldw	r2,-12(fp)
  801644:	10800044 	addi	r2,r2,1
  801648:	e0bffd15 	stw	r2,-12(fp)
      /* LCD_TEXT is limited to 20 characters...limiting string to that size. */
      strncpy( board_funcs.LCD_TEXT, temp_pos, 20 );
  80164c:	01003874 	movhi	r4,225
  801650:	21199c84 	addi	r4,r4,26226
  801654:	e17ffd17 	ldw	r5,-12(fp)
  801658:	01800504 	movi	r6,20
  80165c:	08084e00 	call	8084e0 <strncpy>
    }
    delimiter_token = strtok( NULL, "&" );
  801660:	0009883a 	mov	r4,zero
  801664:	01402174 	movhi	r5,133
  801668:	296cbe04 	addi	r5,r5,-19720
  80166c:	0808d300 	call	808d30 <strtok>
  801670:	e0bffe15 	stw	r2,-8(fp)
  char* delimiter_token;
  char* temp_pos;

  delimiter_token = strtok(conn->rx_rd_pos, "&");

  while( delimiter_token != NULL )
  801674:	e0bffe17 	ldw	r2,-8(fp)
  801678:	1004c03a 	cmpne	r2,r2,zero
  80167c:	103fe61e 	bne	r2,zero,801618 <lcd_output+0x30>
    delimiter_token = strtok( NULL, "&" );
  }

  /* Clean up the HTTP-formatted text string.  For now this just replaces '+'s with spaces. */

  http_cleanup_lcd_text();
  801680:	08015640 	call	801564 <http_cleanup_lcd_text>

  /* Post the updated LCD_TEXT to the board_control_mbox. */
  OSMboxPost(board_control_mbox, (void*)&board_funcs);
  801684:	00802174 	movhi	r2,133
  801688:	1082be04 	addi	r2,r2,2808
  80168c:	11000017 	ldw	r4,0(r2)
  801690:	01403874 	movhi	r5,225
  801694:	29599c04 	addi	r5,r5,26224
  801698:	081b2300 	call	81b230 <OSMboxPost>

}
  80169c:	e037883a 	mov	sp,fp
  8016a0:	dfc00117 	ldw	ra,4(sp)
  8016a4:	df000017 	ldw	fp,0(sp)
  8016a8:	dec00204 	addi	sp,sp,8
  8016ac:	f800283a 	ret

008016b0 <http_parse_multipart_header>:

int http_parse_multipart_header( http_conn* conn )
{
  8016b0:	defffa04 	addi	sp,sp,-24
  8016b4:	dfc00515 	stw	ra,20(sp)
  8016b8:	df000415 	stw	fp,16(sp)
  8016bc:	df000404 	addi	fp,sp,16
  8016c0:	e13ffe15 	stw	r4,-8(fp)
  /* 
   * For now, make the assumption that no multipart headers are split
   * across packets.  This is a reasonable assumption, but not a surety.
   *
   */
  while( (temp_pos = strstr( conn->rx_rd_pos, conn->boundary )) )
  8016c4:	00007e06 	br	8018c0 <http_parse_multipart_header+0x210>
  {
    if( strstr( conn->rx_rd_pos, "upload_image" ) )
  8016c8:	e0bffe17 	ldw	r2,-8(fp)
  8016cc:	11000d17 	ldw	r4,52(r2)
  8016d0:	01402174 	movhi	r5,133
  8016d4:	296cc504 	addi	r5,r5,-19692
  8016d8:	08086d00 	call	8086d0 <strstr>
  8016dc:	1005003a 	cmpeq	r2,r2,zero
  8016e0:	1000061e 	bne	r2,zero,8016fc <http_parse_multipart_header+0x4c>
    {
      /* Terminate the received data by going back 5
       * from temp_pos and setting it to NULL.*/
      *(temp_pos-5) = '\0';
  8016e4:	e0bffc17 	ldw	r2,-16(fp)
  8016e8:	10bffec4 	addi	r2,r2,-5
  8016ec:	10000005 	stb	zero,0(r2)
      conn->file_upload = 0;
  8016f0:	e0bffe17 	ldw	r2,-8(fp)
  8016f4:	10000a15 	stw	zero,40(r2)
      break;
  8016f8:	00007a06 	br	8018e4 <http_parse_multipart_header+0x234>
    }
    /* Find the end of the content disposition line. */
    conn->rx_rd_pos = strstr( conn->rx_rd_pos, "Content-Disposition" );
  8016fc:	e0bffe17 	ldw	r2,-8(fp)
  801700:	11000d17 	ldw	r4,52(r2)
  801704:	01402174 	movhi	r5,133
  801708:	296cc904 	addi	r5,r5,-19676
  80170c:	08086d00 	call	8086d0 <strstr>
  801710:	1007883a 	mov	r3,r2
  801714:	e0bffe17 	ldw	r2,-8(fp)
  801718:	10c00d15 	stw	r3,52(r2)
    if( conn->rx_rd_pos == 0 ) return(-1);
  80171c:	e0bffe17 	ldw	r2,-8(fp)
  801720:	10800d17 	ldw	r2,52(r2)
  801724:	1004c03a 	cmpne	r2,r2,zero
  801728:	1000031e 	bne	r2,zero,801738 <http_parse_multipart_header+0x88>
  80172c:	00bfffc4 	movi	r2,-1
  801730:	e0bfff15 	stw	r2,-4(fp)
  801734:	00006c06 	br	8018e8 <http_parse_multipart_header+0x238>
    cr_pos = strchr( conn->rx_rd_pos, '\r' );
  801738:	e0bffe17 	ldw	r2,-8(fp)
  80173c:	11000d17 	ldw	r4,52(r2)
  801740:	01400344 	movi	r5,13
  801744:	0807ae00 	call	807ae0 <strchr>
  801748:	e0bffd15 	stw	r2,-12(fp)
    if( cr_pos == 0 ) return(-1);
  80174c:	e0bffd17 	ldw	r2,-12(fp)
  801750:	1004c03a 	cmpne	r2,r2,zero
  801754:	1000031e 	bne	r2,zero,801764 <http_parse_multipart_header+0xb4>
  801758:	00bfffc4 	movi	r2,-1
  80175c:	e0bfff15 	stw	r2,-4(fp)
  801760:	00006106 	br	8018e8 <http_parse_multipart_header+0x238>
    /* Insert a NULL byte over the second quotation mark. */
    *(cr_pos - 1) = '\0';
  801764:	e0bffd17 	ldw	r2,-12(fp)
  801768:	10bfffc4 	addi	r2,r2,-1
  80176c:	10000005 	stb	zero,0(r2)
    /* Move rx_rd_pos to end of the line, just beyond the newly
     * inserted NULL.
     */
    /* Look for "=" delimiter. */
    temp_pos = strchr( conn->rx_rd_pos, '=' );
  801770:	e0bffe17 	ldw	r2,-8(fp)
  801774:	11000d17 	ldw	r4,52(r2)
  801778:	01400f44 	movi	r5,61
  80177c:	0807ae00 	call	807ae0 <strchr>
  801780:	e0bffc15 	stw	r2,-16(fp)
    if( temp_pos == 0 ) return(-1);
  801784:	e0bffc17 	ldw	r2,-16(fp)
  801788:	1004c03a 	cmpne	r2,r2,zero
  80178c:	1000031e 	bne	r2,zero,80179c <http_parse_multipart_header+0xec>
  801790:	00bfffc4 	movi	r2,-1
  801794:	e0bfff15 	stw	r2,-4(fp)
  801798:	00005306 	br	8018e8 <http_parse_multipart_header+0x238>
    /* If second "=" delimiter exists, then parse for conn->filename. */
    if( (temp_pos = strchr( (temp_pos+1), '=' )) )
  80179c:	e0bffc17 	ldw	r2,-16(fp)
  8017a0:	11000044 	addi	r4,r2,1
  8017a4:	01400f44 	movi	r5,61
  8017a8:	0807ae00 	call	807ae0 <strchr>
  8017ac:	e0bffc15 	stw	r2,-16(fp)
  8017b0:	e0bffc17 	ldw	r2,-16(fp)
  8017b4:	1005003a 	cmpeq	r2,r2,zero
  8017b8:	1000281e 	bne	r2,zero,80185c <http_parse_multipart_header+0x1ac>
    {
			if( strlen(temp_pos+2) > 256 )
  8017bc:	e0bffc17 	ldw	r2,-16(fp)
  8017c0:	11000084 	addi	r4,r2,2
  8017c4:	080837c0 	call	80837c <strlen>
  8017c8:	10804070 	cmpltui	r2,r2,257
  8017cc:	1000031e 	bne	r2,zero,8017dc <http_parse_multipart_header+0x12c>
			{
				return(-1);
  8017d0:	00bfffc4 	movi	r2,-1
  8017d4:	e0bfff15 	stw	r2,-4(fp)
  8017d8:	00004306 	br	8018e8 <http_parse_multipart_header+0x238>
			}
      strcpy( conn->filename, (temp_pos+2) );
  8017dc:	e0bffe17 	ldw	r2,-8(fp)
  8017e0:	11001304 	addi	r4,r2,76
  8017e4:	e0bffc17 	ldw	r2,-16(fp)
  8017e8:	11400084 	addi	r5,r2,2
  8017ec:	0807c7c0 	call	807c7c <strcpy>
      /* 
       * Place rx_rd_pos at the start of the next pertinent line. 
       * In this case, skip two lines ahead.
       */
      cr_pos = strchr( (cr_pos+1), '\r');
  8017f0:	e0bffd17 	ldw	r2,-12(fp)
  8017f4:	11000044 	addi	r4,r2,1
  8017f8:	01400344 	movi	r5,13
  8017fc:	0807ae00 	call	807ae0 <strchr>
  801800:	e0bffd15 	stw	r2,-12(fp)
      if( cr_pos == 0 ) return(-1);
  801804:	e0bffd17 	ldw	r2,-12(fp)
  801808:	1004c03a 	cmpne	r2,r2,zero
  80180c:	1000031e 	bne	r2,zero,80181c <http_parse_multipart_header+0x16c>
  801810:	00bfffc4 	movi	r2,-1
  801814:	e0bfff15 	stw	r2,-4(fp)
  801818:	00003306 	br	8018e8 <http_parse_multipart_header+0x238>
      cr_pos = strchr( (cr_pos+1), '\r');
  80181c:	e0bffd17 	ldw	r2,-12(fp)
  801820:	11000044 	addi	r4,r2,1
  801824:	01400344 	movi	r5,13
  801828:	0807ae00 	call	807ae0 <strchr>
  80182c:	e0bffd15 	stw	r2,-12(fp)
      if( cr_pos == 0 ) return(-1);
  801830:	e0bffd17 	ldw	r2,-12(fp)
  801834:	1004c03a 	cmpne	r2,r2,zero
  801838:	1000031e 	bne	r2,zero,801848 <http_parse_multipart_header+0x198>
  80183c:	00bfffc4 	movi	r2,-1
  801840:	e0bfff15 	stw	r2,-4(fp)
  801844:	00002806 	br	8018e8 <http_parse_multipart_header+0x238>
      conn->rx_rd_pos = cr_pos+2;
  801848:	e0bffd17 	ldw	r2,-12(fp)
  80184c:	10c00084 	addi	r3,r2,2
  801850:	e0bffe17 	ldw	r2,-8(fp)
  801854:	10c00d15 	stw	r3,52(r2)
  801858:	00001906 	br	8018c0 <http_parse_multipart_header+0x210>
      /* 
       * If no second delimiter, then skip ahead to start of 2nd. line.
       * That will be the start of the flash device name.
       *
       */
      temp_pos = strchr( (cr_pos+1), '\r' );
  80185c:	e0bffd17 	ldw	r2,-12(fp)
  801860:	11000044 	addi	r4,r2,1
  801864:	01400344 	movi	r5,13
  801868:	0807ae00 	call	807ae0 <strchr>
  80186c:	e0bffc15 	stw	r2,-16(fp)
      conn->rx_rd_pos = temp_pos+2;
  801870:	e0bffc17 	ldw	r2,-16(fp)
  801874:	10c00084 	addi	r3,r2,2
  801878:	e0bffe17 	ldw	r2,-8(fp)
  80187c:	10c00d15 	stw	r3,52(r2)
      cr_pos = strchr( conn->rx_rd_pos, '\r' );
  801880:	e0bffe17 	ldw	r2,-8(fp)
  801884:	11000d17 	ldw	r4,52(r2)
  801888:	01400344 	movi	r5,13
  80188c:	0807ae00 	call	807ae0 <strchr>
  801890:	e0bffd15 	stw	r2,-12(fp)
      *cr_pos = '\0';
  801894:	e0bffd17 	ldw	r2,-12(fp)
  801898:	10000005 	stb	zero,0(r2)
      /* Ok, now copy the flash_device string. */
      strcpy( conn->flash_device, conn->rx_rd_pos );
  80189c:	e0bffe17 	ldw	r2,-8(fp)
  8018a0:	11005304 	addi	r4,r2,332
  8018a4:	e0bffe17 	ldw	r2,-8(fp)
  8018a8:	11400d17 	ldw	r5,52(r2)
  8018ac:	0807c7c0 	call	807c7c <strcpy>
      /* Place rx_rd_pos at the start of the next line. */
      conn->rx_rd_pos = cr_pos+2;
  8018b0:	e0bffd17 	ldw	r2,-12(fp)
  8018b4:	10c00084 	addi	r3,r2,2
  8018b8:	e0bffe17 	ldw	r2,-8(fp)
  8018bc:	10c00d15 	stw	r3,52(r2)
  /* 
   * For now, make the assumption that no multipart headers are split
   * across packets.  This is a reasonable assumption, but not a surety.
   *
   */
  while( (temp_pos = strstr( conn->rx_rd_pos, conn->boundary )) )
  8018c0:	e0bffe17 	ldw	r2,-8(fp)
  8018c4:	11000d17 	ldw	r4,52(r2)
  8018c8:	e0bffe17 	ldw	r2,-8(fp)
  8018cc:	11406204 	addi	r5,r2,392
  8018d0:	08086d00 	call	8086d0 <strstr>
  8018d4:	e0bffc15 	stw	r2,-16(fp)
  8018d8:	e0bffc17 	ldw	r2,-16(fp)
  8018dc:	1004c03a 	cmpne	r2,r2,zero
  8018e0:	103f791e 	bne	r2,zero,8016c8 <http_parse_multipart_header+0x18>
      strcpy( conn->flash_device, conn->rx_rd_pos );
      /* Place rx_rd_pos at the start of the next line. */
      conn->rx_rd_pos = cr_pos+2;
    }
  }
  return(0);
  8018e4:	e03fff15 	stw	zero,-4(fp)
  8018e8:	e0bfff17 	ldw	r2,-4(fp)
}
  8018ec:	e037883a 	mov	sp,fp
  8018f0:	dfc00117 	ldw	ra,4(sp)
  8018f4:	df000017 	ldw	fp,0(sp)
  8018f8:	dec00204 	addi	sp,sp,8
  8018fc:	f800283a 	ret

00801900 <file_upload>:

void file_upload(http_conn* conn)
{
  801900:	defff904 	addi	sp,sp,-28
  801904:	dfc00615 	stw	ra,24(sp)
  801908:	df000515 	stw	fp,20(sp)
  80190c:	df000504 	addi	fp,sp,20
  801910:	e13fff15 	stw	r4,-4(fp)
  int buf_len;
  int data_used;
  struct upload_buf_struct *upload_buffer = &upload_buf;
  801914:	008021b4 	movhi	r2,134
  801918:	10b63a04 	addi	r2,r2,-10008
  80191c:	e0bffc15 	stw	r2,-16(fp)
  struct flash_inf_struct *flash_info = &flash_inf;
  801920:	008038b4 	movhi	r2,226
  801924:	1089a704 	addi	r2,r2,9884
  801928:	e0bffb15 	stw	r2,-20(fp)
  /* Look for boundary, parse multipart form "mini" header information if found. */
  if( strstr( conn->rx_rd_pos, conn->boundary ) )
  80192c:	e0bfff17 	ldw	r2,-4(fp)
  801930:	11000d17 	ldw	r4,52(r2)
  801934:	e0bfff17 	ldw	r2,-4(fp)
  801938:	11406204 	addi	r5,r2,392
  80193c:	08086d00 	call	8086d0 <strstr>
  801940:	1005003a 	cmpeq	r2,r2,zero
  801944:	10000a1e 	bne	r2,zero,801970 <file_upload+0x70>
  {
    if( http_parse_multipart_header( conn ) )
  801948:	e13fff17 	ldw	r4,-4(fp)
  80194c:	08016b00 	call	8016b0 <http_parse_multipart_header>
  801950:	1005003a 	cmpeq	r2,r2,zero
  801954:	1000061e 	bne	r2,zero,801970 <file_upload+0x70>
    {
      printf( "multipart-form:  header parse failure...resetting connection!" );
  801958:	01002174 	movhi	r4,133
  80195c:	212cce04 	addi	r4,r4,-19656
  801960:	08072f00 	call	8072f0 <printf>
      conn->state = RESET;
  801964:	e0ffff17 	ldw	r3,-4(fp)
  801968:	00800104 	movi	r2,4
  80196c:	18800015 	stw	r2,0(r3)
    }
  }
  /* Exception for IE.  It sometimes sends _really_ small initial packets! */
  if( strchr( conn->rx_rd_pos, ':' ) )
  801970:	e0bfff17 	ldw	r2,-4(fp)
  801974:	11000d17 	ldw	r4,52(r2)
  801978:	01400e84 	movi	r5,58
  80197c:	0807ae00 	call	807ae0 <strchr>
  801980:	1005003a 	cmpeq	r2,r2,zero
  801984:	1000031e 	bne	r2,zero,801994 <file_upload+0x94>
  {
    conn->state = READY;
  801988:	e0bfff17 	ldw	r2,-4(fp)
  80198c:	10000015 	stw	zero,0(r2)
    return;
  801990:	00006f06 	br	801b50 <file_upload+0x250>
  }
  /* Calculate the string size... */
  buf_len = strlen(conn->rx_rd_pos);
  801994:	e0bfff17 	ldw	r2,-4(fp)
  801998:	11000d17 	ldw	r4,52(r2)
  80199c:	080837c0 	call	80837c <strlen>
  8019a0:	e0bffe15 	stw	r2,-8(fp)
  conn->content_received = conn->content_received + buf_len;
  8019a4:	e0bfff17 	ldw	r2,-4(fp)
  8019a8:	10c00617 	ldw	r3,24(r2)
  8019ac:	e0bffe17 	ldw	r2,-8(fp)
  8019b0:	1887883a 	add	r3,r3,r2
  8019b4:	e0bfff17 	ldw	r2,-4(fp)
  8019b8:	10c00615 	stw	r3,24(r2)
  /* Copy all the received data into the upload buffer. */
  if ( memcpy( (void*) upload_buffer->wr_pos, 
  8019bc:	e0bffc17 	ldw	r2,-16(fp)
  8019c0:	11000017 	ldw	r4,0(r2)
  8019c4:	e0bfff17 	ldw	r2,-4(fp)
  8019c8:	10800d17 	ldw	r2,52(r2)
  8019cc:	e0fffe17 	ldw	r3,-8(fp)
  8019d0:	100b883a 	mov	r5,r2
  8019d4:	180d883a 	mov	r6,r3
  8019d8:	0806fe00 	call	806fe0 <memcpy>
  8019dc:	1004c03a 	cmpne	r2,r2,zero
  8019e0:	1000031e 	bne	r2,zero,8019f0 <file_upload+0xf0>
               (void*) conn->rx_rd_pos, 
               buf_len ) == NULL )
  {
    printf( "ERROR:  memcpy to file upload buffer failed!" );
  8019e4:	01002174 	movhi	r4,133
  8019e8:	212cde04 	addi	r4,r4,-19592
  8019ec:	08072f00 	call	8072f0 <printf>
  }
  /* Increment the wr_pos pointer to just after the received data. */
  upload_buffer->wr_pos = upload_buffer->wr_pos + buf_len;
  8019f0:	e0bffc17 	ldw	r2,-16(fp)
  8019f4:	10c00017 	ldw	r3,0(r2)
  8019f8:	e0bffe17 	ldw	r2,-8(fp)
  8019fc:	1887883a 	add	r3,r3,r2
  801a00:	e0bffc17 	ldw	r2,-16(fp)
  801a04:	10c00015 	stw	r3,0(r2)
  conn->rx_rd_pos = conn->rx_rd_pos + buf_len;
  801a08:	e0bfff17 	ldw	r2,-4(fp)
  801a0c:	10c00d17 	ldw	r3,52(r2)
  801a10:	e0bffe17 	ldw	r2,-8(fp)
  801a14:	1887883a 	add	r3,r3,r2
  801a18:	e0bfff17 	ldw	r2,-4(fp)
  801a1c:	10c00d15 	stw	r3,52(r2)
  /* Reset the buffers after copying the data into the big intermediate 
   * buffer.*/
  data_used = conn->rx_rd_pos - conn->rx_buffer;
  801a20:	e0bfff17 	ldw	r2,-4(fp)
  801a24:	10800d17 	ldw	r2,52(r2)
  801a28:	1007883a 	mov	r3,r2
  801a2c:	e0bfff17 	ldw	r2,-4(fp)
  801a30:	10801117 	ldw	r2,68(r2)
  801a34:	1885c83a 	sub	r2,r3,r2
  801a38:	e0bffd15 	stw	r2,-12(fp)
  memmove(conn->rx_buffer,conn->rx_rd_pos,conn->rx_wr_pos-conn->rx_rd_pos);
  801a3c:	e0bfff17 	ldw	r2,-4(fp)
  801a40:	11001117 	ldw	r4,68(r2)
  801a44:	e0bfff17 	ldw	r2,-4(fp)
  801a48:	11400d17 	ldw	r5,52(r2)
  801a4c:	e0bfff17 	ldw	r2,-4(fp)
  801a50:	10800e17 	ldw	r2,56(r2)
  801a54:	1007883a 	mov	r3,r2
  801a58:	e0bfff17 	ldw	r2,-4(fp)
  801a5c:	10800d17 	ldw	r2,52(r2)
  801a60:	1885c83a 	sub	r2,r3,r2
  801a64:	100d883a 	mov	r6,r2
  801a68:	08070800 	call	807080 <memmove>
  conn->rx_rd_pos = conn->rx_buffer;
  801a6c:	e0bfff17 	ldw	r2,-4(fp)
  801a70:	10c01117 	ldw	r3,68(r2)
  801a74:	e0bfff17 	ldw	r2,-4(fp)
  801a78:	10c00d15 	stw	r3,52(r2)
  conn->rx_wr_pos -= data_used;
  801a7c:	e0bfff17 	ldw	r2,-4(fp)
  801a80:	10c00e17 	ldw	r3,56(r2)
  801a84:	e0bffd17 	ldw	r2,-12(fp)
  801a88:	1887c83a 	sub	r3,r3,r2
  801a8c:	e0bfff17 	ldw	r2,-4(fp)
  801a90:	10c00e15 	stw	r3,56(r2)
  memset(conn->rx_wr_pos, 0, data_used);
  801a94:	e0bfff17 	ldw	r2,-4(fp)
  801a98:	10800e17 	ldw	r2,56(r2)
  801a9c:	e0fffd17 	ldw	r3,-12(fp)
  801aa0:	1009883a 	mov	r4,r2
  801aa4:	180d883a 	mov	r6,r3
  801aa8:	000b883a 	mov	r5,zero
  801aac:	08071600 	call	807160 <memset>
  if ( conn->file_upload == 0 )
  801ab0:	e0bfff17 	ldw	r2,-4(fp)
  801ab4:	10800a17 	ldw	r2,40(r2)
  801ab8:	1004c03a 	cmpne	r2,r2,zero
  801abc:	1000221e 	bne	r2,zero,801b48 <file_upload+0x248>
  {
    printf( "Received a total of %d bytes.\n", conn->content_received );
  801ac0:	e0bfff17 	ldw	r2,-4(fp)
  801ac4:	11400617 	ldw	r5,24(r2)
  801ac8:	01002174 	movhi	r4,133
  801acc:	212cea04 	addi	r4,r4,-19544
  801ad0:	08072f00 	call	8072f0 <printf>
    /* Insert a NULL character (temporarily). */
    *upload_buffer->wr_pos = '\0';
  801ad4:	e0bffc17 	ldw	r2,-16(fp)
  801ad8:	10800017 	ldw	r2,0(r2)
  801adc:	10000005 	stb	zero,0(r2)
    /* Populate flash_info struct... print the buffer size. */
    flash_info->size = (int) strlen(upload_buffer->buffer);
  801ae0:	e0bffc17 	ldw	r2,-16(fp)
  801ae4:	11000204 	addi	r4,r2,8
  801ae8:	080837c0 	call	80837c <strlen>
  801aec:	1007883a 	mov	r3,r2
  801af0:	e0bffb17 	ldw	r2,-20(fp)
  801af4:	10c00115 	stw	r3,4(r2)
    printf( "Upload Buffer size = %d.\n", flash_info->size);
  801af8:	e0bffb17 	ldw	r2,-20(fp)
  801afc:	11400117 	ldw	r5,4(r2)
  801b00:	01002174 	movhi	r4,133
  801b04:	212cf204 	addi	r4,r4,-19512
  801b08:	08072f00 	call	8072f0 <printf>
    strcpy( flash_info->device, conn->flash_device );
  801b0c:	e0bffb17 	ldw	r2,-20(fp)
  801b10:	11000204 	addi	r4,r2,8
  801b14:	e0bfff17 	ldw	r2,-4(fp)
  801b18:	11405304 	addi	r5,r2,332
  801b1c:	0807c7c0 	call	807c7c <strcpy>
    flash_info->start = upload_buffer->rd_pos;
  801b20:	e0bffc17 	ldw	r2,-16(fp)
  801b24:	10c00117 	ldw	r3,4(r2)
  801b28:	e0bffb17 	ldw	r2,-20(fp)
  801b2c:	10c00015 	stw	r3,0(r2)
    /* Populate the flash_inf struct. */
    //printf( "Here's the Buffer:\n\n%s", upload_buffer->buffer);
    http_find_file(conn);
  801b30:	e13fff17 	ldw	r4,-4(fp)
  801b34:	0802f280 	call	802f28 <http_find_file>
    conn->close = 1;
  801b38:	e0ffff17 	ldw	r3,-4(fp)
  801b3c:	00800044 	movi	r2,1
  801b40:	18800415 	stw	r2,16(r3)
  801b44:	00000206 	br	801b50 <file_upload+0x250>
  }
  else
  {
    conn->state = READY;
  801b48:	e0bfff17 	ldw	r2,-4(fp)
  801b4c:	10000015 	stw	zero,0(r2)
  }
}
  801b50:	e037883a 	mov	sp,fp
  801b54:	dfc00117 	ldw	ra,4(sp)
  801b58:	df000017 	ldw	fp,0(sp)
  801b5c:	dec00204 	addi	sp,sp,8
  801b60:	f800283a 	ret

00801b64 <ProgFlashStub>:
 *
 * A thin wrapper around the ProgSRECBuf() function in srec_flash.c.
 *
 */
void ProgFlashStub(http_conn* conn)
{
  801b64:	defffc04 	addi	sp,sp,-16
  801b68:	dfc00315 	stw	ra,12(sp)
  801b6c:	df000215 	stw	fp,8(sp)
  801b70:	df000204 	addi	fp,sp,8
  801b74:	e13fff15 	stw	r4,-4(fp)
	struct flash_inf_struct *flash_info = &flash_inf;
  801b78:	008038b4 	movhi	r2,226
  801b7c:	1089a704 	addi	r2,r2,9884
  801b80:	e0bffe15 	stw	r2,-8(fp)
	/* Call ParseSRECBuf, with the flash_info argument. */
	ParseSRECBuf( flash_info );
  801b84:	e13ffe17 	ldw	r4,-8(fp)
  801b88:	08048dc0 	call	8048dc <ParseSRECBuf>
	/* Go find and send the reset_system.html file. */
	http_find_file( conn );
  801b8c:	e13fff17 	ldw	r4,-4(fp)
  801b90:	0802f280 	call	802f28 <http_find_file>
	/* Close the connection. */
	conn->close = 1;
  801b94:	e0ffff17 	ldw	r3,-4(fp)
  801b98:	00800044 	movi	r2,1
  801b9c:	18800415 	stw	r2,16(r3)
  return;
}
  801ba0:	e037883a 	mov	sp,fp
  801ba4:	dfc00117 	ldw	ra,4(sp)
  801ba8:	df000017 	ldw	fp,0(sp)
  801bac:	dec00204 	addi	sp,sp,8
  801bb0:	f800283a 	ret

00801bb4 <http_reset_connection>:
 * 
 * This routine will clear our HTTP connection structure & prepare it to handle
 * a new HTTP connection.
 */
void http_reset_connection(http_conn* conn, int http_instance)
{
  801bb4:	defffc04 	addi	sp,sp,-16
  801bb8:	dfc00315 	stw	ra,12(sp)
  801bbc:	df000215 	stw	fp,8(sp)
  801bc0:	df000204 	addi	fp,sp,8
  801bc4:	e13ffe15 	stw	r4,-8(fp)
  801bc8:	e17fff15 	stw	r5,-4(fp)
  memset(conn, 0, sizeof(http_conn));
  801bcc:	e0bffe17 	ldw	r2,-8(fp)
  801bd0:	1009883a 	mov	r4,r2
  801bd4:	01887604 	movi	r6,8664
  801bd8:	000b883a 	mov	r5,zero
  801bdc:	08071600 	call	807160 <memset>

  conn->fd = -1;
  801be0:	e0fffe17 	ldw	r3,-8(fp)
  801be4:	00bfffc4 	movi	r2,-1
  801be8:	18800315 	stw	r2,12(r3)
  conn->state = READY;
  801bec:	e0bffe17 	ldw	r2,-8(fp)
  801bf0:	10000015 	stw	zero,0(r2)
  conn->keep_alive_count = HTTP_KEEP_ALIVE_COUNT;
  801bf4:	e0fffe17 	ldw	r3,-8(fp)
  801bf8:	00800504 	movi	r2,20
  801bfc:	18800715 	stw	r2,28(r3)
  
  conn->rx_buffer = &http_rx_buffer[http_instance][0];
  801c00:	e0bfff17 	ldw	r2,-4(fp)
  801c04:	1004937a 	slli	r2,r2,13
  801c08:	1007883a 	mov	r3,r2
  801c0c:	00803874 	movhi	r2,225
  801c10:	1099a684 	addi	r2,r2,26266
  801c14:	1885883a 	add	r2,r3,r2
  801c18:	1007883a 	mov	r3,r2
  801c1c:	e0bffe17 	ldw	r2,-8(fp)
  801c20:	10c01115 	stw	r3,68(r2)
  conn->tx_buffer = &http_tx_buffer[http_instance][0];
  801c24:	e0bfff17 	ldw	r2,-4(fp)
  801c28:	1004937a 	slli	r2,r2,13
  801c2c:	1007883a 	mov	r3,r2
  801c30:	008038b4 	movhi	r2,226
  801c34:	1089b304 	addi	r2,r2,9932
  801c38:	1885883a 	add	r2,r3,r2
  801c3c:	1007883a 	mov	r3,r2
  801c40:	e0bffe17 	ldw	r2,-8(fp)
  801c44:	10c01215 	stw	r3,72(r2)
  conn->rx_wr_pos = &http_rx_buffer[http_instance][0];
  801c48:	e0bfff17 	ldw	r2,-4(fp)
  801c4c:	1004937a 	slli	r2,r2,13
  801c50:	1007883a 	mov	r3,r2
  801c54:	00803874 	movhi	r2,225
  801c58:	1099a684 	addi	r2,r2,26266
  801c5c:	1885883a 	add	r2,r3,r2
  801c60:	1007883a 	mov	r3,r2
  801c64:	e0bffe17 	ldw	r2,-8(fp)
  801c68:	10c00e15 	stw	r3,56(r2)
  conn->rx_rd_pos = &http_rx_buffer[http_instance][0];
  801c6c:	e0bfff17 	ldw	r2,-4(fp)
  801c70:	1004937a 	slli	r2,r2,13
  801c74:	1007883a 	mov	r3,r2
  801c78:	00803874 	movhi	r2,225
  801c7c:	1099a684 	addi	r2,r2,26266
  801c80:	1885883a 	add	r2,r3,r2
  801c84:	1007883a 	mov	r3,r2
  801c88:	e0bffe17 	ldw	r2,-8(fp)
  801c8c:	10c00d15 	stw	r3,52(r2)
}
  801c90:	e037883a 	mov	sp,fp
  801c94:	dfc00117 	ldw	ra,4(sp)
  801c98:	df000017 	ldw	fp,0(sp)
  801c9c:	dec00204 	addi	sp,sp,8
  801ca0:	f800283a 	ret

00801ca4 <http_manage_connection>:
 * structure. It is called from various points in the HTTP server code to
 * ensure that connections are reset properly on error, completion, and
 * to ensure that "zombie" connections are dealt with.
 */
void http_manage_connection(http_conn* conn, int http_instance)
{
  801ca4:	defffa04 	addi	sp,sp,-24
  801ca8:	dfc00515 	stw	ra,20(sp)
  801cac:	df000415 	stw	fp,16(sp)
  801cb0:	df000404 	addi	fp,sp,16
  801cb4:	e13ffd15 	stw	r4,-12(fp)
  801cb8:	e17ffe15 	stw	r5,-8(fp)
  alt_u32 current_time = 0;
  801cbc:	e03ffc15 	stw	zero,-16(fp)
  /*
   * Keep track of whether an open connection has timed out. This will be
   * determined by comparing the current time with that of the most recent
   * activity.
   */
  if(conn->state == READY || conn->state == PROCESS || conn->state == DATA)
  801cc0:	e0bffd17 	ldw	r2,-12(fp)
  801cc4:	10800017 	ldw	r2,0(r2)
  801cc8:	1005003a 	cmpeq	r2,r2,zero
  801ccc:	1000081e 	bne	r2,zero,801cf0 <http_manage_connection+0x4c>
  801cd0:	e0bffd17 	ldw	r2,-12(fp)
  801cd4:	10800017 	ldw	r2,0(r2)
  801cd8:	10800060 	cmpeqi	r2,r2,1
  801cdc:	1000041e 	bne	r2,zero,801cf0 <http_manage_connection+0x4c>
  801ce0:	e0bffd17 	ldw	r2,-12(fp)
  801ce4:	10800017 	ldw	r2,0(r2)
  801ce8:	10800098 	cmpnei	r2,r2,2
  801cec:	1000111e 	bne	r2,zero,801d34 <http_manage_connection+0x90>
 * alt_nticks() returns the elapsed number of system clock ticks since reset.
 */

static ALT_INLINE alt_u32 ALT_ALWAYS_INLINE alt_nticks (void)
{
  return _alt_nticks;
  801cf0:	00802174 	movhi	r2,133
  801cf4:	1082cc04 	addi	r2,r2,2864
  801cf8:	10800017 	ldw	r2,0(r2)
  {
    current_time = alt_nticks();
  801cfc:	e0bffc15 	stw	r2,-16(fp)
    
    if( ((current_time - conn->activity_time) >= HTTP_KEEP_ALIVE_TIME) && conn->file_upload != 1 )
  801d00:	e0bffd17 	ldw	r2,-12(fp)
  801d04:	10c00c17 	ldw	r3,48(r2)
  801d08:	e0bffc17 	ldw	r2,-16(fp)
  801d0c:	10c5c83a 	sub	r2,r2,r3
  801d10:	1084e230 	cmpltui	r2,r2,5000
  801d14:	1000071e 	bne	r2,zero,801d34 <http_manage_connection+0x90>
  801d18:	e0bffd17 	ldw	r2,-12(fp)
  801d1c:	10800a17 	ldw	r2,40(r2)
  801d20:	10800060 	cmpeqi	r2,r2,1
  801d24:	1000031e 	bne	r2,zero,801d34 <http_manage_connection+0x90>
    {
      conn->state = RESET;
  801d28:	e0fffd17 	ldw	r3,-12(fp)
  801d2c:	00800104 	movi	r2,4
  801d30:	18800015 	stw	r2,0(r3)
   * state machine as ready for additional connections... or not.
   *  - Only send so many files per connection. 
   *  - Stop when we reach a timeout.
   *  - If someone (like the client) asked to close the connection, do so.
   */
  if(conn->state == COMPLETE)
  801d34:	e0bffd17 	ldw	r2,-12(fp)
  801d38:	10800017 	ldw	r2,0(r2)
  801d3c:	108000d8 	cmpnei	r2,r2,3
  801d40:	1000201e 	bne	r2,zero,801dc4 <http_manage_connection+0x120>
  {
    if(conn->file_handle != NULL)
  801d44:	e0bffd17 	ldw	r2,-12(fp)
  801d48:	10800b17 	ldw	r2,44(r2)
  801d4c:	1005003a 	cmpeq	r2,r2,zero
  801d50:	1000031e 	bne	r2,zero,801d60 <http_manage_connection+0xbc>
    {
      fclose(conn->file_handle);
  801d54:	e0bffd17 	ldw	r2,-12(fp)
  801d58:	11000b17 	ldw	r4,44(r2)
  801d5c:	08051980 	call	805198 <fclose>
    }
      
    conn->keep_alive_count--;
  801d60:	e0bffd17 	ldw	r2,-12(fp)
  801d64:	10800717 	ldw	r2,28(r2)
  801d68:	10ffffc4 	addi	r3,r2,-1
  801d6c:	e0bffd17 	ldw	r2,-12(fp)
  801d70:	10c00715 	stw	r3,28(r2)
    conn->data_sent = 0;
  801d74:	e0bffd17 	ldw	r2,-12(fp)
  801d78:	10000915 	stw	zero,36(r2)
  
    if(conn->keep_alive_count == 0)
  801d7c:	e0bffd17 	ldw	r2,-12(fp)
  801d80:	10800717 	ldw	r2,28(r2)
  801d84:	1004c03a 	cmpne	r2,r2,zero
  801d88:	1000031e 	bne	r2,zero,801d98 <http_manage_connection+0xf4>
    {
      conn->close = 1;
  801d8c:	e0fffd17 	ldw	r3,-12(fp)
  801d90:	00800044 	movi	r2,1
  801d94:	18800415 	stw	r2,16(r3)
    }
    
    conn->state = conn->close ? CLOSE : READY;
  801d98:	e0bffd17 	ldw	r2,-12(fp)
  801d9c:	10800417 	ldw	r2,16(r2)
  801da0:	1005003a 	cmpeq	r2,r2,zero
  801da4:	1000031e 	bne	r2,zero,801db4 <http_manage_connection+0x110>
  801da8:	00800144 	movi	r2,5
  801dac:	e0bfff15 	stw	r2,-4(fp)
  801db0:	00000106 	br	801db8 <http_manage_connection+0x114>
  801db4:	e03fff15 	stw	zero,-4(fp)
  801db8:	e0bffd17 	ldw	r2,-12(fp)
  801dbc:	e0ffff17 	ldw	r3,-4(fp)
  801dc0:	10c00015 	stw	r3,0(r2)
   * Some error occured. http_reset_connection() will take care of most
   * things, but the RX buffer still needs to be cleared, and any open
   * files need to be closed. We do this in a separate state to maintain 
   * efficiency between successive (error-free) connections.
   */
  if(conn->state == RESET)
  801dc4:	e0bffd17 	ldw	r2,-12(fp)
  801dc8:	10800017 	ldw	r2,0(r2)
  801dcc:	10800118 	cmpnei	r2,r2,4
  801dd0:	1000101e 	bne	r2,zero,801e14 <http_manage_connection+0x170>
  {
    if(conn->file_handle != NULL)
  801dd4:	e0bffd17 	ldw	r2,-12(fp)
  801dd8:	10800b17 	ldw	r2,44(r2)
  801ddc:	1005003a 	cmpeq	r2,r2,zero
  801de0:	1000031e 	bne	r2,zero,801df0 <http_manage_connection+0x14c>
    {
      fclose(conn->file_handle);
  801de4:	e0bffd17 	ldw	r2,-12(fp)
  801de8:	11000b17 	ldw	r4,44(r2)
  801dec:	08051980 	call	805198 <fclose>
    }
      
    memset(conn->rx_buffer, 0, HTTP_RX_BUF_SIZE);
  801df0:	e0bffd17 	ldw	r2,-12(fp)
  801df4:	10801117 	ldw	r2,68(r2)
  801df8:	1009883a 	mov	r4,r2
  801dfc:	01880004 	movi	r6,8192
  801e00:	000b883a 	mov	r5,zero
  801e04:	08071600 	call	807160 <memset>
    conn->state = CLOSE;
  801e08:	e0fffd17 	ldw	r3,-12(fp)
  801e0c:	00800144 	movi	r2,5
  801e10:	18800015 	stw	r2,0(r3)
  }
  
  /* Close the TCP connection */
  if(conn->state == CLOSE)
  801e14:	e0bffd17 	ldw	r2,-12(fp)
  801e18:	10800017 	ldw	r2,0(r2)
  801e1c:	10800158 	cmpnei	r2,r2,5
  801e20:	1000061e 	bne	r2,zero,801e3c <http_manage_connection+0x198>
  {
    close(conn->fd);
  801e24:	e0bffd17 	ldw	r2,-12(fp)
  801e28:	11000317 	ldw	r4,12(r2)
  801e2c:	082248c0 	call	82248c <close>
    http_reset_connection(conn, http_instance);
  801e30:	e13ffd17 	ldw	r4,-12(fp)
  801e34:	e17ffe17 	ldw	r5,-8(fp)
  801e38:	0801bb40 	call	801bb4 <http_reset_connection>
  }
}
  801e3c:	e037883a 	mov	sp,fp
  801e40:	dfc00117 	ldw	ra,4(sp)
  801e44:	df000017 	ldw	fp,0(sp)
  801e48:	dec00204 	addi	sp,sp,8
  801e4c:	f800283a 	ret

00801e50 <http_handle_accept>:
 * any open connection slots we will accept the connection (this creates a 
 * new socket for the data transfer), but if all available connections are in 
 * use we'll ignore the client's incoming connection request.
 */
int http_handle_accept(int listen_socket, http_conn* conn)
{
  801e50:	defff304 	addi	sp,sp,-52
  801e54:	dfc00c15 	stw	ra,48(sp)
  801e58:	df000b15 	stw	fp,44(sp)
  801e5c:	df000b04 	addi	fp,sp,44
  801e60:	e13ffd15 	stw	r4,-12(fp)
  801e64:	e17ffe15 	stw	r5,-8(fp)
  int ret_code = 0, i, socket, len;
  801e68:	e03ff715 	stw	zero,-36(fp)
  struct sockaddr_in  rem;

  len = sizeof(rem);
  801e6c:	00800404 	movi	r2,16
  801e70:	e0bff815 	stw	r2,-32(fp)

  /* 
   * Loop through available connection slots to determine the first available
   * connection.
   */
  for(i=0; i<HTTP_NUM_CONNECTIONS; i++)
  801e74:	e03ff615 	stw	zero,-40(fp)
  801e78:	00000b06 	br	801ea8 <http_handle_accept+0x58>
  {
    if((conn+i)->fd == -1)
  801e7c:	e0bff617 	ldw	r2,-40(fp)
  801e80:	10887624 	muli	r2,r2,8664
  801e84:	1007883a 	mov	r3,r2
  801e88:	e0bffe17 	ldw	r2,-8(fp)
  801e8c:	1885883a 	add	r2,r3,r2
  801e90:	10800317 	ldw	r2,12(r2)
  801e94:	10bfffe0 	cmpeqi	r2,r2,-1
  801e98:	1000061e 	bne	r2,zero,801eb4 <http_handle_accept+0x64>

  /* 
   * Loop through available connection slots to determine the first available
   * connection.
   */
  for(i=0; i<HTTP_NUM_CONNECTIONS; i++)
  801e9c:	e0bff617 	ldw	r2,-40(fp)
  801ea0:	10800044 	addi	r2,r2,1
  801ea4:	e0bff615 	stw	r2,-40(fp)
  801ea8:	e0bff617 	ldw	r2,-40(fp)
  801eac:	10800190 	cmplti	r2,r2,6
  801eb0:	103ff21e 	bne	r2,zero,801e7c <http_handle_accept+0x2c>
  
  /* 
   * There are no more connection slots available. Ignore the connection
   * request for now.
   */
  if(i == HTTP_NUM_CONNECTIONS)
  801eb4:	e0bff617 	ldw	r2,-40(fp)
  801eb8:	10800198 	cmpnei	r2,r2,6
  801ebc:	1000031e 	bne	r2,zero,801ecc <http_handle_accept+0x7c>
    return -1;
  801ec0:	00bfffc4 	movi	r2,-1
  801ec4:	e0bfff15 	stw	r2,-4(fp)
  801ec8:	00002506 	br	801f60 <http_handle_accept+0x110>
      
  if((socket = accept(listen_socket,(struct sockaddr*)&rem,&len)) < 0)
  801ecc:	e17ff904 	addi	r5,fp,-28
  801ed0:	e1bff804 	addi	r6,fp,-32
  801ed4:	e13ffd17 	ldw	r4,-12(fp)
  801ed8:	0824aa80 	call	824aa8 <bsd_accept>
  801edc:	e0bff515 	stw	r2,-44(fp)
  801ee0:	e0bff517 	ldw	r2,-44(fp)
  801ee4:	1004403a 	cmpge	r2,r2,zero
  801ee8:	10000b1e 	bne	r2,zero,801f18 <http_handle_accept+0xc8>
  {
    fprintf(stderr, "[http_handle_accept] accept failed (%d)\n", socket);
  801eec:	00802174 	movhi	r2,133
  801ef0:	10826704 	addi	r2,r2,2460
  801ef4:	10800017 	ldw	r2,0(r2)
  801ef8:	11000317 	ldw	r4,12(r2)
  801efc:	01402174 	movhi	r5,133
  801f00:	296d0904 	addi	r5,r5,-19420
  801f04:	e1bff517 	ldw	r6,-44(fp)
  801f08:	08057f40 	call	8057f4 <fprintf>
    return socket;
  801f0c:	e0bff517 	ldw	r2,-44(fp)
  801f10:	e0bfff15 	stw	r2,-4(fp)
  801f14:	00001206 	br	801f60 <http_handle_accept+0x110>
  }

  (conn+i)->fd = socket;
  801f18:	e0bff617 	ldw	r2,-40(fp)
  801f1c:	10887624 	muli	r2,r2,8664
  801f20:	1007883a 	mov	r3,r2
  801f24:	e0bffe17 	ldw	r2,-8(fp)
  801f28:	1887883a 	add	r3,r3,r2
  801f2c:	e0bff517 	ldw	r2,-44(fp)
  801f30:	18800315 	stw	r2,12(r3)
  (conn+i)->activity_time = alt_nticks();
  801f34:	e0bff617 	ldw	r2,-40(fp)
  801f38:	10887624 	muli	r2,r2,8664
  801f3c:	1007883a 	mov	r3,r2
  801f40:	e0bffe17 	ldw	r2,-8(fp)
  801f44:	1887883a 	add	r3,r3,r2
  801f48:	00802174 	movhi	r2,133
  801f4c:	1082cc04 	addi	r2,r2,2864
  801f50:	10800017 	ldw	r2,0(r2)
  801f54:	18800c15 	stw	r2,48(r3)

  return ret_code;
  801f58:	e0bff717 	ldw	r2,-36(fp)
  801f5c:	e0bfff15 	stw	r2,-4(fp)
  801f60:	e0bfff17 	ldw	r2,-4(fp)
}
  801f64:	e037883a 	mov	sp,fp
  801f68:	dfc00117 	ldw	ra,4(sp)
  801f6c:	df000017 	ldw	fp,0(sp)
  801f70:	dec00204 	addi	sp,sp,8
  801f74:	f800283a 	ret

00801f78 <http_read_line>:
 * 
 * This routine will scan the RX data buffer for a newline, allowing us to
 * parse an in-coming HTTP request line-by-line.
 */
int http_read_line(http_conn* conn)
{
  801f78:	defffb04 	addi	sp,sp,-20
  801f7c:	dfc00415 	stw	ra,16(sp)
  801f80:	df000315 	stw	fp,12(sp)
  801f84:	df000304 	addi	fp,sp,12
  801f88:	e13fff15 	stw	r4,-4(fp)
  char* lf_addr;
  int ret_code = 0;
  801f8c:	e03ffd15 	stw	zero,-12(fp)

  /* Find the Carriage return which marks the end of the header */
  lf_addr = strchr(conn->rx_rd_pos, '\n');
  801f90:	e0bfff17 	ldw	r2,-4(fp)
  801f94:	11000d17 	ldw	r4,52(r2)
  801f98:	01400284 	movi	r5,10
  801f9c:	0807ae00 	call	807ae0 <strchr>
  801fa0:	e0bffe15 	stw	r2,-8(fp)
  
  if (lf_addr == NULL)
  801fa4:	e0bffe17 	ldw	r2,-8(fp)
  801fa8:	1004c03a 	cmpne	r2,r2,zero
  801fac:	1000031e 	bne	r2,zero,801fbc <http_read_line+0x44>
  {
    ret_code = -1;
  801fb0:	00bfffc4 	movi	r2,-1
  801fb4:	e0bffd15 	stw	r2,-12(fp)
  801fb8:	00001506 	br	802010 <http_read_line+0x98>
  {
    /* 
     * Check that the line feed has a matching CR, if so zero that
     * else zero the LF so we can use the string searching functions.
     */
    if ((lf_addr > conn->rx_buffer) && (*(lf_addr-1) == '\r'))
  801fbc:	e0bfff17 	ldw	r2,-4(fp)
  801fc0:	10c01117 	ldw	r3,68(r2)
  801fc4:	e0bffe17 	ldw	r2,-8(fp)
  801fc8:	18800b2e 	bgeu	r3,r2,801ff8 <http_read_line+0x80>
  801fcc:	e0bffe17 	ldw	r2,-8(fp)
  801fd0:	10bfffc4 	addi	r2,r2,-1
  801fd4:	10800003 	ldbu	r2,0(r2)
  801fd8:	10803fcc 	andi	r2,r2,255
  801fdc:	1080201c 	xori	r2,r2,128
  801fe0:	10bfe004 	addi	r2,r2,-128
  801fe4:	10800358 	cmpnei	r2,r2,13
  801fe8:	1000031e 	bne	r2,zero,801ff8 <http_read_line+0x80>
    {
      *(lf_addr-1) = 0;
  801fec:	e0bffe17 	ldw	r2,-8(fp)
  801ff0:	10bfffc4 	addi	r2,r2,-1
  801ff4:	10000005 	stb	zero,0(r2)
    }

    *lf_addr = 0;
  801ff8:	e0bffe17 	ldw	r2,-8(fp)
  801ffc:	10000005 	stb	zero,0(r2)
    conn->rx_rd_pos = lf_addr+1;
  802000:	e0bffe17 	ldw	r2,-8(fp)
  802004:	10c00044 	addi	r3,r2,1
  802008:	e0bfff17 	ldw	r2,-4(fp)
  80200c:	10c00d15 	stw	r3,52(r2)
  }

  return ret_code;
  802010:	e0bffd17 	ldw	r2,-12(fp)
}
  802014:	e037883a 	mov	sp,fp
  802018:	dfc00117 	ldw	ra,4(sp)
  80201c:	df000017 	ldw	fp,0(sp)
  802020:	dec00204 	addi	sp,sp,8
  802024:	f800283a 	ret

00802028 <http_parse_type_boundary>:
 *   - Content-Type, Content-Disposition, boundary, etc.
 */
int http_parse_type_boundary( http_conn* conn,
                                char* start,
                                int len )
{
  802028:	deffb804 	addi	sp,sp,-288
  80202c:	dfc04715 	stw	ra,284(sp)
  802030:	df004615 	stw	fp,280(sp)
  802034:	df004604 	addi	fp,sp,280
  802038:	e13ffc15 	stw	r4,-16(fp)
  80203c:	e17ffd15 	stw	r5,-12(fp)
  802040:	e1bffe15 	stw	r6,-8(fp)
  char* delimiter;
  char* boundary_start;
  char line[HTTP_MAX_LINE_SIZE];
  
  /* Copy the Content-Type/Boundary line. */
  if( len > HTTP_MAX_LINE_SIZE )
  802044:	e0bffe17 	ldw	r2,-8(fp)
  802048:	10804050 	cmplti	r2,r2,257
  80204c:	1000061e 	bne	r2,zero,802068 <http_parse_type_boundary+0x40>
  {
    printf( "process headers:  overflow content-type/boundary parsing.\n" );
  802050:	01002174 	movhi	r4,133
  802054:	212d1404 	addi	r4,r4,-19376
  802058:	08074080 	call	807408 <puts>
    return(-1);
  80205c:	00bfffc4 	movi	r2,-1
  802060:	e0bfff15 	stw	r2,-4(fp)
  802064:	00002506 	br	8020fc <http_parse_type_boundary+0xd4>
  }
  strncpy( line, start, len );
  802068:	e1bffe17 	ldw	r6,-8(fp)
  80206c:	e13fbc04 	addi	r4,fp,-272
  802070:	e17ffd17 	ldw	r5,-12(fp)
  802074:	08084e00 	call	8084e0 <strncpy>
  /* Add a null byte to the end of it. */
  *(line + len) = '\0';
  802078:	e0bffe17 	ldw	r2,-8(fp)
  80207c:	1007883a 	mov	r3,r2
  802080:	e0bfbc04 	addi	r2,fp,-272
  802084:	10c5883a 	add	r2,r2,r3
  802088:	10000005 	stb	zero,0(r2)
  /* Get the Content-Type value. */
  if( (delimiter = strchr( line, ';' )) )
  80208c:	e13fbc04 	addi	r4,fp,-272
  802090:	01400ec4 	movi	r5,59
  802094:	0807ae00 	call	807ae0 <strchr>
  802098:	e0bfbb15 	stw	r2,-276(fp)
  80209c:	e0bfbb17 	ldw	r2,-276(fp)
  8020a0:	1005003a 	cmpeq	r2,r2,zero
  8020a4:	1000101e 	bne	r2,zero,8020e8 <http_parse_type_boundary+0xc0>
  {
    /* Need to parse both a boundary and Content-Type. */
    boundary_start = strchr( line, '=' ) + 2;
  8020a8:	e13fbc04 	addi	r4,fp,-272
  8020ac:	01400f44 	movi	r5,61
  8020b0:	0807ae00 	call	807ae0 <strchr>
  8020b4:	10800084 	addi	r2,r2,2
  8020b8:	e0bfba15 	stw	r2,-280(fp)
    strcpy( conn->boundary, boundary_start);
  8020bc:	e0bffc17 	ldw	r2,-16(fp)
  8020c0:	11006204 	addi	r4,r2,392
  8020c4:	e17fba17 	ldw	r5,-280(fp)
  8020c8:	0807c7c0 	call	807c7c <strcpy>
    /* Insert a null space in place of the delimiter. */
    *delimiter = '\0';
  8020cc:	e0bfbb17 	ldw	r2,-276(fp)
  8020d0:	10000005 	stb	zero,0(r2)
    /* First part of the line is the Content-Type. */
    strcpy( conn->content_type, line);
  8020d4:	e0bffc17 	ldw	r2,-16(fp)
  8020d8:	11005804 	addi	r4,r2,352
  8020dc:	e17fbc04 	addi	r5,fp,-272
  8020e0:	0807c7c0 	call	807c7c <strcpy>
  8020e4:	00000406 	br	8020f8 <http_parse_type_boundary+0xd0>
  }
  else
  {
    strcpy( conn->content_type, line );
  8020e8:	e0bffc17 	ldw	r2,-16(fp)
  8020ec:	11005804 	addi	r4,r2,352
  8020f0:	e17fbc04 	addi	r5,fp,-272
  8020f4:	0807c7c0 	call	807c7c <strcpy>
  }
  return 0;
  8020f8:	e03fff15 	stw	zero,-4(fp)
  8020fc:	e0bfff17 	ldw	r2,-4(fp)
}
  802100:	e037883a 	mov	sp,fp
  802104:	dfc00117 	ldw	ra,4(sp)
  802108:	df000017 	ldw	fp,0(sp)
  80210c:	dec00204 	addi	sp,sp,8
  802110:	f800283a 	ret

00802114 <http_process_headers>:
 * This routine should be modified in the future not to use strtok() as its
 * a bit invasive and is not thread-safe!
 * 
 */
int http_process_headers(http_conn* conn)
{
  802114:	defff304 	addi	sp,sp,-52
  802118:	dfc00c15 	stw	ra,48(sp)
  80211c:	df000b15 	stw	fp,44(sp)
  802120:	df000b04 	addi	fp,sp,44
  802124:	e13ffe15 	stw	r4,-8(fp)
  char* option;
  char* cr_pos;
  char* ct_start;
  char* orig_read_pos = conn->rx_rd_pos;
  802128:	e0bffe17 	ldw	r2,-8(fp)
  80212c:	10800d17 	ldw	r2,52(r2)
  802130:	e0bffa15 	stw	r2,-24(fp)
  /* 
   * A boundary was found.  This is a multi-part form
   * and header processing stops here!
   * 
   */
  if( (conn->boundary[0] == '-') && (conn->content_length > 0) )
  802134:	e0bffe17 	ldw	r2,-8(fp)
  802138:	10806203 	ldbu	r2,392(r2)
  80213c:	10803fcc 	andi	r2,r2,255
  802140:	1080201c 	xori	r2,r2,128
  802144:	10bfe004 	addi	r2,r2,-128
  802148:	10800b58 	cmpnei	r2,r2,45
  80214c:	10000d1e 	bne	r2,zero,802184 <http_process_headers+0x70>
  802150:	e0bffe17 	ldw	r2,-8(fp)
  802154:	10800517 	ldw	r2,20(r2)
  802158:	10800050 	cmplti	r2,r2,1
  80215c:	1000091e 	bne	r2,zero,802184 <http_process_headers+0x70>

  {
    boundary_start = strstr( conn->rx_rd_pos, conn->boundary );
  802160:	e0bffe17 	ldw	r2,-8(fp)
  802164:	11000d17 	ldw	r4,52(r2)
  802168:	e0bffe17 	ldw	r2,-8(fp)
  80216c:	11406204 	addi	r5,r2,392
  802170:	08086d00 	call	8086d0 <strstr>
  802174:	e0bff715 	stw	r2,-36(fp)
    //conn->rx_rd_pos = boundary_start + strlen(conn->boundary);
    return -1;
  802178:	00bfffc4 	movi	r2,-1
  80217c:	e0bfff15 	stw	r2,-4(fp)
  802180:	00006b06 	br	802330 <http_process_headers+0x21c>
  }
  /* Skip the next section we'll chop with strtok(). Perl for Nios, anyone? */
  else if( (delimiter_token = strchr(conn->rx_rd_pos, ':')) )
  802184:	e0bffe17 	ldw	r2,-8(fp)
  802188:	11000d17 	ldw	r4,52(r2)
  80218c:	01400e84 	movi	r5,58
  802190:	0807ae00 	call	807ae0 <strchr>
  802194:	e0bff915 	stw	r2,-28(fp)
  802198:	e0bff917 	ldw	r2,-28(fp)
  80219c:	1005003a 	cmpeq	r2,r2,zero
  8021a0:	1000181e 	bne	r2,zero,802204 <http_process_headers+0xf0>
  {
    conn->rx_rd_pos = delimiter_token + 1;
  8021a4:	e0bff917 	ldw	r2,-28(fp)
  8021a8:	10c00044 	addi	r3,r2,1
  8021ac:	e0bffe17 	ldw	r2,-8(fp)
  8021b0:	10c00d15 	stw	r3,52(r2)
    conn->content_received = conn->rx_rd_pos - conn->rx_buffer;
  8021b4:	e0bffe17 	ldw	r2,-8(fp)
  8021b8:	10800d17 	ldw	r2,52(r2)
  8021bc:	1007883a 	mov	r3,r2
  8021c0:	e0bffe17 	ldw	r2,-8(fp)
  8021c4:	10801117 	ldw	r2,68(r2)
  8021c8:	1887c83a 	sub	r3,r3,r2
  8021cc:	e0bffe17 	ldw	r2,-8(fp)
  8021d0:	10c00615 	stw	r3,24(r2)
  else
  {
    return -1;
  }
  
  option = strtok(orig_read_pos, ":");
  8021d4:	e13ffa17 	ldw	r4,-24(fp)
  8021d8:	01402174 	movhi	r5,133
  8021dc:	296d2304 	addi	r5,r5,-19316
  8021e0:	0808d300 	call	808d30 <strtok>
  8021e4:	e0bffd15 	stw	r2,-12(fp)

  if(stricmp(option,"Connection") == 0)
  8021e8:	e13ffd17 	ldw	r4,-12(fp)
  8021ec:	01402174 	movhi	r5,133
  8021f0:	296d2404 	addi	r5,r5,-19312
  8021f4:	08079a00 	call	8079a0 <strcasecmp>
  8021f8:	1005003a 	cmpeq	r2,r2,zero
  8021fc:	1000041e 	bne	r2,zero,802210 <http_process_headers+0xfc>
  802200:	00001906 	br	802268 <http_process_headers+0x154>
    conn->rx_rd_pos = delimiter_token + 1;
    conn->content_received = conn->rx_rd_pos - conn->rx_buffer;
  }
  else
  {
    return -1;
  802204:	00bfffc4 	movi	r2,-1
  802208:	e0bfff15 	stw	r2,-4(fp)
  80220c:	00004806 	br	802330 <http_process_headers+0x21c>
  
  option = strtok(orig_read_pos, ":");

  if(stricmp(option,"Connection") == 0)
  {
    temp_null = *(option + 17);
  802210:	e0bffd17 	ldw	r2,-12(fp)
  802214:	10800444 	addi	r2,r2,17
  802218:	10800003 	ldbu	r2,0(r2)
  80221c:	e0bff805 	stb	r2,-32(fp)
    *(option + 17) = 0;
  802220:	e0bffd17 	ldw	r2,-12(fp)
  802224:	10800444 	addi	r2,r2,17
  802228:	10000005 	stb	zero,0(r2)
    
    if(stricmp((option+12), "close") == 0)
  80222c:	e0bffd17 	ldw	r2,-12(fp)
  802230:	11000304 	addi	r4,r2,12
  802234:	01402174 	movhi	r5,133
  802238:	296d2704 	addi	r5,r5,-19300
  80223c:	08079a00 	call	8079a0 <strcasecmp>
  802240:	1004c03a 	cmpne	r2,r2,zero
  802244:	1000031e 	bne	r2,zero,802254 <http_process_headers+0x140>
    {
      conn->close = 1;
  802248:	e0fffe17 	ldw	r3,-8(fp)
  80224c:	00800044 	movi	r2,1
  802250:	18800415 	stw	r2,16(r3)
    }
    *(option + 17) = temp_null;
  802254:	e0bffd17 	ldw	r2,-12(fp)
  802258:	10c00444 	addi	r3,r2,17
  80225c:	e0bff803 	ldbu	r2,-32(fp)
  802260:	18800005 	stb	r2,0(r3)
  802264:	00003106 	br	80232c <http_process_headers+0x218>
  }
  else if (stricmp(option, "Content-Length") == 0)
  802268:	e13ffd17 	ldw	r4,-12(fp)
  80226c:	01402174 	movhi	r5,133
  802270:	296d2904 	addi	r5,r5,-19292
  802274:	08079a00 	call	8079a0 <strcasecmp>
  802278:	1004c03a 	cmpne	r2,r2,zero
  80227c:	1000071e 	bne	r2,zero,80229c <http_process_headers+0x188>
  {
    conn->content_length = atoi(option+16);
  802280:	e0bffd17 	ldw	r2,-12(fp)
  802284:	11000404 	addi	r4,r2,16
  802288:	080507c0 	call	80507c <atoi>
  80228c:	1007883a 	mov	r3,r2
  802290:	e0bffe17 	ldw	r2,-8(fp)
  802294:	10c00515 	stw	r3,20(r2)
  802298:	00002406 	br	80232c <http_process_headers+0x218>
    //printf( "Content Length = %d.\n", conn->content_length );
  }
  /* When getting the Content-Type, get the whole line and throw it
   * to another function.  This will be done several times.
   */
  else if (stricmp(option, "Content-Type" ) == 0)
  80229c:	e13ffd17 	ldw	r4,-12(fp)
  8022a0:	01402174 	movhi	r5,133
  8022a4:	296d2d04 	addi	r5,r5,-19276
  8022a8:	08079a00 	call	8079a0 <strcasecmp>
  8022ac:	1004c03a 	cmpne	r2,r2,zero
  8022b0:	10001e1e 	bne	r2,zero,80232c <http_process_headers+0x218>
  {
    /* Determine the end of line for "Content-Type" line. */
    cr_pos = strchr( conn->rx_rd_pos, '\r' );
  8022b4:	e0bffe17 	ldw	r2,-8(fp)
  8022b8:	11000d17 	ldw	r4,52(r2)
  8022bc:	01400344 	movi	r5,13
  8022c0:	0807ae00 	call	807ae0 <strchr>
  8022c4:	e0bffc15 	stw	r2,-16(fp)
    /* Find the length of the string. */
    opt_len = strlen(option);
  8022c8:	e13ffd17 	ldw	r4,-12(fp)
  8022cc:	080837c0 	call	80837c <strlen>
  8022d0:	e0bff515 	stw	r2,-44(fp)
    ct_len = cr_pos - (option + opt_len + 2);
  8022d4:	e13ffc17 	ldw	r4,-16(fp)
  8022d8:	e0bff517 	ldw	r2,-44(fp)
  8022dc:	1007883a 	mov	r3,r2
  8022e0:	e0bffd17 	ldw	r2,-12(fp)
  8022e4:	1885883a 	add	r2,r3,r2
  8022e8:	2085c83a 	sub	r2,r4,r2
  8022ec:	10bfff84 	addi	r2,r2,-2
  8022f0:	e0bff615 	stw	r2,-40(fp)
    /* Calculate the start of the string. */
    ct_start = cr_pos - ct_len;
  8022f4:	e0bff617 	ldw	r2,-40(fp)
  8022f8:	1007883a 	mov	r3,r2
  8022fc:	e0bffc17 	ldw	r2,-16(fp)
  802300:	10c5c83a 	sub	r2,r2,r3
  802304:	e0bffb15 	stw	r2,-20(fp)
    /* Pass the start of the string and the size of the string to 
     * a function.
     */
    if( (http_parse_type_boundary( conn, ct_start, ct_len ) < 0) )
  802308:	e13ffe17 	ldw	r4,-8(fp)
  80230c:	e17ffb17 	ldw	r5,-20(fp)
  802310:	e1bff617 	ldw	r6,-40(fp)
  802314:	08020280 	call	802028 <http_parse_type_boundary>
  802318:	1004403a 	cmpge	r2,r2,zero
  80231c:	1000031e 	bne	r2,zero,80232c <http_process_headers+0x218>
    {
      /* Something failed...return a negative value. */
      return -1;
  802320:	00bfffc4 	movi	r2,-1
  802324:	e0bfff15 	stw	r2,-4(fp)
  802328:	00000106 	br	802330 <http_process_headers+0x21c>
    }
  }
  return 0;
  80232c:	e03fff15 	stw	zero,-4(fp)
  802330:	e0bfff17 	ldw	r2,-4(fp)
}
  802334:	e037883a 	mov	sp,fp
  802338:	dfc00117 	ldw	ra,4(sp)
  80233c:	df000017 	ldw	fp,0(sp)
  802340:	dec00204 	addi	sp,sp,8
  802344:	f800283a 	ret

00802348 <http_process_request>:
 * This routine parses the beginnings of an HTTP request to extract the
 * command, version, and URI. Unsupported commands/versions/etc. will cause
 * us to error out drop the connection.
 */
int http_process_request(http_conn* conn)
{
  802348:	defff904 	addi	sp,sp,-28
  80234c:	dfc00615 	stw	ra,24(sp)
  802350:	df000515 	stw	fp,20(sp)
  802354:	df000504 	addi	fp,sp,20
  802358:	e13ffe15 	stw	r4,-8(fp)
  char* uri = 0;
  80235c:	e03ffd15 	stw	zero,-12(fp)
  char* version = 0;
  802360:	e03ffc15 	stw	zero,-16(fp)
  char* temp = 0;
  802364:	e03ffb15 	stw	zero,-20(fp)
  if( (temp = strstr(conn->rx_rd_pos, "GET")) )
  802368:	e0bffe17 	ldw	r2,-8(fp)
  80236c:	11000d17 	ldw	r4,52(r2)
  802370:	01402174 	movhi	r5,133
  802374:	296d3104 	addi	r5,r5,-19260
  802378:	08086d00 	call	8086d0 <strstr>
  80237c:	e0bffb15 	stw	r2,-20(fp)
  802380:	e0bffb17 	ldw	r2,-20(fp)
  802384:	1005003a 	cmpeq	r2,r2,zero
  802388:	1000071e 	bne	r2,zero,8023a8 <http_process_request+0x60>
  {
    conn->action = GET;
  80238c:	e0fffe17 	ldw	r3,-8(fp)
  802390:	00800044 	movi	r2,1
  802394:	18800115 	stw	r2,4(r3)
    conn->rx_rd_pos = temp;
  802398:	e0fffe17 	ldw	r3,-8(fp)
  80239c:	e0bffb17 	ldw	r2,-20(fp)
  8023a0:	18800d15 	stw	r2,52(r3)
  8023a4:	00001e06 	br	802420 <http_process_request+0xd8>
  }
  else if( (temp = strstr(conn->rx_rd_pos, "POST")) )
  8023a8:	e0bffe17 	ldw	r2,-8(fp)
  8023ac:	11000d17 	ldw	r4,52(r2)
  8023b0:	01402174 	movhi	r5,133
  8023b4:	296d3204 	addi	r5,r5,-19256
  8023b8:	08086d00 	call	8086d0 <strstr>
  8023bc:	e0bffb15 	stw	r2,-20(fp)
  8023c0:	e0bffb17 	ldw	r2,-20(fp)
  8023c4:	1005003a 	cmpeq	r2,r2,zero
  8023c8:	1000071e 	bne	r2,zero,8023e8 <http_process_request+0xa0>
  {
    conn->action = POST;
  8023cc:	e0fffe17 	ldw	r3,-8(fp)
  8023d0:	00800084 	movi	r2,2
  8023d4:	18800115 	stw	r2,4(r3)
    conn->rx_rd_pos = temp;
  8023d8:	e0fffe17 	ldw	r3,-8(fp)
  8023dc:	e0bffb17 	ldw	r2,-20(fp)
  8023e0:	18800d15 	stw	r2,52(r3)
  8023e4:	00000e06 	br	802420 <http_process_request+0xd8>
  }
  else
  {
    fprintf(stderr, "Unsupported (for now) request\n");
  8023e8:	00802174 	movhi	r2,133
  8023ec:	10826704 	addi	r2,r2,2460
  8023f0:	10800017 	ldw	r2,0(r2)
  8023f4:	11c00317 	ldw	r7,12(r2)
  8023f8:	01002174 	movhi	r4,133
  8023fc:	212d3404 	addi	r4,r4,-19248
  802400:	01400044 	movi	r5,1
  802404:	01800784 	movi	r6,30
  802408:	08066cc0 	call	8066cc <fwrite>
    conn->action = UNKNOWN;
  80240c:	e0bffe17 	ldw	r2,-8(fp)
  802410:	10000115 	stw	zero,4(r2)
    return -1;
  802414:	00bfffc4 	movi	r2,-1
  802418:	e0bfff15 	stw	r2,-4(fp)
  80241c:	00008106 	br	802624 <http_process_request+0x2dc>
  }
  
  /* First space char separates action from URI */
  if( (conn->rx_rd_pos = strchr(conn->rx_rd_pos, ' ')) )
  802420:	e0bffe17 	ldw	r2,-8(fp)
  802424:	11000d17 	ldw	r4,52(r2)
  802428:	01400804 	movi	r5,32
  80242c:	0807ae00 	call	807ae0 <strchr>
  802430:	1007883a 	mov	r3,r2
  802434:	e0bffe17 	ldw	r2,-8(fp)
  802438:	10c00d15 	stw	r3,52(r2)
  80243c:	e0bffe17 	ldw	r2,-8(fp)
  802440:	10800d17 	ldw	r2,52(r2)
  802444:	1005003a 	cmpeq	r2,r2,zero
  802448:	1000141e 	bne	r2,zero,80249c <http_process_request+0x154>
  {
    conn->rx_rd_pos++;
  80244c:	e0bffe17 	ldw	r2,-8(fp)
  802450:	10800d17 	ldw	r2,52(r2)
  802454:	10c00044 	addi	r3,r2,1
  802458:	e0bffe17 	ldw	r2,-8(fp)
  80245c:	10c00d15 	stw	r3,52(r2)
    uri = conn->rx_rd_pos;
  802460:	e0bffe17 	ldw	r2,-8(fp)
  802464:	10800d17 	ldw	r2,52(r2)
  802468:	e0bffd15 	stw	r2,-12(fp)
  {
    return -1;
  }
    
  /* Second space char separates URI from HTTP version. */
  if( (conn->rx_rd_pos = strchr(conn->rx_rd_pos, ' ')) )
  80246c:	e0bffe17 	ldw	r2,-8(fp)
  802470:	11000d17 	ldw	r4,52(r2)
  802474:	01400804 	movi	r5,32
  802478:	0807ae00 	call	807ae0 <strchr>
  80247c:	1007883a 	mov	r3,r2
  802480:	e0bffe17 	ldw	r2,-8(fp)
  802484:	10c00d15 	stw	r3,52(r2)
  802488:	e0bffe17 	ldw	r2,-8(fp)
  80248c:	10800d17 	ldw	r2,52(r2)
  802490:	1004c03a 	cmpne	r2,r2,zero
  802494:	1000041e 	bne	r2,zero,8024a8 <http_process_request+0x160>
  802498:	00001206 	br	8024e4 <http_process_request+0x19c>
    conn->rx_rd_pos++;
    uri = conn->rx_rd_pos;
  }
  else
  {
    return -1;
  80249c:	00bfffc4 	movi	r2,-1
  8024a0:	e0bfff15 	stw	r2,-4(fp)
  8024a4:	00005f06 	br	802624 <http_process_request+0x2dc>
  }
    
  /* Second space char separates URI from HTTP version. */
  if( (conn->rx_rd_pos = strchr(conn->rx_rd_pos, ' ')) )
  {
    *conn->rx_rd_pos = 0;
  8024a8:	e0bffe17 	ldw	r2,-8(fp)
  8024ac:	10800d17 	ldw	r2,52(r2)
  8024b0:	10000005 	stb	zero,0(r2)
    conn->rx_rd_pos++;
  8024b4:	e0bffe17 	ldw	r2,-8(fp)
  8024b8:	10800d17 	ldw	r2,52(r2)
  8024bc:	10c00044 	addi	r3,r2,1
  8024c0:	e0bffe17 	ldw	r2,-8(fp)
  8024c4:	10c00d15 	stw	r3,52(r2)
    version = conn->rx_rd_pos;
  8024c8:	e0bffe17 	ldw	r2,-8(fp)
  8024cc:	10800d17 	ldw	r2,52(r2)
  8024d0:	e0bffc15 	stw	r2,-16(fp)
  {
    return -1;
  }
  
  /* Is this an HTTP version we support? */
  if ((version == NULL) || (strncmp(version, "HTTP/", 5) != 0))
  8024d4:	e0bffc17 	ldw	r2,-16(fp)
  8024d8:	1005003a 	cmpeq	r2,r2,zero
  8024dc:	10000b1e 	bne	r2,zero,80250c <http_process_request+0x1c4>
  8024e0:	00000306 	br	8024f0 <http_process_request+0x1a8>
    conn->rx_rd_pos++;
    version = conn->rx_rd_pos;
  }
  else
  {
    return -1;
  8024e4:	00bfffc4 	movi	r2,-1
  8024e8:	e0bfff15 	stw	r2,-4(fp)
  8024ec:	00004d06 	br	802624 <http_process_request+0x2dc>
  }
  
  /* Is this an HTTP version we support? */
  if ((version == NULL) || (strncmp(version, "HTTP/", 5) != 0))
  8024f0:	e13ffc17 	ldw	r4,-16(fp)
  8024f4:	01402174 	movhi	r5,133
  8024f8:	296d3c04 	addi	r5,r5,-19216
  8024fc:	01800144 	movi	r6,5
  802500:	08083f00 	call	8083f0 <strncmp>
  802504:	1005003a 	cmpeq	r2,r2,zero
  802508:	1000031e 	bne	r2,zero,802518 <http_process_request+0x1d0>
  {
    return -1;
  80250c:	00bfffc4 	movi	r2,-1
  802510:	e0bfff15 	stw	r2,-4(fp)
  802514:	00004306 	br	802624 <http_process_request+0x2dc>
  }

  if (!isdigit(version[5]) || version[6] != '.' || !isdigit(version[7]))
  802518:	e0bffc17 	ldw	r2,-16(fp)
  80251c:	10800144 	addi	r2,r2,5
  802520:	10800003 	ldbu	r2,0(r2)
  802524:	10803fcc 	andi	r2,r2,255
  802528:	1080201c 	xori	r2,r2,128
  80252c:	10bfe004 	addi	r2,r2,-128
  802530:	1007883a 	mov	r3,r2
  802534:	00802174 	movhi	r2,133
  802538:	10826604 	addi	r2,r2,2456
  80253c:	10800017 	ldw	r2,0(r2)
  802540:	1885883a 	add	r2,r3,r2
  802544:	10800003 	ldbu	r2,0(r2)
  802548:	10803fcc 	andi	r2,r2,255
  80254c:	1080010c 	andi	r2,r2,4
  802550:	1005003a 	cmpeq	r2,r2,zero
  802554:	1000181e 	bne	r2,zero,8025b8 <http_process_request+0x270>
  802558:	e0bffc17 	ldw	r2,-16(fp)
  80255c:	10800184 	addi	r2,r2,6
  802560:	10800003 	ldbu	r2,0(r2)
  802564:	10803fcc 	andi	r2,r2,255
  802568:	1080201c 	xori	r2,r2,128
  80256c:	10bfe004 	addi	r2,r2,-128
  802570:	10800b98 	cmpnei	r2,r2,46
  802574:	1000101e 	bne	r2,zero,8025b8 <http_process_request+0x270>
  802578:	e0bffc17 	ldw	r2,-16(fp)
  80257c:	108001c4 	addi	r2,r2,7
  802580:	10800003 	ldbu	r2,0(r2)
  802584:	10803fcc 	andi	r2,r2,255
  802588:	1080201c 	xori	r2,r2,128
  80258c:	10bfe004 	addi	r2,r2,-128
  802590:	1007883a 	mov	r3,r2
  802594:	00802174 	movhi	r2,133
  802598:	10826604 	addi	r2,r2,2456
  80259c:	10800017 	ldw	r2,0(r2)
  8025a0:	1885883a 	add	r2,r3,r2
  8025a4:	10800003 	ldbu	r2,0(r2)
  8025a8:	10803fcc 	andi	r2,r2,255
  8025ac:	1080010c 	andi	r2,r2,4
  8025b0:	1004c03a 	cmpne	r2,r2,zero
  8025b4:	1000031e 	bne	r2,zero,8025c4 <http_process_request+0x27c>
  {
    return -1;
  8025b8:	00bfffc4 	movi	r2,-1
  8025bc:	e0bfff15 	stw	r2,-4(fp)
  8025c0:	00001806 	br	802624 <http_process_request+0x2dc>
  }

  /* Before v1.1 we close the connection after responding to the request */
  if ( (((version[5] - '0')*10) + version[7] - '0') < 11)
  8025c4:	e0bffc17 	ldw	r2,-16(fp)
  8025c8:	10800144 	addi	r2,r2,5
  8025cc:	10800003 	ldbu	r2,0(r2)
  8025d0:	10803fcc 	andi	r2,r2,255
  8025d4:	1080201c 	xori	r2,r2,128
  8025d8:	10bfe004 	addi	r2,r2,-128
  8025dc:	10c002a4 	muli	r3,r2,10
  8025e0:	e0bffc17 	ldw	r2,-16(fp)
  8025e4:	108001c4 	addi	r2,r2,7
  8025e8:	10800003 	ldbu	r2,0(r2)
  8025ec:	10803fcc 	andi	r2,r2,255
  8025f0:	1080201c 	xori	r2,r2,128
  8025f4:	10bfe004 	addi	r2,r2,-128
  8025f8:	1885883a 	add	r2,r3,r2
  8025fc:	108086c8 	cmpgei	r2,r2,539
  802600:	1000031e 	bne	r2,zero,802610 <http_process_request+0x2c8>
  {
    conn->close = 1;
  802604:	e0fffe17 	ldw	r3,-8(fp)
  802608:	00800044 	movi	r2,1
  80260c:	18800415 	stw	r2,16(r3)
  }

  strcpy(conn->uri, uri);
  802610:	e0bffe17 	ldw	r2,-8(fp)
  802614:	11007604 	addi	r4,r2,472
  802618:	e17ffd17 	ldw	r5,-12(fp)
  80261c:	0807c7c0 	call	807c7c <strcpy>
  return 0;
  802620:	e03fff15 	stw	zero,-4(fp)
  802624:	e0bfff17 	ldw	r2,-4(fp)
}
  802628:	e037883a 	mov	sp,fp
  80262c:	dfc00117 	ldw	ra,4(sp)
  802630:	df000017 	ldw	fp,0(sp)
  802634:	dec00204 	addi	sp,sp,8
  802638:	f800283a 	ret

0080263c <http_send_file_chunk>:
 * repeatedly until the file is completely sent, at which time the connection
 * state will go to "COMPLETE". Doing this rather than sending the entire
 * file allows us (in part) to multiplex between connections "simultaneously".
 */
int http_send_file_chunk(http_conn* conn)
{
  80263c:	defff504 	addi	sp,sp,-44
  802640:	dfc00a15 	stw	ra,40(sp)
  802644:	df000915 	stw	fp,36(sp)
  802648:	df000904 	addi	fp,sp,36
  80264c:	e13ffc15 	stw	r4,-16(fp)
  int chunk_sent = 0, ret_code = 0, file_chunk_size = 0, result = 0;
  802650:	e03ffb15 	stw	zero,-20(fp)
  802654:	e03ffa15 	stw	zero,-24(fp)
  802658:	e03ff915 	stw	zero,-28(fp)
  80265c:	e03ff815 	stw	zero,-32(fp)
  char* tx_ptr;
  
  if(conn->data_sent < conn->file_length)
  802660:	e0bffc17 	ldw	r2,-16(fp)
  802664:	10c00917 	ldw	r3,36(r2)
  802668:	e0bffc17 	ldw	r2,-16(fp)
  80266c:	10800817 	ldw	r2,32(r2)
  802670:	18804d0e 	bge	r3,r2,8027a8 <http_send_file_chunk+0x16c>
  {
    file_chunk_size = fread(conn->tx_buffer, 1, 
  802674:	e0bffc17 	ldw	r2,-16(fp)
  802678:	10801217 	ldw	r2,72(r2)
  80267c:	e0bfff15 	stw	r2,-4(fp)
  802680:	e0bffc17 	ldw	r2,-16(fp)
  802684:	10c00817 	ldw	r3,32(r2)
  802688:	e0bffc17 	ldw	r2,-16(fp)
  80268c:	10800917 	ldw	r2,36(r2)
  802690:	1885c83a 	sub	r2,r3,r2
  802694:	e0bffe15 	stw	r2,-8(fp)
  802698:	e0fffe17 	ldw	r3,-8(fp)
  80269c:	18880050 	cmplti	r2,r3,8193
  8026a0:	1000021e 	bne	r2,zero,8026ac <http_send_file_chunk+0x70>
  8026a4:	00880004 	movi	r2,8192
  8026a8:	e0bffe15 	stw	r2,-8(fp)
  8026ac:	e1bffe17 	ldw	r6,-8(fp)
  8026b0:	e0bffc17 	ldw	r2,-16(fp)
  8026b4:	11c00b17 	ldw	r7,44(r2)
  8026b8:	e13fff17 	ldw	r4,-4(fp)
  8026bc:	01400044 	movi	r5,1
  8026c0:	0805a500 	call	805a50 <fread>
  8026c4:	e0bff915 	stw	r2,-28(fp)
      MIN(HTTP_TX_BUF_SIZE, (conn->file_length - conn->data_sent)), 
      conn->file_handle);
    
    tx_ptr = conn->tx_buffer;
  8026c8:	e0bffc17 	ldw	r2,-16(fp)
  8026cc:	10801217 	ldw	r2,72(r2)
  8026d0:	e0bff715 	stw	r2,-36(fp)
    
    while(chunk_sent < file_chunk_size)
  8026d4:	00003106 	br	80279c <http_send_file_chunk+0x160>
    {
      result = send(conn->fd, tx_ptr, file_chunk_size, 0);
  8026d8:	e0bffc17 	ldw	r2,-16(fp)
  8026dc:	11000317 	ldw	r4,12(r2)
  8026e0:	e17ff717 	ldw	r5,-36(fp)
  8026e4:	e1bff917 	ldw	r6,-28(fp)
  8026e8:	000f883a 	mov	r7,zero
  8026ec:	082eb600 	call	82eb60 <t_send>
  8026f0:	e0bff815 	stw	r2,-32(fp)
      
      /* Error - get out of here! */
      if(result < 0)
  8026f4:	e0bff817 	ldw	r2,-32(fp)
  8026f8:	1004403a 	cmpge	r2,r2,zero
  8026fc:	10000e1e 	bne	r2,zero,802738 <http_send_file_chunk+0xfc>
      {
        fprintf(stderr, "[http_send_file] file send returned %d\n", result);
  802700:	00802174 	movhi	r2,133
  802704:	10826704 	addi	r2,r2,2460
  802708:	10800017 	ldw	r2,0(r2)
  80270c:	11000317 	ldw	r4,12(r2)
  802710:	01402174 	movhi	r5,133
  802714:	296d3e04 	addi	r5,r5,-19208
  802718:	e1bff817 	ldw	r6,-32(fp)
  80271c:	08057f40 	call	8057f4 <fprintf>
        ALT_DEBUG_ASSERT(1);
        conn->state = RESET;
  802720:	e0fffc17 	ldw	r3,-16(fp)
  802724:	00800104 	movi	r2,4
  802728:	18800015 	stw	r2,0(r3)
        return result;
  80272c:	e0fff817 	ldw	r3,-32(fp)
  802730:	e0fffd15 	stw	r3,-12(fp)
  802734:	00002606 	br	8027d0 <http_send_file_chunk+0x194>
  802738:	00802174 	movhi	r2,133
  80273c:	1082cc04 	addi	r2,r2,2864
  802740:	10800017 	ldw	r2,0(r2)
  802744:	1007883a 	mov	r3,r2
      /*
       * No errors, but the number of bytes sent might be less than we wanted.
       */
      else
      {
        conn->activity_time = alt_nticks();
  802748:	e0bffc17 	ldw	r2,-16(fp)
  80274c:	10c00c15 	stw	r3,48(r2)
        chunk_sent += result;
  802750:	e0fffb17 	ldw	r3,-20(fp)
  802754:	e0bff817 	ldw	r2,-32(fp)
  802758:	1885883a 	add	r2,r3,r2
  80275c:	e0bffb15 	stw	r2,-20(fp)
        conn->data_sent += result;
  802760:	e0bffc17 	ldw	r2,-16(fp)
  802764:	10c00917 	ldw	r3,36(r2)
  802768:	e0bff817 	ldw	r2,-32(fp)
  80276c:	1887883a 	add	r3,r3,r2
  802770:	e0bffc17 	ldw	r2,-16(fp)
  802774:	10c00915 	stw	r3,36(r2)
        tx_ptr += result;
  802778:	e0bff817 	ldw	r2,-32(fp)
  80277c:	1007883a 	mov	r3,r2
  802780:	e0bff717 	ldw	r2,-36(fp)
  802784:	10c5883a 	add	r2,r2,r3
  802788:	e0bff715 	stw	r2,-36(fp)
        file_chunk_size -= result;
  80278c:	e0fff917 	ldw	r3,-28(fp)
  802790:	e0bff817 	ldw	r2,-32(fp)
  802794:	1885c83a 	sub	r2,r3,r2
  802798:	e0bff915 	stw	r2,-28(fp)
      MIN(HTTP_TX_BUF_SIZE, (conn->file_length - conn->data_sent)), 
      conn->file_handle);
    
    tx_ptr = conn->tx_buffer;
    
    while(chunk_sent < file_chunk_size)
  80279c:	e0fffb17 	ldw	r3,-20(fp)
  8027a0:	e0bff917 	ldw	r2,-28(fp)
  8027a4:	18bfcc16 	blt	r3,r2,8026d8 <http_send_file_chunk+0x9c>
  
  /* 
   * We managed to send all of the file contents to the IP stack successfully.
   * At this point we can mark our connection info as complete.
   */
  if(conn->data_sent >= conn->file_length)
  8027a8:	e0bffc17 	ldw	r2,-16(fp)
  8027ac:	10c00917 	ldw	r3,36(r2)
  8027b0:	e0bffc17 	ldw	r2,-16(fp)
  8027b4:	10800817 	ldw	r2,32(r2)
  8027b8:	18800316 	blt	r3,r2,8027c8 <http_send_file_chunk+0x18c>
  {
    conn->state = COMPLETE;
  8027bc:	e0fffc17 	ldw	r3,-16(fp)
  8027c0:	008000c4 	movi	r2,3
  8027c4:	18800015 	stw	r2,0(r3)
  }

  return ret_code;
  8027c8:	e0bffa17 	ldw	r2,-24(fp)
  8027cc:	e0bffd15 	stw	r2,-12(fp)
  8027d0:	e0bffd17 	ldw	r2,-12(fp)
}
  8027d4:	e037883a 	mov	sp,fp
  8027d8:	dfc00117 	ldw	ra,4(sp)
  8027dc:	df000017 	ldw	fp,0(sp)
  8027e0:	dec00204 	addi	sp,sp,8
  8027e4:	f800283a 	ret

008027e8 <http_send_file_header>:
 *
 * Construct and send an HTTP header describing the now-opened file that is
 * about to be sent to the client.
 */
int http_send_file_header(http_conn* conn, const char* name, int code)
{
  8027e8:	defff304 	addi	sp,sp,-52
  8027ec:	dfc00c15 	stw	ra,48(sp)
  8027f0:	df000b15 	stw	fp,44(sp)
  8027f4:	df000b04 	addi	fp,sp,44
  8027f8:	e13ffb15 	stw	r4,-20(fp)
  8027fc:	e17ffc15 	stw	r5,-16(fp)
  802800:	e1bffd15 	stw	r6,-12(fp)
  int     result = 0, ret_code = 0;
  802804:	e03ff815 	stw	zero,-32(fp)
  802808:	e03ff715 	stw	zero,-36(fp)
  char* tx_wr_pos = conn->tx_buffer;
  80280c:	e0bffb17 	ldw	r2,-20(fp)
  802810:	10801217 	ldw	r2,72(r2)
  802814:	e0bff615 	stw	r2,-40(fp)
  fpos_t  end, start;
  const char* ext = strchr(name, '.');
  802818:	e13ffc17 	ldw	r4,-16(fp)
  80281c:	01400b84 	movi	r5,46
  802820:	0807ae00 	call	807ae0 <strchr>
  802824:	e0bff515 	stw	r2,-44(fp)

  tx_wr_pos += sprintf(tx_wr_pos, HTTP_VERSION_STRING);
  802828:	e0fff617 	ldw	r3,-40(fp)
  80282c:	00801204 	movi	r2,72
  802830:	18800005 	stb	r2,0(r3)
  802834:	00801504 	movi	r2,84
  802838:	18800045 	stb	r2,1(r3)
  80283c:	00801504 	movi	r2,84
  802840:	18800085 	stb	r2,2(r3)
  802844:	00801404 	movi	r2,80
  802848:	188000c5 	stb	r2,3(r3)
  80284c:	00800bc4 	movi	r2,47
  802850:	18800105 	stb	r2,4(r3)
  802854:	00800c44 	movi	r2,49
  802858:	18800145 	stb	r2,5(r3)
  80285c:	00800b84 	movi	r2,46
  802860:	18800185 	stb	r2,6(r3)
  802864:	00800c44 	movi	r2,49
  802868:	188001c5 	stb	r2,7(r3)
  80286c:	00800804 	movi	r2,32
  802870:	18800205 	stb	r2,8(r3)
  802874:	18000245 	stb	zero,9(r3)
  802878:	e0bff617 	ldw	r2,-40(fp)
  80287c:	10800244 	addi	r2,r2,9
  802880:	e0bff615 	stw	r2,-40(fp)

  switch(code)
  802884:	e0bffd17 	ldw	r2,-12(fp)
  802888:	e0bfff15 	stw	r2,-4(fp)
  80288c:	e0ffff17 	ldw	r3,-4(fp)
  802890:	18803220 	cmpeqi	r2,r3,200
  802894:	1000041e 	bne	r2,zero,8028a8 <http_send_file_header+0xc0>
  802898:	e0ffff17 	ldw	r3,-4(fp)
  80289c:	18806520 	cmpeqi	r2,r3,404
  8028a0:	1000171e 	bne	r2,zero,802900 <http_send_file_header+0x118>
  8028a4:	00002106 	br	80292c <http_send_file_header+0x144>
  {
    /* HTTP Code: "200 OK\r\n" (we have opened the file successfully) */
    case HTTP_OK:
    {
      tx_wr_pos += sprintf(tx_wr_pos, HTTP_OK_STRING);
  8028a8:	e0fff617 	ldw	r3,-40(fp)
  8028ac:	00800c84 	movi	r2,50
  8028b0:	18800005 	stb	r2,0(r3)
  8028b4:	00800c04 	movi	r2,48
  8028b8:	18800045 	stb	r2,1(r3)
  8028bc:	00800c04 	movi	r2,48
  8028c0:	18800085 	stb	r2,2(r3)
  8028c4:	00800804 	movi	r2,32
  8028c8:	188000c5 	stb	r2,3(r3)
  8028cc:	008013c4 	movi	r2,79
  8028d0:	18800105 	stb	r2,4(r3)
  8028d4:	008012c4 	movi	r2,75
  8028d8:	18800145 	stb	r2,5(r3)
  8028dc:	00800344 	movi	r2,13
  8028e0:	18800185 	stb	r2,6(r3)
  8028e4:	00800284 	movi	r2,10
  8028e8:	188001c5 	stb	r2,7(r3)
  8028ec:	18000205 	stb	zero,8(r3)
  8028f0:	e0bff617 	ldw	r2,-40(fp)
  8028f4:	10800204 	addi	r2,r2,8
  8028f8:	e0bff615 	stw	r2,-40(fp)
      break;
  8028fc:	00001906 	br	802964 <http_send_file_header+0x17c>
    }
    /* HTTP Code: "404 Not Found\r\n" (couldn't find requested file) */
    case HTTP_NOT_FOUND:
    {
      tx_wr_pos += sprintf(tx_wr_pos, HTTP_NOT_FOUND_STRING);
  802900:	e0bff617 	ldw	r2,-40(fp)
  802904:	00c02174 	movhi	r3,133
  802908:	18ed4804 	addi	r3,r3,-19168
  80290c:	1009883a 	mov	r4,r2
  802910:	180b883a 	mov	r5,r3
  802914:	01800404 	movi	r6,16
  802918:	0806fe00 	call	806fe0 <memcpy>
  80291c:	e0bff617 	ldw	r2,-40(fp)
  802920:	108003c4 	addi	r2,r2,15
  802924:	e0bff615 	stw	r2,-40(fp)
      break;
  802928:	00000e06 	br	802964 <http_send_file_header+0x17c>
    }
    default:
    {
      fprintf(stderr, "[http_send_file_header] Invalid HTTP code: %d\n", code);
  80292c:	00802174 	movhi	r2,133
  802930:	10826704 	addi	r2,r2,2460
  802934:	10800017 	ldw	r2,0(r2)
  802938:	11000317 	ldw	r4,12(r2)
  80293c:	01402174 	movhi	r5,133
  802940:	296d4c04 	addi	r5,r5,-19152
  802944:	e1bffd17 	ldw	r6,-12(fp)
  802948:	08057f40 	call	8057f4 <fprintf>
      conn->state = RESET;
  80294c:	e0fffb17 	ldw	r3,-20(fp)
  802950:	00800104 	movi	r2,4
  802954:	18800015 	stw	r2,0(r3)
      return -1;
  802958:	00bfffc4 	movi	r2,-1
  80295c:	e0bffe15 	stw	r2,-8(fp)
  802960:	00016b06 	br	802f10 <http_send_file_header+0x728>
      break;
    }
  }

  /* Handle the various content types */
  tx_wr_pos += sprintf(tx_wr_pos, HTTP_CONTENT_TYPE);
  802964:	e0bff617 	ldw	r2,-40(fp)
  802968:	00c02174 	movhi	r3,133
  80296c:	18ed5804 	addi	r3,r3,-19104
  802970:	1009883a 	mov	r4,r2
  802974:	180b883a 	mov	r5,r3
  802978:	018003c4 	movi	r6,15
  80297c:	0806fe00 	call	806fe0 <memcpy>
  802980:	e0bff617 	ldw	r2,-40(fp)
  802984:	10800384 	addi	r2,r2,14
  802988:	e0bff615 	stw	r2,-40(fp)

  if (!strcasecmp(ext, ".html"))
  80298c:	e13ff517 	ldw	r4,-44(fp)
  802990:	01402174 	movhi	r5,133
  802994:	296d5c04 	addi	r5,r5,-19088
  802998:	08079a00 	call	8079a0 <strcasecmp>
  80299c:	1004c03a 	cmpne	r2,r2,zero
  8029a0:	10001c1e 	bne	r2,zero,802a14 <http_send_file_header+0x22c>
  {
    tx_wr_pos += sprintf(tx_wr_pos, HTTP_CONTENT_TYPE_HTML);
  8029a4:	e0fff617 	ldw	r3,-40(fp)
  8029a8:	00801d04 	movi	r2,116
  8029ac:	18800005 	stb	r2,0(r3)
  8029b0:	00801944 	movi	r2,101
  8029b4:	18800045 	stb	r2,1(r3)
  8029b8:	00801e04 	movi	r2,120
  8029bc:	18800085 	stb	r2,2(r3)
  8029c0:	00801d04 	movi	r2,116
  8029c4:	188000c5 	stb	r2,3(r3)
  8029c8:	00800bc4 	movi	r2,47
  8029cc:	18800105 	stb	r2,4(r3)
  8029d0:	00801a04 	movi	r2,104
  8029d4:	18800145 	stb	r2,5(r3)
  8029d8:	00801d04 	movi	r2,116
  8029dc:	18800185 	stb	r2,6(r3)
  8029e0:	00801b44 	movi	r2,109
  8029e4:	188001c5 	stb	r2,7(r3)
  8029e8:	00801b04 	movi	r2,108
  8029ec:	18800205 	stb	r2,8(r3)
  8029f0:	00800344 	movi	r2,13
  8029f4:	18800245 	stb	r2,9(r3)
  8029f8:	00800284 	movi	r2,10
  8029fc:	18800285 	stb	r2,10(r3)
  802a00:	180002c5 	stb	zero,11(r3)
  802a04:	e0bff617 	ldw	r2,-40(fp)
  802a08:	108002c4 	addi	r2,r2,11
  802a0c:	e0bff615 	stw	r2,-40(fp)
  802a10:	0000c706 	br	802d30 <http_send_file_header+0x548>
  }
  else if (!strcasecmp(ext, ".jpg"))
  802a14:	e13ff517 	ldw	r4,-44(fp)
  802a18:	01402174 	movhi	r5,133
  802a1c:	296d5e04 	addi	r5,r5,-19080
  802a20:	08079a00 	call	8079a0 <strcasecmp>
  802a24:	1004c03a 	cmpne	r2,r2,zero
  802a28:	10001c1e 	bne	r2,zero,802a9c <http_send_file_header+0x2b4>
  {
    tx_wr_pos += sprintf(tx_wr_pos, HTTP_CONTENT_TYPE_JPG);
  802a2c:	e0fff617 	ldw	r3,-40(fp)
  802a30:	00801a44 	movi	r2,105
  802a34:	18800005 	stb	r2,0(r3)
  802a38:	00801b44 	movi	r2,109
  802a3c:	18800045 	stb	r2,1(r3)
  802a40:	00801844 	movi	r2,97
  802a44:	18800085 	stb	r2,2(r3)
  802a48:	008019c4 	movi	r2,103
  802a4c:	188000c5 	stb	r2,3(r3)
  802a50:	00801944 	movi	r2,101
  802a54:	18800105 	stb	r2,4(r3)
  802a58:	00800bc4 	movi	r2,47
  802a5c:	18800145 	stb	r2,5(r3)
  802a60:	00801a84 	movi	r2,106
  802a64:	18800185 	stb	r2,6(r3)
  802a68:	00801c04 	movi	r2,112
  802a6c:	188001c5 	stb	r2,7(r3)
  802a70:	008019c4 	movi	r2,103
  802a74:	18800205 	stb	r2,8(r3)
  802a78:	00800344 	movi	r2,13
  802a7c:	18800245 	stb	r2,9(r3)
  802a80:	00800284 	movi	r2,10
  802a84:	18800285 	stb	r2,10(r3)
  802a88:	180002c5 	stb	zero,11(r3)
  802a8c:	e0bff617 	ldw	r2,-40(fp)
  802a90:	108002c4 	addi	r2,r2,11
  802a94:	e0bff615 	stw	r2,-40(fp)
  802a98:	0000a506 	br	802d30 <http_send_file_header+0x548>
  }
  else if (!strcasecmp(ext, ".gif"))
  802a9c:	e13ff517 	ldw	r4,-44(fp)
  802aa0:	01402174 	movhi	r5,133
  802aa4:	296d6004 	addi	r5,r5,-19072
  802aa8:	08079a00 	call	8079a0 <strcasecmp>
  802aac:	1004c03a 	cmpne	r2,r2,zero
  802ab0:	10001c1e 	bne	r2,zero,802b24 <http_send_file_header+0x33c>
  {
    tx_wr_pos += sprintf(tx_wr_pos, HTTP_CONTENT_TYPE_GIF);
  802ab4:	e0fff617 	ldw	r3,-40(fp)
  802ab8:	00801a44 	movi	r2,105
  802abc:	18800005 	stb	r2,0(r3)
  802ac0:	00801b44 	movi	r2,109
  802ac4:	18800045 	stb	r2,1(r3)
  802ac8:	00801844 	movi	r2,97
  802acc:	18800085 	stb	r2,2(r3)
  802ad0:	008019c4 	movi	r2,103
  802ad4:	188000c5 	stb	r2,3(r3)
  802ad8:	00801944 	movi	r2,101
  802adc:	18800105 	stb	r2,4(r3)
  802ae0:	00800bc4 	movi	r2,47
  802ae4:	18800145 	stb	r2,5(r3)
  802ae8:	008019c4 	movi	r2,103
  802aec:	18800185 	stb	r2,6(r3)
  802af0:	00801a44 	movi	r2,105
  802af4:	188001c5 	stb	r2,7(r3)
  802af8:	00801984 	movi	r2,102
  802afc:	18800205 	stb	r2,8(r3)
  802b00:	00800344 	movi	r2,13
  802b04:	18800245 	stb	r2,9(r3)
  802b08:	00800284 	movi	r2,10
  802b0c:	18800285 	stb	r2,10(r3)
  802b10:	180002c5 	stb	zero,11(r3)
  802b14:	e0bff617 	ldw	r2,-40(fp)
  802b18:	108002c4 	addi	r2,r2,11
  802b1c:	e0bff615 	stw	r2,-40(fp)
  802b20:	00008306 	br	802d30 <http_send_file_header+0x548>
  }
  else if (!strcasecmp(ext, ".png"))
  802b24:	e13ff517 	ldw	r4,-44(fp)
  802b28:	01402174 	movhi	r5,133
  802b2c:	296d6204 	addi	r5,r5,-19064
  802b30:	08079a00 	call	8079a0 <strcasecmp>
  802b34:	1004c03a 	cmpne	r2,r2,zero
  802b38:	10001c1e 	bne	r2,zero,802bac <http_send_file_header+0x3c4>
  {
    tx_wr_pos += sprintf(tx_wr_pos, HTTP_CONTENT_TYPE_PNG);
  802b3c:	e0fff617 	ldw	r3,-40(fp)
  802b40:	00801a44 	movi	r2,105
  802b44:	18800005 	stb	r2,0(r3)
  802b48:	00801b44 	movi	r2,109
  802b4c:	18800045 	stb	r2,1(r3)
  802b50:	00801844 	movi	r2,97
  802b54:	18800085 	stb	r2,2(r3)
  802b58:	008019c4 	movi	r2,103
  802b5c:	188000c5 	stb	r2,3(r3)
  802b60:	00801944 	movi	r2,101
  802b64:	18800105 	stb	r2,4(r3)
  802b68:	00800bc4 	movi	r2,47
  802b6c:	18800145 	stb	r2,5(r3)
  802b70:	00801c04 	movi	r2,112
  802b74:	18800185 	stb	r2,6(r3)
  802b78:	00801b84 	movi	r2,110
  802b7c:	188001c5 	stb	r2,7(r3)
  802b80:	008019c4 	movi	r2,103
  802b84:	18800205 	stb	r2,8(r3)
  802b88:	00800344 	movi	r2,13
  802b8c:	18800245 	stb	r2,9(r3)
  802b90:	00800284 	movi	r2,10
  802b94:	18800285 	stb	r2,10(r3)
  802b98:	180002c5 	stb	zero,11(r3)
  802b9c:	e0bff617 	ldw	r2,-40(fp)
  802ba0:	108002c4 	addi	r2,r2,11
  802ba4:	e0bff615 	stw	r2,-40(fp)
  802ba8:	00006106 	br	802d30 <http_send_file_header+0x548>
  }
  else if (!strcasecmp(ext, ".js"))
  802bac:	e13ff517 	ldw	r4,-44(fp)
  802bb0:	01402174 	movhi	r5,133
  802bb4:	296d6404 	addi	r5,r5,-19056
  802bb8:	08079a00 	call	8079a0 <strcasecmp>
  802bbc:	1004c03a 	cmpne	r2,r2,zero
  802bc0:	10000b1e 	bne	r2,zero,802bf0 <http_send_file_header+0x408>
  {
    tx_wr_pos += sprintf(tx_wr_pos, HTTP_CONTENT_TYPE_JS);
  802bc4:	e0bff617 	ldw	r2,-40(fp)
  802bc8:	00c02174 	movhi	r3,133
  802bcc:	18ed6504 	addi	r3,r3,-19052
  802bd0:	1009883a 	mov	r4,r2
  802bd4:	180b883a 	mov	r5,r3
  802bd8:	018006c4 	movi	r6,27
  802bdc:	0806fe00 	call	806fe0 <memcpy>
  802be0:	e0bff617 	ldw	r2,-40(fp)
  802be4:	10800684 	addi	r2,r2,26
  802be8:	e0bff615 	stw	r2,-40(fp)
  802bec:	00005006 	br	802d30 <http_send_file_header+0x548>
  }
  else if (!strcasecmp(ext, ".css"))
  802bf0:	e13ff517 	ldw	r4,-44(fp)
  802bf4:	01402174 	movhi	r5,133
  802bf8:	296d6c04 	addi	r5,r5,-19024
  802bfc:	08079a00 	call	8079a0 <strcasecmp>
  802c00:	1004c03a 	cmpne	r2,r2,zero
  802c04:	10001a1e 	bne	r2,zero,802c70 <http_send_file_header+0x488>
  {
    tx_wr_pos += sprintf(tx_wr_pos, HTTP_CONTENT_TYPE_CSS);
  802c08:	e0fff617 	ldw	r3,-40(fp)
  802c0c:	00801d04 	movi	r2,116
  802c10:	18800005 	stb	r2,0(r3)
  802c14:	00801944 	movi	r2,101
  802c18:	18800045 	stb	r2,1(r3)
  802c1c:	00801e04 	movi	r2,120
  802c20:	18800085 	stb	r2,2(r3)
  802c24:	00801d04 	movi	r2,116
  802c28:	188000c5 	stb	r2,3(r3)
  802c2c:	00800bc4 	movi	r2,47
  802c30:	18800105 	stb	r2,4(r3)
  802c34:	008018c4 	movi	r2,99
  802c38:	18800145 	stb	r2,5(r3)
  802c3c:	00801cc4 	movi	r2,115
  802c40:	18800185 	stb	r2,6(r3)
  802c44:	00801cc4 	movi	r2,115
  802c48:	188001c5 	stb	r2,7(r3)
  802c4c:	00800344 	movi	r2,13
  802c50:	18800205 	stb	r2,8(r3)
  802c54:	00800284 	movi	r2,10
  802c58:	18800245 	stb	r2,9(r3)
  802c5c:	18000285 	stb	zero,10(r3)
  802c60:	e0bff617 	ldw	r2,-40(fp)
  802c64:	10800284 	addi	r2,r2,10
  802c68:	e0bff615 	stw	r2,-40(fp)
  802c6c:	00003006 	br	802d30 <http_send_file_header+0x548>
  }
  else if (!strcasecmp(ext, ".swf"))
  802c70:	e13ff517 	ldw	r4,-44(fp)
  802c74:	01402174 	movhi	r5,133
  802c78:	296d6e04 	addi	r5,r5,-19016
  802c7c:	08079a00 	call	8079a0 <strcasecmp>
  802c80:	1004c03a 	cmpne	r2,r2,zero
  802c84:	10000b1e 	bne	r2,zero,802cb4 <http_send_file_header+0x4cc>
  {
    tx_wr_pos += sprintf(tx_wr_pos, HTTP_CONTENT_TYPE_SWF);
  802c88:	e0bff617 	ldw	r2,-40(fp)
  802c8c:	00c02174 	movhi	r3,133
  802c90:	18ed7004 	addi	r3,r3,-19008
  802c94:	1009883a 	mov	r4,r2
  802c98:	180b883a 	mov	r5,r3
  802c9c:	01800804 	movi	r6,32
  802ca0:	0806fe00 	call	806fe0 <memcpy>
  802ca4:	e0bff617 	ldw	r2,-40(fp)
  802ca8:	108007c4 	addi	r2,r2,31
  802cac:	e0bff615 	stw	r2,-40(fp)
  802cb0:	00001f06 	br	802d30 <http_send_file_header+0x548>
  }
  else if (!strcasecmp(ext, ".ico"))
  802cb4:	e13ff517 	ldw	r4,-44(fp)
  802cb8:	01402174 	movhi	r5,133
  802cbc:	296d7804 	addi	r5,r5,-18976
  802cc0:	08079a00 	call	8079a0 <strcasecmp>
  802cc4:	1004c03a 	cmpne	r2,r2,zero
  802cc8:	10000b1e 	bne	r2,zero,802cf8 <http_send_file_header+0x510>
  {
    tx_wr_pos += sprintf(tx_wr_pos, HTTP_CONTENT_TYPE_ICO);
  802ccc:	e0bff617 	ldw	r2,-40(fp)
  802cd0:	00c02174 	movhi	r3,133
  802cd4:	18ed7a04 	addi	r3,r3,-18968
  802cd8:	1009883a 	mov	r4,r2
  802cdc:	180b883a 	mov	r5,r3
  802ce0:	018006c4 	movi	r6,27
  802ce4:	0806fe00 	call	806fe0 <memcpy>
  802ce8:	e0bff617 	ldw	r2,-40(fp)
  802cec:	10800684 	addi	r2,r2,26
  802cf0:	e0bff615 	stw	r2,-40(fp)
  802cf4:	00000e06 	br	802d30 <http_send_file_header+0x548>
  }
  else
  {
    fprintf(stderr, "[http_send_file] Unknown content type: \"%s\"\n", ext);
  802cf8:	00802174 	movhi	r2,133
  802cfc:	10826704 	addi	r2,r2,2460
  802d00:	10800017 	ldw	r2,0(r2)
  802d04:	11000317 	ldw	r4,12(r2)
  802d08:	01402174 	movhi	r5,133
  802d0c:	296d8104 	addi	r5,r5,-18940
  802d10:	e1bff517 	ldw	r6,-44(fp)
  802d14:	08057f40 	call	8057f4 <fprintf>
    conn->state = RESET;
  802d18:	e0fffb17 	ldw	r3,-20(fp)
  802d1c:	00800104 	movi	r2,4
  802d20:	18800015 	stw	r2,0(r3)
    ALT_DEBUG_ASSERT(1);
    return -1;
  802d24:	00ffffc4 	movi	r3,-1
  802d28:	e0fffe15 	stw	r3,-8(fp)
  802d2c:	00007806 	br	802f10 <http_send_file_header+0x728>
  }

  /* Get the file length and stash it into our connection info */
  fseek(conn->file_handle, 0, SEEK_END);
  802d30:	e0bffb17 	ldw	r2,-20(fp)
  802d34:	11000b17 	ldw	r4,44(r2)
  802d38:	000b883a 	mov	r5,zero
  802d3c:	01800084 	movi	r6,2
  802d40:	080630c0 	call	80630c <fseek>
  fgetpos(conn->file_handle, &end);
  802d44:	e0bffb17 	ldw	r2,-20(fp)
  802d48:	11000b17 	ldw	r4,44(r2)
  802d4c:	e17ff904 	addi	r5,fp,-28
  802d50:	08054080 	call	805408 <fgetpos>
  fseek(conn->file_handle, 0, SEEK_SET);
  802d54:	e0bffb17 	ldw	r2,-20(fp)
  802d58:	11000b17 	ldw	r4,44(r2)
  802d5c:	000b883a 	mov	r5,zero
  802d60:	000d883a 	mov	r6,zero
  802d64:	080630c0 	call	80630c <fseek>
  fgetpos(conn->file_handle, &start);
  802d68:	e0bffb17 	ldw	r2,-20(fp)
  802d6c:	11000b17 	ldw	r4,44(r2)
  802d70:	e17ffa04 	addi	r5,fp,-24
  802d74:	08054080 	call	805408 <fgetpos>
  conn->file_length = end - start;
  802d78:	e0fff917 	ldw	r3,-28(fp)
  802d7c:	e0bffa17 	ldw	r2,-24(fp)
  802d80:	1887c83a 	sub	r3,r3,r2
  802d84:	e0bffb17 	ldw	r2,-20(fp)
  802d88:	10c00815 	stw	r3,32(r2)

  /* "Content-Length: <length bytes>\r\n" */
  tx_wr_pos += sprintf(tx_wr_pos, HTTP_CONTENT_LENGTH);
  802d8c:	e0bff617 	ldw	r2,-40(fp)
  802d90:	00c02174 	movhi	r3,133
  802d94:	18ed8d04 	addi	r3,r3,-18892
  802d98:	1009883a 	mov	r4,r2
  802d9c:	180b883a 	mov	r5,r3
  802da0:	01800444 	movi	r6,17
  802da4:	0806fe00 	call	806fe0 <memcpy>
  802da8:	e0bff617 	ldw	r2,-40(fp)
  802dac:	10800404 	addi	r2,r2,16
  802db0:	e0bff615 	stw	r2,-40(fp)
  tx_wr_pos += sprintf(tx_wr_pos, "%d\r\n", conn->file_length);
  802db4:	e0bffb17 	ldw	r2,-20(fp)
  802db8:	11800817 	ldw	r6,32(r2)
  802dbc:	e13ff617 	ldw	r4,-40(fp)
  802dc0:	01402174 	movhi	r5,133
  802dc4:	296d9204 	addi	r5,r5,-18872
  802dc8:	080766c0 	call	80766c <sprintf>
  802dcc:	1007883a 	mov	r3,r2
  802dd0:	e0bff617 	ldw	r2,-40(fp)
  802dd4:	10c5883a 	add	r2,r2,r3
  802dd8:	e0bff615 	stw	r2,-40(fp)
   * 
   * We send a specified number of files in a single keep-alive connection,
   * we'll also close the connection. It's best to be polite and tell the client,
   * though.
   */
  if(!conn->keep_alive_count)
  802ddc:	e0bffb17 	ldw	r2,-20(fp)
  802de0:	10800717 	ldw	r2,28(r2)
  802de4:	1004c03a 	cmpne	r2,r2,zero
  802de8:	1000031e 	bne	r2,zero,802df8 <http_send_file_header+0x610>
  {
    conn->close = 1;
  802dec:	e0fffb17 	ldw	r3,-20(fp)
  802df0:	00800044 	movi	r2,1
  802df4:	18800415 	stw	r2,16(r3)
  }
  
  if(conn->close)
  802df8:	e0bffb17 	ldw	r2,-20(fp)
  802dfc:	10800417 	ldw	r2,16(r2)
  802e00:	1005003a 	cmpeq	r2,r2,zero
  802e04:	10000b1e 	bne	r2,zero,802e34 <http_send_file_header+0x64c>
  {
    tx_wr_pos += sprintf(tx_wr_pos, HTTP_CLOSE);
  802e08:	e0bff617 	ldw	r2,-40(fp)
  802e0c:	00c02174 	movhi	r3,133
  802e10:	18ed9404 	addi	r3,r3,-18864
  802e14:	1009883a 	mov	r4,r2
  802e18:	180b883a 	mov	r5,r3
  802e1c:	01800504 	movi	r6,20
  802e20:	0806fe00 	call	806fe0 <memcpy>
  802e24:	e0bff617 	ldw	r2,-40(fp)
  802e28:	108004c4 	addi	r2,r2,19
  802e2c:	e0bff615 	stw	r2,-40(fp)
  802e30:	00000a06 	br	802e5c <http_send_file_header+0x674>
  }
  else
  {
    tx_wr_pos += sprintf(tx_wr_pos, HTTP_KEEP_ALIVE);
  802e34:	e0bff617 	ldw	r2,-40(fp)
  802e38:	00c02174 	movhi	r3,133
  802e3c:	18ed9904 	addi	r3,r3,-18844
  802e40:	1009883a 	mov	r4,r2
  802e44:	180b883a 	mov	r5,r3
  802e48:	01800644 	movi	r6,25
  802e4c:	0806fe00 	call	806fe0 <memcpy>
  802e50:	e0bff617 	ldw	r2,-40(fp)
  802e54:	10800604 	addi	r2,r2,24
  802e58:	e0bff615 	stw	r2,-40(fp)
  }

  /* "\r\n" (two \r\n's in a row means end of headers */
  tx_wr_pos += sprintf(tx_wr_pos, HTTP_CR_LF);
  802e5c:	e0fff617 	ldw	r3,-40(fp)
  802e60:	00800344 	movi	r2,13
  802e64:	18800005 	stb	r2,0(r3)
  802e68:	00800284 	movi	r2,10
  802e6c:	18800045 	stb	r2,1(r3)
  802e70:	18000085 	stb	zero,2(r3)
  802e74:	e0bff617 	ldw	r2,-40(fp)
  802e78:	10800084 	addi	r2,r2,2
  802e7c:	e0bff615 	stw	r2,-40(fp)

  /* Send the reply header */
  result = send(conn->fd, conn->tx_buffer, (tx_wr_pos - conn->tx_buffer), 
  802e80:	e0bffb17 	ldw	r2,-20(fp)
  802e84:	11000317 	ldw	r4,12(r2)
  802e88:	e0bffb17 	ldw	r2,-20(fp)
  802e8c:	11401217 	ldw	r5,72(r2)
  802e90:	e0fff617 	ldw	r3,-40(fp)
  802e94:	e0bffb17 	ldw	r2,-20(fp)
  802e98:	10801217 	ldw	r2,72(r2)
  802e9c:	188dc83a 	sub	r6,r3,r2
  802ea0:	000f883a 	mov	r7,zero
  802ea4:	082eb600 	call	82eb60 <t_send>
  802ea8:	e0bff815 	stw	r2,-32(fp)
                0);  
                
  if(result < 0)
  802eac:	e0bff817 	ldw	r2,-32(fp)
  802eb0:	1004403a 	cmpge	r2,r2,zero
  802eb4:	10000e1e 	bne	r2,zero,802ef0 <http_send_file_header+0x708>
  {
    fprintf(stderr, "[http_send_file] header send returned %d\n", result);
  802eb8:	00802174 	movhi	r2,133
  802ebc:	10826704 	addi	r2,r2,2460
  802ec0:	10800017 	ldw	r2,0(r2)
  802ec4:	11000317 	ldw	r4,12(r2)
  802ec8:	01402174 	movhi	r5,133
  802ecc:	296da004 	addi	r5,r5,-18816
  802ed0:	e1bff817 	ldw	r6,-32(fp)
  802ed4:	08057f40 	call	8057f4 <fprintf>
    conn->state = RESET;
  802ed8:	e0fffb17 	ldw	r3,-20(fp)
  802edc:	00800104 	movi	r2,4
  802ee0:	18800015 	stw	r2,0(r3)
    return result;
  802ee4:	e0bff817 	ldw	r2,-32(fp)
  802ee8:	e0bffe15 	stw	r2,-8(fp)
  802eec:	00000806 	br	802f10 <http_send_file_header+0x728>
  802ef0:	00802174 	movhi	r2,133
  802ef4:	1082cc04 	addi	r2,r2,2864
  802ef8:	10800017 	ldw	r2,0(r2)
  802efc:	1007883a 	mov	r3,r2
  }
  else
  {
    conn->activity_time = alt_nticks();
  802f00:	e0bffb17 	ldw	r2,-20(fp)
  802f04:	10c00c15 	stw	r3,48(r2)
  }
  
  return ret_code;
  802f08:	e0fff717 	ldw	r3,-36(fp)
  802f0c:	e0fffe15 	stw	r3,-8(fp)
  802f10:	e0bffe17 	ldw	r2,-8(fp)
}
  802f14:	e037883a 	mov	sp,fp
  802f18:	dfc00117 	ldw	ra,4(sp)
  802f1c:	df000017 	ldw	fp,0(sp)
  802f20:	dec00204 	addi	sp,sp,8
  802f24:	f800283a 	ret

00802f28 <http_find_file>:
 *
 * Try to find the file requested. If nothing is requested you get /index.html
 * If we can't find it, send a "404 - Not found" message.
 */
int http_find_file(http_conn* conn)
{
  802f28:	deffbb04 	addi	sp,sp,-276
  802f2c:	dfc04415 	stw	ra,272(sp)
  802f30:	df004315 	stw	fp,268(sp)
  802f34:	df004304 	addi	fp,sp,268
  802f38:	e13ffe15 	stw	r4,-8(fp)
  char  filename[256];
  int     ret_code = 0;
  802f3c:	e03fbd15 	stw	zero,-268(fp)

  strncpy( filename, ALTERA_RO_ZIPFS_NAME, strlen(ALTERA_RO_ZIPFS_NAME));
  802f40:	e0ffbe04 	addi	r3,fp,-264
  802f44:	009d1bb4 	movhi	r2,29806
  802f48:	109b4bc4 	addi	r2,r2,27951
  802f4c:	18800015 	stw	r2,0(r3)
  802f50:	009e9bf4 	movhi	r2,31343
  802f54:	109c8bc4 	addi	r2,r2,29231
  802f58:	18800115 	stw	r2,4(r3)
  802f5c:	009cd9b4 	movhi	r2,29542
  802f60:	109c1a44 	addi	r2,r2,28777
  802f64:	18800215 	stw	r2,8(r3)

  /* URI of "/" means get the default, usually index.html */
  if ( (conn->uri[0] == '/') && (conn->uri[1] == '\0') )
  802f68:	e0bffe17 	ldw	r2,-8(fp)
  802f6c:	10807603 	ldbu	r2,472(r2)
  802f70:	10803fcc 	andi	r2,r2,255
  802f74:	1080201c 	xori	r2,r2,128
  802f78:	10bfe004 	addi	r2,r2,-128
  802f7c:	10800bd8 	cmpnei	r2,r2,47
  802f80:	1000211e 	bne	r2,zero,803008 <http_find_file+0xe0>
  802f84:	e0bffe17 	ldw	r2,-8(fp)
  802f88:	10807643 	ldbu	r2,473(r2)
  802f8c:	10803fcc 	andi	r2,r2,255
  802f90:	1080201c 	xori	r2,r2,128
  802f94:	10bfe004 	addi	r2,r2,-128
  802f98:	1004c03a 	cmpne	r2,r2,zero
  802f9c:	10001a1e 	bne	r2,zero,803008 <http_find_file+0xe0>
  {
    strcpy(filename+strlen(ALTERA_RO_ZIPFS_NAME), HTTP_DEFAULT_FILE);
  802fa0:	e0bfbe04 	addi	r2,fp,-264
  802fa4:	10c00304 	addi	r3,r2,12
  802fa8:	00800bc4 	movi	r2,47
  802fac:	18800005 	stb	r2,0(r3)
  802fb0:	00801a44 	movi	r2,105
  802fb4:	18800045 	stb	r2,1(r3)
  802fb8:	00801b84 	movi	r2,110
  802fbc:	18800085 	stb	r2,2(r3)
  802fc0:	00801904 	movi	r2,100
  802fc4:	188000c5 	stb	r2,3(r3)
  802fc8:	00801944 	movi	r2,101
  802fcc:	18800105 	stb	r2,4(r3)
  802fd0:	00801e04 	movi	r2,120
  802fd4:	18800145 	stb	r2,5(r3)
  802fd8:	00800b84 	movi	r2,46
  802fdc:	18800185 	stb	r2,6(r3)
  802fe0:	00801a04 	movi	r2,104
  802fe4:	188001c5 	stb	r2,7(r3)
  802fe8:	00801d04 	movi	r2,116
  802fec:	18800205 	stb	r2,8(r3)
  802ff0:	00801b44 	movi	r2,109
  802ff4:	18800245 	stb	r2,9(r3)
  802ff8:	00801b04 	movi	r2,108
  802ffc:	18800285 	stb	r2,10(r3)
  803000:	180002c5 	stb	zero,11(r3)
  int     ret_code = 0;

  strncpy( filename, ALTERA_RO_ZIPFS_NAME, strlen(ALTERA_RO_ZIPFS_NAME));

  /* URI of "/" means get the default, usually index.html */
  if ( (conn->uri[0] == '/') && (conn->uri[1] == '\0') )
  803004:	00000506 	br	80301c <http_find_file+0xf4>
  {
    strcpy(filename+strlen(ALTERA_RO_ZIPFS_NAME), HTTP_DEFAULT_FILE);
  }
  else
  {
    strcpy( filename+strlen(ALTERA_RO_ZIPFS_NAME), conn->uri);
  803008:	e0bfbe04 	addi	r2,fp,-264
  80300c:	11000304 	addi	r4,r2,12
  803010:	e0bffe17 	ldw	r2,-8(fp)
  803014:	11407604 	addi	r5,r2,472
  803018:	0807c7c0 	call	807c7c <strcpy>
  }
  
  /* Try to open the file */
  printf("\nFetching file:  %s.\n", filename );
  80301c:	e17fbe04 	addi	r5,fp,-264
  803020:	01002174 	movhi	r4,133
  803024:	212dab04 	addi	r4,r4,-18772
  803028:	08072f00 	call	8072f0 <printf>
  conn->file_handle = fopen(filename, "r");
  80302c:	e13fbe04 	addi	r4,fp,-264
  803030:	01402174 	movhi	r5,133
  803034:	296db104 	addi	r5,r5,-18748
  803038:	08057d80 	call	8057d8 <fopen>
  80303c:	1007883a 	mov	r3,r2
  803040:	e0bffe17 	ldw	r2,-8(fp)
  803044:	10c00b15 	stw	r3,44(r2)
  
  /* Can't find the requested file? Try for a 404-page. */
  if (conn->file_handle == NULL)
  803048:	e0bffe17 	ldw	r2,-8(fp)
  80304c:	10800b17 	ldw	r2,44(r2)
  803050:	1004c03a 	cmpne	r2,r2,zero
  803054:	1000461e 	bne	r2,zero,803170 <http_find_file+0x248>
  {
    strcpy(filename, ALTERA_RO_ZIPFS_NAME);
  803058:	e0ffbe04 	addi	r3,fp,-264
  80305c:	009d1bb4 	movhi	r2,29806
  803060:	109b4bc4 	addi	r2,r2,27951
  803064:	18800015 	stw	r2,0(r3)
  803068:	009e9bf4 	movhi	r2,31343
  80306c:	109c8bc4 	addi	r2,r2,29231
  803070:	18800115 	stw	r2,4(r3)
  803074:	009cd9b4 	movhi	r2,29542
  803078:	109c1a44 	addi	r2,r2,28777
  80307c:	18800215 	stw	r2,8(r3)
  803080:	18000305 	stb	zero,12(r3)
    strcpy(filename+strlen(ALTERA_RO_ZIPFS_NAME), HTTP_NOT_FOUND_FILE);
  803084:	e0bfbe04 	addi	r2,fp,-264
  803088:	10800304 	addi	r2,r2,12
  80308c:	00c02174 	movhi	r3,133
  803090:	18edb204 	addi	r3,r3,-18744
  803094:	1009883a 	mov	r4,r2
  803098:	180b883a 	mov	r5,r3
  80309c:	01800404 	movi	r6,16
  8030a0:	0806fe00 	call	806fe0 <memcpy>
    conn->file_handle = fopen(filename, "r");
  8030a4:	e13fbe04 	addi	r4,fp,-264
  8030a8:	01402174 	movhi	r5,133
  8030ac:	296db104 	addi	r5,r5,-18748
  8030b0:	08057d80 	call	8057d8 <fopen>
  8030b4:	1007883a 	mov	r3,r2
  8030b8:	e0bffe17 	ldw	r2,-8(fp)
  8030bc:	10c00b15 	stw	r3,44(r2)
    
    /* We located the specified "404: Not-Found" page */
    if (conn->file_handle != NULL)
  8030c0:	e0bffe17 	ldw	r2,-8(fp)
  8030c4:	10800b17 	ldw	r2,44(r2)
  8030c8:	1005003a 	cmpeq	r2,r2,zero
  8030cc:	1000061e 	bne	r2,zero,8030e8 <http_find_file+0x1c0>
    {
      ALT_DEBUG_ASSERT(fd != NULL);
      ret_code = http_send_file_header(conn, filename, HTTP_NOT_FOUND);
  8030d0:	e17fbe04 	addi	r5,fp,-264
  8030d4:	e13ffe17 	ldw	r4,-8(fp)
  8030d8:	01806504 	movi	r6,404
  8030dc:	08027e80 	call	8027e8 <http_send_file_header>
  8030e0:	e0bfbd15 	stw	r2,-268(fp)
  8030e4:	00002706 	br	803184 <http_find_file+0x25c>
    }
    /* Can't find the 404 page: This likely means there is no file system */
    else
    {
      fprintf(stderr, "Can't open the 404 File Not Found error page.\n");
  8030e8:	00802174 	movhi	r2,133
  8030ec:	10826704 	addi	r2,r2,2460
  8030f0:	10800017 	ldw	r2,0(r2)
  8030f4:	11c00317 	ldw	r7,12(r2)
  8030f8:	01002174 	movhi	r4,133
  8030fc:	212db604 	addi	r4,r4,-18728
  803100:	01400044 	movi	r5,1
  803104:	01800b84 	movi	r6,46
  803108:	08066cc0 	call	8066cc <fwrite>
      fprintf(stderr, "Have you programmed the filing system into flash?\n");
  80310c:	00802174 	movhi	r2,133
  803110:	10826704 	addi	r2,r2,2460
  803114:	10800017 	ldw	r2,0(r2)
  803118:	11c00317 	ldw	r7,12(r2)
  80311c:	01002174 	movhi	r4,133
  803120:	212dc204 	addi	r4,r4,-18680
  803124:	01400044 	movi	r5,1
  803128:	01800c84 	movi	r6,50
  80312c:	08066cc0 	call	8066cc <fwrite>
      send(conn->fd,(void*)canned_http_response,strlen(canned_http_response),0);
  803130:	e0bffe17 	ldw	r2,-8(fp)
  803134:	11000317 	ldw	r4,12(r2)
  803138:	01402174 	movhi	r5,133
  80313c:	296c2604 	addi	r5,r5,-20328
  803140:	01805784 	movi	r6,350
  803144:	000f883a 	mov	r7,zero
  803148:	082eb600 	call	82eb60 <t_send>
      
      fclose(conn->file_handle);
  80314c:	e0bffe17 	ldw	r2,-8(fp)
  803150:	11000b17 	ldw	r4,44(r2)
  803154:	08051980 	call	805198 <fclose>
      conn->state = RESET;
  803158:	e0fffe17 	ldw	r3,-8(fp)
  80315c:	00800104 	movi	r2,4
  803160:	18800015 	stw	r2,0(r3)
      return -1;  
  803164:	00bfffc4 	movi	r2,-1
  803168:	e0bfff15 	stw	r2,-4(fp)
  80316c:	00000706 	br	80318c <http_find_file+0x264>
    }
  }
  /* We've found the requested file; send its header and move on. */  
  else
  {
    ret_code = http_send_file_header(conn, filename, HTTP_OK);
  803170:	e17fbe04 	addi	r5,fp,-264
  803174:	e13ffe17 	ldw	r4,-8(fp)
  803178:	01803204 	movi	r6,200
  80317c:	08027e80 	call	8027e8 <http_send_file_header>
  803180:	e0bfbd15 	stw	r2,-268(fp)
  }

  return ret_code;
  803184:	e0bfbd17 	ldw	r2,-268(fp)
  803188:	e0bfff15 	stw	r2,-4(fp)
  80318c:	e0bfff17 	ldw	r2,-4(fp)
}
  803190:	e037883a 	mov	sp,fp
  803194:	dfc00117 	ldw	ra,4(sp)
  803198:	df000017 	ldw	fp,0(sp)
  80319c:	dec00204 	addi	sp,sp,8
  8031a0:	f800283a 	ret

008031a4 <http_send_redirect>:
 * This function sends re-directs to either program_flash.html or
 * reset_sytem.html.
 */

void http_send_redirect( alt_u8 redirect[256] )
{
  8031a4:	defffd04 	addi	sp,sp,-12
  8031a8:	dfc00215 	stw	ra,8(sp)
  8031ac:	df000115 	stw	fp,4(sp)
  8031b0:	df000104 	addi	fp,sp,4
  8031b4:	e13fff15 	stw	r4,-4(fp)
  printf ("Don't do anything....for now.\n");
  8031b8:	01002174 	movhi	r4,133
  8031bc:	212dcf04 	addi	r4,r4,-18628
  8031c0:	08074080 	call	807408 <puts>
}
  8031c4:	e037883a 	mov	sp,fp
  8031c8:	dfc00117 	ldw	ra,4(sp)
  8031cc:	df000017 	ldw	fp,0(sp)
  8031d0:	dec00204 	addi	sp,sp,8
  8031d4:	f800283a 	ret

008031d8 <http_handle_post>:
 * http_handle_post()
 *
 * Process the post request and take the appropriate action.
 */
int http_handle_post(http_conn* conn)
{
  8031d8:	defffa04 	addi	sp,sp,-24
  8031dc:	dfc00515 	stw	ra,20(sp)
  8031e0:	df000415 	stw	fp,16(sp)
  8031e4:	df000404 	addi	fp,sp,16
  8031e8:	e13fff15 	stw	r4,-4(fp)
  char* tx_wr_pos = conn->tx_buffer;
  8031ec:	e0bfff17 	ldw	r2,-4(fp)
  8031f0:	10801217 	ldw	r2,72(r2)
  8031f4:	e0bffe15 	stw	r2,-8(fp)
  int ret_code = 0;
  8031f8:	e03ffd15 	stw	zero,-12(fp)
  struct upload_buf_struct *upload_buffer = &upload_buf;
  8031fc:	008021b4 	movhi	r2,134
  803200:	10b63a04 	addi	r2,r2,-10008
  803204:	e0bffc15 	stw	r2,-16(fp)
  
  tx_wr_pos += sprintf(tx_wr_pos, HTTP_VERSION_STRING);
  803208:	e0fffe17 	ldw	r3,-8(fp)
  80320c:	00801204 	movi	r2,72
  803210:	18800005 	stb	r2,0(r3)
  803214:	00801504 	movi	r2,84
  803218:	18800045 	stb	r2,1(r3)
  80321c:	00801504 	movi	r2,84
  803220:	18800085 	stb	r2,2(r3)
  803224:	00801404 	movi	r2,80
  803228:	188000c5 	stb	r2,3(r3)
  80322c:	00800bc4 	movi	r2,47
  803230:	18800105 	stb	r2,4(r3)
  803234:	00800c44 	movi	r2,49
  803238:	18800145 	stb	r2,5(r3)
  80323c:	00800b84 	movi	r2,46
  803240:	18800185 	stb	r2,6(r3)
  803244:	00800c44 	movi	r2,49
  803248:	188001c5 	stb	r2,7(r3)
  80324c:	00800804 	movi	r2,32
  803250:	18800205 	stb	r2,8(r3)
  803254:	18000245 	stb	zero,9(r3)
  803258:	e0bffe17 	ldw	r2,-8(fp)
  80325c:	10800244 	addi	r2,r2,9
  803260:	e0bffe15 	stw	r2,-8(fp)
  tx_wr_pos += sprintf(tx_wr_pos, HTTP_NO_CONTENT_STRING);
  803264:	e0bffe17 	ldw	r2,-8(fp)
  803268:	00c02174 	movhi	r3,133
  80326c:	18edd704 	addi	r3,r3,-18596
  803270:	1009883a 	mov	r4,r2
  803274:	180b883a 	mov	r5,r3
  803278:	01800444 	movi	r6,17
  80327c:	0806fe00 	call	806fe0 <memcpy>
  803280:	e0bffe17 	ldw	r2,-8(fp)
  803284:	10800404 	addi	r2,r2,16
  803288:	e0bffe15 	stw	r2,-8(fp)
  tx_wr_pos += sprintf(tx_wr_pos, HTTP_CLOSE);
  80328c:	e0bffe17 	ldw	r2,-8(fp)
  803290:	00c02174 	movhi	r3,133
  803294:	18ed9404 	addi	r3,r3,-18864
  803298:	1009883a 	mov	r4,r2
  80329c:	180b883a 	mov	r5,r3
  8032a0:	01800504 	movi	r6,20
  8032a4:	0806fe00 	call	806fe0 <memcpy>
  8032a8:	e0bffe17 	ldw	r2,-8(fp)
  8032ac:	108004c4 	addi	r2,r2,19
  8032b0:	e0bffe15 	stw	r2,-8(fp)
  tx_wr_pos += sprintf(tx_wr_pos, HTTP_END_OF_HEADERS);
  8032b4:	e0fffe17 	ldw	r3,-8(fp)
  8032b8:	00800344 	movi	r2,13
  8032bc:	18800005 	stb	r2,0(r3)
  8032c0:	00800284 	movi	r2,10
  8032c4:	18800045 	stb	r2,1(r3)
  8032c8:	00800344 	movi	r2,13
  8032cc:	18800085 	stb	r2,2(r3)
  8032d0:	00800284 	movi	r2,10
  8032d4:	188000c5 	stb	r2,3(r3)
  8032d8:	18000105 	stb	zero,4(r3)
  8032dc:	e0bffe17 	ldw	r2,-8(fp)
  8032e0:	10800104 	addi	r2,r2,4
  8032e4:	e0bffe15 	stw	r2,-8(fp)

  if (!strcmp(conn->uri, mapping.name))
  8032e8:	e0bfff17 	ldw	r2,-4(fp)
  8032ec:	11007604 	addi	r4,r2,472
  8032f0:	d1600017 	ldw	r5,-32768(gp)
  8032f4:	0807bc00 	call	807bc0 <strcmp>
  8032f8:	1004c03a 	cmpne	r2,r2,zero
  8032fc:	1000121e 	bne	r2,zero,803348 <http_handle_post+0x170>
  {
    send(conn->fd, conn->tx_buffer, (tx_wr_pos - conn->tx_buffer), 0);
  803300:	e0bfff17 	ldw	r2,-4(fp)
  803304:	11000317 	ldw	r4,12(r2)
  803308:	e0bfff17 	ldw	r2,-4(fp)
  80330c:	11401217 	ldw	r5,72(r2)
  803310:	e0fffe17 	ldw	r3,-8(fp)
  803314:	e0bfff17 	ldw	r2,-4(fp)
  803318:	10801217 	ldw	r2,72(r2)
  80331c:	188dc83a 	sub	r6,r3,r2
  803320:	000f883a 	mov	r7,zero
  803324:	082eb600 	call	82eb60 <t_send>
    conn->state = CLOSE;
  803328:	e0ffff17 	ldw	r3,-4(fp)
  80332c:	00800144 	movi	r2,5
  803330:	18800015 	stw	r2,0(r3)
    mapping.func();
  803334:	00802174 	movhi	r2,133
  803338:	10825d04 	addi	r2,r2,2420
  80333c:	10800017 	ldw	r2,0(r2)
  803340:	103ee83a 	callr	r2
  803344:	00005c06 	br	8034b8 <http_handle_post+0x2e0>
  }

  else if (!strcmp(conn->uri, sweep_field.name))
  803348:	e0bfff17 	ldw	r2,-4(fp)
  80334c:	11007604 	addi	r4,r2,472
  803350:	d1600217 	ldw	r5,-32760(gp)
  803354:	0807bc00 	call	807bc0 <strcmp>
  803358:	1004c03a 	cmpne	r2,r2,zero
  80335c:	1000131e 	bne	r2,zero,8033ac <http_handle_post+0x1d4>
  {
    send(conn->fd, conn->tx_buffer, (tx_wr_pos - conn->tx_buffer), 0);
  803360:	e0bfff17 	ldw	r2,-4(fp)
  803364:	11000317 	ldw	r4,12(r2)
  803368:	e0bfff17 	ldw	r2,-4(fp)
  80336c:	11401217 	ldw	r5,72(r2)
  803370:	e0fffe17 	ldw	r3,-8(fp)
  803374:	e0bfff17 	ldw	r2,-4(fp)
  803378:	10801217 	ldw	r2,72(r2)
  80337c:	188dc83a 	sub	r6,r3,r2
  803380:	000f883a 	mov	r7,zero
  803384:	082eb600 	call	82eb60 <t_send>
    conn->state = CLOSE;
  803388:	e0ffff17 	ldw	r3,-4(fp)
  80338c:	00800144 	movi	r2,5
  803390:	18800015 	stw	r2,0(r3)
    sweep_field.func(conn);
  803394:	00802174 	movhi	r2,133
  803398:	10825f04 	addi	r2,r2,2428
  80339c:	10800017 	ldw	r2,0(r2)
  8033a0:	e13fff17 	ldw	r4,-4(fp)
  8033a4:	103ee83a 	callr	r2
